---
triple:          'arm64-apple-darwin'
binary-path:     '/Users/ggbrw/Documents/GEO Thesis/CoralGeneratorRepo/CoralGenerator/generateCoralReef'
relocations:
  - { offsetInCU: 0x426E, offset: 0x426E, size: 0x8, addend: 0x0, symName: __ZNSt3__19__shuffleB8ue170006INS_17_ClassicAlgPolicyENS_11__wrap_iterIPiEES4_RNS_26linear_congruential_engineIjLj48271ELj0ELj2147483647EEEEET0_S8_T1_OT2_, symObjAddr: 0x2B0C, symBinAddr: 0x100005D44, symSize: 0x13C }
  - { offsetInCU: 0x47EC, offset: 0x47EC, size: 0x8, addend: 0x0, symName: __ZNSt3__17advanceB8ue170006INS_11__wrap_iterIPiEEllvEEvRT_T0_, symObjAddr: 0x3AE0, symBinAddr: 0x100006D18, symSize: 0x38 }
  - { offsetInCU: 0x593B, offset: 0x593B, size: 0x8, addend: 0x0, symName: __ZNSt3__14iotaB8ue170006INS_11__wrap_iterIPiEEiEEvT_S4_T0_, symObjAddr: 0x1F4, symBinAddr: 0x10000342C, symSize: 0x70 }
  - { offsetInCU: 0x5991, offset: 0x5991, size: 0x8, addend: 0x0, symName: __ZNSt3__17shuffleB8ue170006INS_11__wrap_iterIPiEERNS_26linear_congruential_engineIjLj48271ELj0ELj2147483647EEEEEvT_S7_OT0_, symObjAddr: 0x2F8, symBinAddr: 0x100003530, symSize: 0x48 }
  - { offsetInCU: 0x5A03, offset: 0x5A03, size: 0x8, addend: 0x0, symName: __ZNSt3__112__to_addressB8ue170006IiEEPT_S2_, symObjAddr: 0xD68, symBinAddr: 0x100003FA0, symSize: 0x14 }
  - { offsetInCU: 0x5A38, offset: 0x5A38, size: 0x8, addend: 0x0, symName: __ZNSt3__119__libcpp_deallocateB8ue170006EPvmm, symObjAddr: 0xE40, symBinAddr: 0x100004078, symSize: 0x60 }
  - { offsetInCU: 0x5A9D, offset: 0x5A9D, size: 0x8, addend: 0x0, symName: __ZNSt3__124__is_overaligned_for_newB8ue170006Em, symObjAddr: 0xEA0, symBinAddr: 0x1000040D8, symSize: 0x20 }
  - { offsetInCU: 0x5ACB, offset: 0x5ACB, size: 0x8, addend: 0x0, symName: __ZNSt3__127__do_deallocate_handle_sizeB8ue170006IJSt11align_val_tEEEvPvmDpT_, symObjAddr: 0xEC0, symBinAddr: 0x1000040F8, symSize: 0x30 }
  - { offsetInCU: 0x5B1E, offset: 0x5B1E, size: 0x8, addend: 0x0, symName: __ZNSt3__127__do_deallocate_handle_sizeB8ue170006IJEEEvPvmDpT_, symObjAddr: 0xEF0, symBinAddr: 0x100004128, symSize: 0x28 }
  - { offsetInCU: 0x5B5C, offset: 0x5B5C, size: 0x8, addend: 0x0, symName: __ZNSt3__124__libcpp_operator_deleteB8ue170006IJPvSt11align_val_tEEEvDpT_, symObjAddr: 0xF18, symBinAddr: 0x100004150, symSize: 0x2C }
  - { offsetInCU: 0x5BA5, offset: 0x5BA5, size: 0x8, addend: 0x0, symName: __ZNSt3__124__libcpp_operator_deleteB8ue170006IJPvEEEvDpT_, symObjAddr: 0xF44, symBinAddr: 0x10000417C, symSize: 0x24 }
  - { offsetInCU: 0x5BDA, offset: 0x5BDA, size: 0x8, addend: 0x0, symName: __ZNSt3__13maxB8ue170006ImEERKT_S3_S3_, symObjAddr: 0x16F4, symBinAddr: 0x10000492C, symSize: 0x2C }
  - { offsetInCU: 0x5C1D, offset: 0x5C1D, size: 0x8, addend: 0x0, symName: __ZNSt3__13minB8ue170006ImEERKT_S3_S3_, symObjAddr: 0x1720, symBinAddr: 0x100004958, symSize: 0x2C }
  - { offsetInCU: 0x5E4A, offset: 0x5E4A, size: 0x8, addend: 0x0, symName: __ZNSt3__13minB8ue170006ImNS_6__lessIvvEEEERKT_S5_S5_T0_, symObjAddr: 0x17AC, symBinAddr: 0x1000049E4, symSize: 0x54 }
  - { offsetInCU: 0x5EE9, offset: 0x5EE9, size: 0x8, addend: 0x0, symName: __ZNSt3__120__throw_length_errorB8ue170006EPKc, symObjAddr: 0x1888, symBinAddr: 0x100004AC0, symSize: 0x64 }
  - { offsetInCU: 0x5F13, offset: 0x5F13, size: 0x8, addend: 0x0, symName: __ZNSt3__13maxB8ue170006ImNS_6__lessIvvEEEERKT_S5_S5_T0_, symObjAddr: 0x196C, symBinAddr: 0x100004BA4, symSize: 0x54 }
  - { offsetInCU: 0x5F6D, offset: 0x5F6D, size: 0x8, addend: 0x0, symName: __ZNSt3__119__allocate_at_leastB8ue170006INS_9allocatorIiEEEENS_19__allocation_resultINS_16allocator_traitsIT_E7pointerEEERS5_m, symObjAddr: 0x1AD0, symBinAddr: 0x100004D08, symSize: 0x40 }
  - { offsetInCU: 0x5FB0, offset: 0x5FB0, size: 0x8, addend: 0x0, symName: __ZNSt3__117__libcpp_allocateB8ue170006Emm, symObjAddr: 0x1C54, symBinAddr: 0x100004E8C, symSize: 0x60 }
  - { offsetInCU: 0x600A, offset: 0x600A, size: 0x8, addend: 0x0, symName: __ZNSt3__121__libcpp_operator_newB8ue170006IJmSt11align_val_tEEEPvDpT_, symObjAddr: 0x1CB4, symBinAddr: 0x100004EEC, symSize: 0x2C }
  - { offsetInCU: 0x6057, offset: 0x6057, size: 0x8, addend: 0x0, symName: __ZNSt3__121__libcpp_operator_newB8ue170006IJmEEEPvDpT_, symObjAddr: 0x1CE0, symBinAddr: 0x100004F18, symSize: 0x24 }
  - { offsetInCU: 0x6090, offset: 0x6090, size: 0x8, addend: 0x0, symName: __ZNSt3__142__uninitialized_allocator_move_if_noexceptB8ue170006INS_9allocatorIiEENS_16reverse_iteratorIPiEES5_ivEET1_RT_T0_S9_S6_, symObjAddr: 0x1E34, symBinAddr: 0x10000506C, symSize: 0x78 }
  - { offsetInCU: 0x610D, offset: 0x610D, size: 0x8, addend: 0x0, symName: __ZNSt3__14swapB8ue170006IPiEENS_9enable_ifIXaasr21is_move_constructibleIT_EE5valuesr18is_move_assignableIS3_EE5valueEvE4typeERS3_S6_, symObjAddr: 0x1EF8, symBinAddr: 0x100005130, symSize: 0x3C }
  - { offsetInCU: 0x615E, offset: 0x615E, size: 0x8, addend: 0x0, symName: __ZNSt3__14moveB8ue170006INS_16reverse_iteratorIPiEES3_EET0_T_S5_S4_, symObjAddr: 0x1FE0, symBinAddr: 0x100005218, symSize: 0x78 }
  - { offsetInCU: 0x61B8, offset: 0x61B8, size: 0x8, addend: 0x0, symName: __ZNSt3__16__moveB8ue170006INS_17_ClassicAlgPolicyENS_16reverse_iteratorIPiEES4_S4_EENS_4pairIT0_T2_EES6_T1_S7_, symObjAddr: 0x2058, symBinAddr: 0x100005290, symSize: 0x64 }
  - { offsetInCU: 0x6224, offset: 0x6224, size: 0x8, addend: 0x0, symName: __ZNSt3__123__dispatch_copy_or_moveB8ue170006INS_17_ClassicAlgPolicyENS_11__move_loopIS1_EENS_14__move_trivialENS_16reverse_iteratorIPiEES7_S7_EENS_4pairIT2_T4_EES9_T3_SA_, symObjAddr: 0x20BC, symBinAddr: 0x1000052F4, symSize: 0x64 }
  - { offsetInCU: 0x62A2, offset: 0x62A2, size: 0x8, addend: 0x0, symName: __ZNSt3__121__unwrap_and_dispatchB8ue170006INS_10__overloadINS_11__move_loopINS_17_ClassicAlgPolicyEEENS_14__move_trivialEEENS_16reverse_iteratorIPiEES9_S9_Li0EEENS_4pairIT0_T2_EESB_T1_SC_, symObjAddr: 0x2120, symBinAddr: 0x100005358, symSize: 0x12C }
  - { offsetInCU: 0x6332, offset: 0x6332, size: 0x8, addend: 0x0, symName: __ZNSt3__114__unwrap_rangeB8ue170006INS_16reverse_iteratorIPiEES3_EENS_4pairIT0_S5_EET_S7_, symObjAddr: 0x224C, symBinAddr: 0x100005484, symSize: 0x84 }
  - { offsetInCU: 0x64AD, offset: 0x64AD, size: 0x8, addend: 0x0, symName: __ZNSt3__113__unwrap_iterB8ue170006INS_16reverse_iteratorIPiEENS_18__unwrap_iter_implIS3_Lb0EEELi0EEEDTclsrT0_8__unwrapclsr3stdE7declvalIT_EEEES7_, symObjAddr: 0x2370, symBinAddr: 0x1000055A8, symSize: 0x44 }
  - { offsetInCU: 0x64F1, offset: 0x64F1, size: 0x8, addend: 0x0, symName: __ZNSt3__19make_pairB8ue170006INS_16reverse_iteratorIPiEES3_EENS_4pairINS_18__unwrap_ref_decayIT_E4typeENS5_IT0_E4typeEEEOS6_OS9_, symObjAddr: 0x23B4, symBinAddr: 0x1000055EC, symSize: 0x38 }
  - { offsetInCU: 0x6540, offset: 0x6540, size: 0x8, addend: 0x0, symName: __ZNSt3__114__rewrap_rangeB8ue170006INS_16reverse_iteratorIPiEES3_EET_S4_T0_, symObjAddr: 0x23EC, symBinAddr: 0x100005624, symSize: 0x5C }
  - { offsetInCU: 0x658C, offset: 0x658C, size: 0x8, addend: 0x0, symName: __ZNSt3__113__rewrap_iterB8ue170006INS_16reverse_iteratorIPiEES3_NS_18__unwrap_iter_implIS3_Lb0EEEEET_S6_T0_, symObjAddr: 0x2448, symBinAddr: 0x100005680, symSize: 0x74 }
  - { offsetInCU: 0x65E1, offset: 0x65E1, size: 0x8, addend: 0x0, symName: __ZNSt3__1neB8ue170006IPiS1_EEbRKNS_16reverse_iteratorIT_EERKNS2_IT0_EE, symObjAddr: 0x24BC, symBinAddr: 0x1000056F4, symSize: 0x48 }
  - { offsetInCU: 0x672A, offset: 0x672A, size: 0x8, addend: 0x0, symName: __ZNSt3__1neB8ue170006IPiEEbRKNS_11__wrap_iterIT_EES6_, symObjAddr: 0x2984, symBinAddr: 0x100005BBC, symSize: 0x34 }
  - { offsetInCU: 0x676D, offset: 0x676D, size: 0x8, addend: 0x0, symName: __ZNSt3__1eqB8ue170006IPiEEbRKNS_11__wrap_iterIT_EES6_, symObjAddr: 0x29F0, symBinAddr: 0x100005C28, symSize: 0x48 }
  - { offsetInCU: 0x67B0, offset: 0x67B0, size: 0x8, addend: 0x0, symName: __ZNSt3__1miB8ue170006IPiS1_EEDTmicldtfp_4baseEcldtfp0_4baseEERKNS_11__wrap_iterIT_EERKNS3_IT0_EE, symObjAddr: 0x2C68, symBinAddr: 0x100005EA0, symSize: 0x48 }
  - { offsetInCU: 0x67FC, offset: 0x67FC, size: 0x8, addend: 0x0, symName: __ZNSt3__1ltB8ue170006IPiEEbRKNS_11__wrap_iterIT_EES6_, symObjAddr: 0x2D0C, symBinAddr: 0x100005F44, symSize: 0x48 }
  - { offsetInCU: 0x683F, offset: 0x683F, size: 0x8, addend: 0x0, symName: __ZNSt3__113__countl_zeroB8ue170006ImEEiT_, symObjAddr: 0x308C, symBinAddr: 0x1000062C4, symSize: 0x54 }
  - { offsetInCU: 0x68DA, offset: 0x68DA, size: 0x8, addend: 0x0, symName: __ZNSt3__112__libcpp_clzB8ue170006Em, symObjAddr: 0x360C, symBinAddr: 0x100006844, symSize: 0x1C }
  - { offsetInCU: 0x6906, offset: 0x6906, size: 0x8, addend: 0x0, symName: __ZNSt3__19iter_swapB8ue170006INS_11__wrap_iterIPiEES3_EEvT_T0_, symObjAddr: 0x365C, symBinAddr: 0x100006894, symSize: 0x50 }
  - { offsetInCU: 0x694E, offset: 0x694E, size: 0x8, addend: 0x0, symName: __ZNSt3__14swapB8ue170006IiEENS_9enable_ifIXaasr21is_move_constructibleIT_EE5valuesr18is_move_assignableIS2_EE5valueEvE4typeERS2_S5_, symObjAddr: 0x36AC, symBinAddr: 0x1000068E4, symSize: 0x3C }
  - { offsetInCU: 0x699F, offset: 0x699F, size: 0x8, addend: 0x0, symName: __ZNSt3__18distanceB8ue170006INS_11__wrap_iterIPiEEEENS_15iterator_traitsIT_E15difference_typeES5_S5_, symObjAddr: 0x3A20, symBinAddr: 0x100006C58, symSize: 0x3C }
  - { offsetInCU: 0x69E2, offset: 0x69E2, size: 0x8, addend: 0x0, symName: __ZNSt3__1miB8ue170006IPKiPiEEDTmicldtfp_4baseEcldtfp0_4baseEERKNS_11__wrap_iterIT_EERKNS5_IT0_EE, symObjAddr: 0x3A5C, symBinAddr: 0x100006C94, symSize: 0x48 }
  - { offsetInCU: 0x6A2E, offset: 0x6A2E, size: 0x8, addend: 0x0, symName: __ZNSt3__14nextB8ue170006INS_11__wrap_iterIPiEEEENS_9enable_ifIXsr29__has_input_iterator_categoryIT_EE5valueES5_E4typeES5_NS_15iterator_traitsIS5_E15difference_typeE, symObjAddr: 0x3AA4, symBinAddr: 0x100006CDC, symSize: 0x3C }
  - { offsetInCU: 0x6A71, offset: 0x6A71, size: 0x8, addend: 0x0, symName: __ZNSt3__14copyB8ue170006INS_11__wrap_iterIPiEES2_EET0_T_S5_S4_, symObjAddr: 0x3CE0, symBinAddr: 0x100006F18, symSize: 0x50 }
  - { offsetInCU: 0x6ACB, offset: 0x6ACB, size: 0x8, addend: 0x0, symName: __ZNSt3__121__convert_to_integralB8ue170006El, symObjAddr: 0x3F64, symBinAddr: 0x10000719C, symSize: 0x14 }
  - { offsetInCU: 0x6AF7, offset: 0x6AF7, size: 0x8, addend: 0x0, symName: __ZNSt3__19__advanceB8ue170006INS_11__wrap_iterIPiEEEEvRT_NS_15iterator_traitsIS4_E15difference_typeENS_26random_access_iterator_tagE, symObjAddr: 0x3F78, symBinAddr: 0x1000071B0, symSize: 0x2C }
  - { offsetInCU: 0x6B40, offset: 0x6B40, size: 0x8, addend: 0x0, symName: __ZNSt3__130__uninitialized_allocator_copyB8ue170006INS_9allocatorIiEENS_11__wrap_iterIPiEES5_S4_EET2_RT_T0_T1_S6_, symObjAddr: 0x3FA4, symBinAddr: 0x1000071DC, symSize: 0x90 }
  - { offsetInCU: 0x6BDD, offset: 0x6BDD, size: 0x8, addend: 0x0, symName: __ZNSt3__114__unwrap_rangeB8ue170006INS_11__wrap_iterIPiEES2_EENS_4pairIT0_S5_EET_S7_, symObjAddr: 0x4034, symBinAddr: 0x10000726C, symSize: 0x70 }
  - { offsetInCU: 0x6C29, offset: 0x6C29, size: 0x8, addend: 0x0, symName: __ZNSt3__135__uninitialized_allocator_copy_implB8ue170006INS_9allocatorIiEEiiiLPv0EEEPT2_RT_PT0_S9_S5_, symObjAddr: 0x40A4, symBinAddr: 0x1000072DC, symSize: 0x38 }
  - { offsetInCU: 0x6CAA, offset: 0x6CAA, size: 0x8, addend: 0x0, symName: __ZNSt3__113__unwrap_iterB8ue170006IPiNS_18__unwrap_iter_implIS1_Lb1EEELi0EEEDTclsrT0_8__unwrapclsr3stdE7declvalIT_EEEES5_, symObjAddr: 0x40DC, symBinAddr: 0x100007314, symSize: 0x24 }
  - { offsetInCU: 0x6CEE, offset: 0x6CEE, size: 0x8, addend: 0x0, symName: __ZNSt3__113__rewrap_iterB8ue170006IPiS1_NS_18__unwrap_iter_implIS1_Lb1EEEEET_S4_T0_, symObjAddr: 0x4100, symBinAddr: 0x100007338, symSize: 0x3C }
  - { offsetInCU: 0x6D43, offset: 0x6D43, size: 0x8, addend: 0x0, symName: __ZNSt3__19make_pairB8ue170006IPiS1_EENS_4pairINS_18__unwrap_ref_decayIT_E4typeENS3_IT0_E4typeEEEOS4_OS7_, symObjAddr: 0x413C, symBinAddr: 0x100007374, symSize: 0x38 }
  - { offsetInCU: 0x6D92, offset: 0x6D92, size: 0x8, addend: 0x0, symName: __ZNSt3__113__unwrap_iterB8ue170006INS_11__wrap_iterIPiEENS_18__unwrap_iter_implIS3_Lb1EEELi0EEEDTclsrT0_8__unwrapclsr3stdE7declvalIT_EEEES7_, symObjAddr: 0x4174, symBinAddr: 0x1000073AC, symSize: 0x2C }
  - { offsetInCU: 0x6F5B, offset: 0x6F5B, size: 0x8, addend: 0x0, symName: __ZNSt3__112__to_addressB8ue170006INS_11__wrap_iterIPiEEvEEu7__decayIDTclsr19__to_address_helperIT_EE6__callclsr3stdE7declvalIRKS4_EEEEES6_, symObjAddr: 0x4238, symBinAddr: 0x100007470, symSize: 0x24 }
  - { offsetInCU: 0x7036, offset: 0x7036, size: 0x8, addend: 0x0, symName: __ZNSt3__14copyB8ue170006IPiS1_EET0_T_S3_S2_, symObjAddr: 0x42B8, symBinAddr: 0x1000074F0, symSize: 0x40 }
  - { offsetInCU: 0x7090, offset: 0x7090, size: 0x8, addend: 0x0, symName: __ZNSt3__16__copyB8ue170006INS_17_ClassicAlgPolicyEPiS2_S2_EENS_4pairIT0_T2_EES4_T1_S5_, symObjAddr: 0x42F8, symBinAddr: 0x100007530, symSize: 0x44 }
  - { offsetInCU: 0x70FC, offset: 0x70FC, size: 0x8, addend: 0x0, symName: __ZNSt3__123__dispatch_copy_or_moveB8ue170006INS_17_ClassicAlgPolicyENS_11__copy_loopIS1_EENS_14__copy_trivialEPiS5_S5_EENS_4pairIT2_T4_EES7_T3_S8_, symObjAddr: 0x433C, symBinAddr: 0x100007574, symSize: 0x44 }
  - { offsetInCU: 0x717A, offset: 0x717A, size: 0x8, addend: 0x0, symName: __ZNSt3__121__unwrap_and_dispatchB8ue170006INS_10__overloadINS_11__copy_loopINS_17_ClassicAlgPolicyEEENS_14__copy_trivialEEEPiS7_S7_Li0EEENS_4pairIT0_T2_EES9_T1_SA_, symObjAddr: 0x4380, symBinAddr: 0x1000075B8, symSize: 0xB4 }
  - { offsetInCU: 0x7208, offset: 0x7208, size: 0x8, addend: 0x0, symName: __ZNSt3__114__unwrap_rangeB8ue170006IPiS1_EENS_4pairIT0_S3_EET_S5_, symObjAddr: 0x4434, symBinAddr: 0x10000766C, symSize: 0x60 }
  - { offsetInCU: 0x729A, offset: 0x729A, size: 0x8, addend: 0x0, symName: __ZNSt3__114__rewrap_rangeB8ue170006IPiS1_EET_S2_T0_, symObjAddr: 0x44DC, symBinAddr: 0x100007714, symSize: 0x2C }
  - { offsetInCU: 0x72E6, offset: 0x72E6, size: 0x8, addend: 0x0, symName: __ZNSt3__119__copy_trivial_implB8ue170006IiiEENS_4pairIPT_PT0_EES3_S3_S5_, symObjAddr: 0x4508, symBinAddr: 0x100007740, symSize: 0x80 }
  - { offsetInCU: 0x734E, offset: 0x734E, size: 0x8, addend: 0x0, symName: __ZNSt3__119__constexpr_memmoveB8ue170006IiiLi0EEEPT_S2_PT0_NS_15__element_countE, symObjAddr: 0x4588, symBinAddr: 0x1000077C0, symSize: 0x64 }
  - { offsetInCU: 0x73BC, offset: 0x73BC, size: 0x8, addend: 0x0, symName: __ZNSt3__19make_pairB8ue170006IRPiS1_EENS_4pairINS_18__unwrap_ref_decayIT_E4typeENS4_IT0_E4typeEEEOS5_OS8_, symObjAddr: 0x45EC, symBinAddr: 0x100007824, symSize: 0x38 }
  - { offsetInCU: 0x745E, offset: 0x745E, size: 0x8, addend: 0x0, symName: __ZNSt3__113move_backwardB8ue170006IPiS1_EET0_T_S3_S2_, symObjAddr: 0x473C, symBinAddr: 0x100007974, symSize: 0x40 }
  - { offsetInCU: 0x74B8, offset: 0x74B8, size: 0x8, addend: 0x0, symName: __ZNSt3__115__move_backwardB8ue170006INS_17_ClassicAlgPolicyEPiS2_S2_EENS_4pairIT0_T2_EES4_T1_S5_, symObjAddr: 0x47A4, symBinAddr: 0x1000079DC, symSize: 0x44 }
  - { offsetInCU: 0x7524, offset: 0x7524, size: 0x8, addend: 0x0, symName: __ZNSt3__123__dispatch_copy_or_moveB8ue170006INS_17_ClassicAlgPolicyENS_20__move_backward_loopIS1_EENS_23__move_backward_trivialEPiS5_S5_EENS_4pairIT2_T4_EES7_T3_S8_, symObjAddr: 0x47E8, symBinAddr: 0x100007A20, symSize: 0x44 }
  - { offsetInCU: 0x75A2, offset: 0x75A2, size: 0x8, addend: 0x0, symName: __ZNSt3__121__unwrap_and_dispatchB8ue170006INS_10__overloadINS_20__move_backward_loopINS_17_ClassicAlgPolicyEEENS_23__move_backward_trivialEEEPiS7_S7_Li0EEENS_4pairIT0_T2_EES9_T1_SA_, symObjAddr: 0x482C, symBinAddr: 0x100007A64, symSize: 0xB4 }
  - { offsetInCU: 0x7676, offset: 0x7676, size: 0x8, addend: 0x0, symName: __ZNSt3__128__copy_backward_trivial_implB8ue170006IiiEENS_4pairIPT_PT0_EES3_S3_S5_, symObjAddr: 0x4928, symBinAddr: 0x100007B60, symSize: 0x90 }
  - { offsetInCU: 0x76DE, offset: 0x76DE, size: 0x8, addend: 0x0, symName: __ZNSt3__19make_pairB8ue170006IRPiS2_EENS_4pairINS_18__unwrap_ref_decayIT_E4typeENS4_IT0_E4typeEEEOS5_OS8_, symObjAddr: 0x49B8, symBinAddr: 0x100007BF0, symSize: 0x38 }
  - { offsetInCU: 0x772D, offset: 0x772D, size: 0x8, addend: 0x0, symName: __ZNSt3__16__copyB8ue170006INS_17_ClassicAlgPolicyENS_11__wrap_iterIPiEES4_S3_EENS_4pairIT0_T2_EES6_T1_S7_, symObjAddr: 0x4A60, symBinAddr: 0x100007C98, symSize: 0x54 }
  - { offsetInCU: 0x7799, offset: 0x7799, size: 0x8, addend: 0x0, symName: __ZNSt3__123__dispatch_copy_or_moveB8ue170006INS_17_ClassicAlgPolicyENS_11__copy_loopIS1_EENS_14__copy_trivialENS_11__wrap_iterIPiEES7_S6_EENS_4pairIT2_T4_EES9_T3_SA_, symObjAddr: 0x4AB4, symBinAddr: 0x100007CEC, symSize: 0x54 }
  - { offsetInCU: 0x7817, offset: 0x7817, size: 0x8, addend: 0x0, symName: __ZNSt3__121__unwrap_and_dispatchB8ue170006INS_10__overloadINS_11__copy_loopINS_17_ClassicAlgPolicyEEENS_14__copy_trivialEEENS_11__wrap_iterIPiEES9_S8_Li0EEENS_4pairIT0_T2_EESB_T1_SC_, symObjAddr: 0x4B08, symBinAddr: 0x100007D40, symSize: 0xCC }
  - { offsetInCU: 0x78A5, offset: 0x78A5, size: 0x8, addend: 0x0, symName: __ZNSt3__19make_pairB8ue170006INS_11__wrap_iterIPiEES2_EENS_4pairINS_18__unwrap_ref_decayIT_E4typeENS5_IT0_E4typeEEEOS6_OS9_, symObjAddr: 0x4BD4, symBinAddr: 0x100007E0C, symSize: 0x38 }
  - { offsetInCU: 0x78F4, offset: 0x78F4, size: 0x8, addend: 0x0, symName: __ZNSt3__114__rewrap_rangeB8ue170006INS_11__wrap_iterIPiEES2_EET_S4_T0_, symObjAddr: 0x4C0C, symBinAddr: 0x100007E44, symSize: 0x3C }
  - { offsetInCU: 0x7A14, offset: 0x7A14, size: 0x8, addend: 0x0, symName: __ZNSt3__113__rewrap_iterB8ue170006INS_11__wrap_iterIPiEES2_NS_18__unwrap_iter_implIS3_Lb1EEEEET_S6_T0_, symObjAddr: 0x4CB8, symBinAddr: 0x100007EF0, symSize: 0x4C }
  - { offsetInCU: 0x7A69, offset: 0x7A69, size: 0x8, addend: 0x0, symName: __ZNSt3__142__uninitialized_allocator_move_if_noexceptB8ue170006INS_9allocatorIiEEPiS3_ivEET1_RT_T0_S7_S4_, symObjAddr: 0x4DBC, symBinAddr: 0x100007FF4, symSize: 0x38 }
  - { offsetInCU: 0x7AE5, offset: 0x7AE5, size: 0x8, addend: 0x0, symName: __ZNSt3__14moveB8ue170006IPiS1_EET0_T_S3_S2_, symObjAddr: 0x4DF4, symBinAddr: 0x10000802C, symSize: 0x40 }
  - { offsetInCU: 0x7B3F, offset: 0x7B3F, size: 0x8, addend: 0x0, symName: __ZNSt3__16__moveB8ue170006INS_17_ClassicAlgPolicyEPiS2_S2_EENS_4pairIT0_T2_EES4_T1_S5_, symObjAddr: 0x4E34, symBinAddr: 0x10000806C, symSize: 0x44 }
  - { offsetInCU: 0x7BAB, offset: 0x7BAB, size: 0x8, addend: 0x0, symName: __ZNSt3__123__dispatch_copy_or_moveB8ue170006INS_17_ClassicAlgPolicyENS_11__move_loopIS1_EENS_14__move_trivialEPiS5_S5_EENS_4pairIT2_T4_EES7_T3_S8_, symObjAddr: 0x4E78, symBinAddr: 0x1000080B0, symSize: 0x44 }
  - { offsetInCU: 0x7C29, offset: 0x7C29, size: 0x8, addend: 0x0, symName: __ZNSt3__121__unwrap_and_dispatchB8ue170006INS_10__overloadINS_11__move_loopINS_17_ClassicAlgPolicyEEENS_14__move_trivialEEEPiS7_S7_Li0EEENS_4pairIT0_T2_EES9_T1_SA_, symObjAddr: 0x4EBC, symBinAddr: 0x1000080F4, symSize: 0xB4 }
  - { offsetInCU: 0x7CFD, offset: 0x7CFD, size: 0x8, addend: 0x0, symName: __ZNSt3__110__distanceB8ue170006INS_11__wrap_iterIPiEEEENS_15iterator_traitsIT_E15difference_typeES5_S5_NS_26random_access_iterator_tagE, symObjAddr: 0x4FB8, symBinAddr: 0x1000081F0, symSize: 0x30 }
  - { offsetInCU: 0x8076, offset: 0x8076, size: 0x8, addend: 0x0, symName: __ZSt28__throw_bad_array_new_lengthB8ue170006v, symObjAddr: 0x1C20, symBinAddr: 0x100004E58, symSize: 0x34 }
  - { offsetInCU: 0x8454, offset: 0x8454, size: 0x8, addend: 0x0, symName: __ZNSt3__16vectorIiNS_9allocatorIiEEE26__swap_out_circular_bufferERNS_14__split_bufferIiRS2_EE, symObjAddr: 0x13F0, symBinAddr: 0x100004628, symSize: 0x110 }
  - { offsetInCU: 0x84E9, offset: 0x84E9, size: 0x8, addend: 0x0, symName: __ZNSt3__124uniform_int_distributionIlEclINS_26linear_congruential_engineIjLj48271ELj0ELj2147483647EEEEElRT_RKNS1_10param_typeE, symObjAddr: 0x2D54, symBinAddr: 0x100005F8C, symSize: 0x174 }
  - { offsetInCU: 0x859F, offset: 0x859F, size: 0x8, addend: 0x0, symName: __ZNSt3__16vectorIiNS_9allocatorIiEEE26__swap_out_circular_bufferERNS_14__split_bufferIiRS2_EEPi, symObjAddr: 0x3E00, symBinAddr: 0x100007038, symSize: 0x14C }
  - { offsetInCU: 0xA93B, offset: 0xA93B, size: 0x8, addend: 0x0, symName: __ZN11PerlinNoiseC2Ej, symObjAddr: 0x0, symBinAddr: 0x100003238, symSize: 0x134 }
  - { offsetInCU: 0xA988, offset: 0xA988, size: 0x8, addend: 0x0, symName: __ZNSt3__16vectorIiNS_9allocatorIiEEEC1B8ue170006Ev, symObjAddr: 0x134, symBinAddr: 0x10000336C, symSize: 0x2C }
  - { offsetInCU: 0xA9B0, offset: 0xA9B0, size: 0x8, addend: 0x0, symName: __ZNSt3__16vectorIiNS_9allocatorIiEEE6resizeEm, symObjAddr: 0x160, symBinAddr: 0x100003398, symSize: 0x94 }
  - { offsetInCU: 0xA9F4, offset: 0xA9F4, size: 0x8, addend: 0x0, symName: __ZNSt3__16vectorIiNS_9allocatorIiEEE5beginB8ue170006Ev, symObjAddr: 0x264, symBinAddr: 0x10000349C, symSize: 0x30 }
  - { offsetInCU: 0xAA1A, offset: 0xAA1A, size: 0x8, addend: 0x0, symName: __ZNSt3__16vectorIiNS_9allocatorIiEEE3endB8ue170006Ev, symObjAddr: 0x294, symBinAddr: 0x1000034CC, symSize: 0x30 }
  - { offsetInCU: 0xAA41, offset: 0xAA41, size: 0x8, addend: 0x0, symName: __ZNSt3__126linear_congruential_engineIjLj48271ELj0ELj2147483647EEC1B8ue170006Ej, symObjAddr: 0x2C4, symBinAddr: 0x1000034FC, symSize: 0x34 }
  - { offsetInCU: 0xAA77, offset: 0xAA77, size: 0x8, addend: 0x0, symName: __ZNSt3__16vectorIiNS_9allocatorIiEEE6insertINS_11__wrap_iterIPiEELi0EEES7_NS5_IPKiEET_SB_, symObjAddr: 0x340, symBinAddr: 0x100003578, symSize: 0x84 }
  - { offsetInCU: 0xAAE4, offset: 0xAAE4, size: 0x8, addend: 0x0, symName: __ZNSt3__111__wrap_iterIPKiEC1B8ue170006IPiEERKNS0_IT_EEPNS_9enable_ifIXsr14is_convertibleIS6_S2_EE5valueEvE4typeE, symObjAddr: 0x3C4, symBinAddr: 0x1000035FC, symSize: 0x3C }
  - { offsetInCU: 0xAB2E, offset: 0xAB2E, size: 0x8, addend: 0x0, symName: __ZNSt3__16vectorIiNS_9allocatorIiEEED1B8ue170006Ev, symObjAddr: 0x400, symBinAddr: 0x100003638, symSize: 0x2C }
  - { offsetInCU: 0xAB56, offset: 0xAB56, size: 0x8, addend: 0x0, symName: __ZN11PerlinNoiseC1Ej, symObjAddr: 0x42C, symBinAddr: 0x100003664, symSize: 0x34 }
  - { offsetInCU: 0xAB8F, offset: 0xAB8F, size: 0x8, addend: 0x0, symName: __ZNK11PerlinNoise5noiseEdd, symObjAddr: 0x460, symBinAddr: 0x100003698, symSize: 0x254 }
  - { offsetInCU: 0xAC51, offset: 0xAC51, size: 0x8, addend: 0x0, symName: __ZN11PerlinNoise4fadeEd, symObjAddr: 0x6B4, symBinAddr: 0x1000038EC, symSize: 0x44 }
  - { offsetInCU: 0xAC76, offset: 0xAC76, size: 0x8, addend: 0x0, symName: __ZNKSt3__16vectorIiNS_9allocatorIiEEEixB8ue170006Em, symObjAddr: 0x6F8, symBinAddr: 0x100003930, symSize: 0x24 }
  - { offsetInCU: 0xACAC, offset: 0xACAC, size: 0x8, addend: 0x0, symName: __ZN11PerlinNoise4lerpEddd, symObjAddr: 0x71C, symBinAddr: 0x100003954, symSize: 0x30 }
  - { offsetInCU: 0xACED, offset: 0xACED, size: 0x8, addend: 0x0, symName: __ZN11PerlinNoise4gradEidd, symObjAddr: 0x74C, symBinAddr: 0x100003984, symSize: 0x10C }
  - { offsetInCU: 0xAD5C, offset: 0xAD5C, size: 0x8, addend: 0x0, symName: __ZNSt3__111__wrap_iterIPKiEC2B8ue170006IPiEERKNS0_IT_EEPNS_9enable_ifIXsr14is_convertibleIS6_S2_EE5valueEvE4typeE, symObjAddr: 0x858, symBinAddr: 0x100003A90, symSize: 0x40 }
  - { offsetInCU: 0xADA6, offset: 0xADA6, size: 0x8, addend: 0x0, symName: __ZNKSt3__111__wrap_iterIPiE4baseB8ue170006Ev, symObjAddr: 0x898, symBinAddr: 0x100003AD0, symSize: 0x18 }
  - { offsetInCU: 0xADCB, offset: 0xADCB, size: 0x8, addend: 0x0, symName: __ZNSt3__16vectorIiNS_9allocatorIiEEEC2B8ue170006Ev, symObjAddr: 0x8B0, symBinAddr: 0x100003AE8, symSize: 0x4C }
  - { offsetInCU: 0xADFE, offset: 0xADFE, size: 0x8, addend: 0x0, symName: __ZNSt3__117__compressed_pairIPiNS_9allocatorIiEEEC1B8ue170006IDnNS_18__default_init_tagEEEOT_OT0_, symObjAddr: 0x8FC, symBinAddr: 0x100003B34, symSize: 0x3C }
  - { offsetInCU: 0xAE55, offset: 0xAE55, size: 0x8, addend: 0x0, symName: __ZNSt3__117__compressed_pairIPiNS_9allocatorIiEEEC2B8ue170006IDnNS_18__default_init_tagEEEOT_OT0_, symObjAddr: 0x944, symBinAddr: 0x100003B7C, symSize: 0x40 }
  - { offsetInCU: 0xAEAC, offset: 0xAEAC, size: 0x8, addend: 0x0, symName: __ZNSt3__122__compressed_pair_elemIPiLi0ELb0EEC2B8ue170006IDnvEEOT_, symObjAddr: 0x984, symBinAddr: 0x100003BBC, symSize: 0x1C }
  - { offsetInCU: 0xAEED, offset: 0xAEED, size: 0x8, addend: 0x0, symName: __ZNSt3__122__compressed_pair_elemINS_9allocatorIiEELi1ELb1EEC2B8ue170006ENS_18__default_init_tagE, symObjAddr: 0x9A0, symBinAddr: 0x100003BD8, symSize: 0x2C }
  - { offsetInCU: 0xAF20, offset: 0xAF20, size: 0x8, addend: 0x0, symName: __ZNSt3__19allocatorIiEC2B8ue170006Ev, symObjAddr: 0x9CC, symBinAddr: 0x100003C04, symSize: 0x2C }
  - { offsetInCU: 0xAF49, offset: 0xAF49, size: 0x8, addend: 0x0, symName: __ZNSt3__116__non_trivial_ifILb1ENS_9allocatorIiEEEC2B8ue170006Ev, symObjAddr: 0x9F8, symBinAddr: 0x100003C30, symSize: 0x14 }
  - { offsetInCU: 0xAF72, offset: 0xAF72, size: 0x8, addend: 0x0, symName: __ZNSt3__16vectorIiNS_9allocatorIiEEED2B8ue170006Ev, symObjAddr: 0xA0C, symBinAddr: 0x100003C44, symSize: 0x44 }
  - { offsetInCU: 0xAF9B, offset: 0xAF9B, size: 0x8, addend: 0x0, symName: __ZNSt3__16vectorIiNS_9allocatorIiEEE16__destroy_vectorC1B8ue170006ERS3_, symObjAddr: 0xA50, symBinAddr: 0x100003C88, symSize: 0x34 }
  - { offsetInCU: 0xAFD3, offset: 0xAFD3, size: 0x8, addend: 0x0, symName: __ZNSt3__16vectorIiNS_9allocatorIiEEE16__destroy_vectorclB8ue170006Ev, symObjAddr: 0xA84, symBinAddr: 0x100003CBC, symSize: 0x90 }
  - { offsetInCU: 0xAFF8, offset: 0xAFF8, size: 0x8, addend: 0x0, symName: __ZNSt3__16vectorIiNS_9allocatorIiEEE16__destroy_vectorC2B8ue170006ERS3_, symObjAddr: 0xB14, symBinAddr: 0x100003D4C, symSize: 0x20 }
  - { offsetInCU: 0xB030, offset: 0xB030, size: 0x8, addend: 0x0, symName: __ZNSt3__16vectorIiNS_9allocatorIiEEE7__clearB8ue170006Ev, symObjAddr: 0xB34, symBinAddr: 0x100003D6C, symSize: 0x28 }
  - { offsetInCU: 0xB055, offset: 0xB055, size: 0x8, addend: 0x0, symName: __ZNKSt3__16vectorIiNS_9allocatorIiEEE17__annotate_deleteB8ue170006Ev, symObjAddr: 0xB5C, symBinAddr: 0x100003D94, symSize: 0xB8 }
  - { offsetInCU: 0xB07A, offset: 0xB07A, size: 0x8, addend: 0x0, symName: __ZNSt3__116allocator_traitsINS_9allocatorIiEEE10deallocateB8ue170006ERS2_Pim, symObjAddr: 0xC14, symBinAddr: 0x100003E4C, symSize: 0x34 }
  - { offsetInCU: 0xB0BC, offset: 0xB0BC, size: 0x8, addend: 0x0, symName: __ZNSt3__16vectorIiNS_9allocatorIiEEE7__allocB8ue170006Ev, symObjAddr: 0xC48, symBinAddr: 0x100003E80, symSize: 0x28 }
  - { offsetInCU: 0xB0E1, offset: 0xB0E1, size: 0x8, addend: 0x0, symName: __ZNKSt3__16vectorIiNS_9allocatorIiEEE8capacityB8ue170006Ev, symObjAddr: 0xC70, symBinAddr: 0x100003EA8, symSize: 0x40 }
  - { offsetInCU: 0xB106, offset: 0xB106, size: 0x8, addend: 0x0, symName: __ZNSt3__16vectorIiNS_9allocatorIiEEE22__base_destruct_at_endB8ue170006EPi, symObjAddr: 0xCB0, symBinAddr: 0x100003EE8, symSize: 0x8C }
  - { offsetInCU: 0xB149, offset: 0xB149, size: 0x8, addend: 0x0, symName: __ZNSt3__116allocator_traitsINS_9allocatorIiEEE7destroyB8ue170006IivEEvRS2_PT_, symObjAddr: 0xD3C, symBinAddr: 0x100003F74, symSize: 0x2C }
  - { offsetInCU: 0xB186, offset: 0xB186, size: 0x8, addend: 0x0, symName: __ZNSt3__19allocatorIiE7destroyB8ue170006EPi, symObjAddr: 0xD7C, symBinAddr: 0x100003FB4, symSize: 0x14 }
  - { offsetInCU: 0xB1B9, offset: 0xB1B9, size: 0x8, addend: 0x0, symName: __ZNKSt3__16vectorIiNS_9allocatorIiEEE31__annotate_contiguous_containerB8ue170006EPKvS5_S5_S5_, symObjAddr: 0xD90, symBinAddr: 0x100003FC8, symSize: 0x20 }
  - { offsetInCU: 0xB20A, offset: 0xB20A, size: 0x8, addend: 0x0, symName: __ZNKSt3__16vectorIiNS_9allocatorIiEEE4dataB8ue170006Ev, symObjAddr: 0xDB0, symBinAddr: 0x100003FE8, symSize: 0x28 }
  - { offsetInCU: 0xB22F, offset: 0xB22F, size: 0x8, addend: 0x0, symName: __ZNKSt3__16vectorIiNS_9allocatorIiEEE4sizeB8ue170006Ev, symObjAddr: 0xDD8, symBinAddr: 0x100004010, symSize: 0x28 }
  - { offsetInCU: 0xB254, offset: 0xB254, size: 0x8, addend: 0x0, symName: __ZNSt3__19allocatorIiE10deallocateB8ue170006EPim, symObjAddr: 0xE00, symBinAddr: 0x100004038, symSize: 0x40 }
  - { offsetInCU: 0xB295, offset: 0xB295, size: 0x8, addend: 0x0, symName: __ZNSt3__117__compressed_pairIPiNS_9allocatorIiEEE6secondB8ue170006Ev, symObjAddr: 0xF68, symBinAddr: 0x1000041A0, symSize: 0x24 }
  - { offsetInCU: 0xB2BA, offset: 0xB2BA, size: 0x8, addend: 0x0, symName: __ZNSt3__122__compressed_pair_elemINS_9allocatorIiEELi1ELb1EE5__getB8ue170006Ev, symObjAddr: 0xF8C, symBinAddr: 0x1000041C4, symSize: 0x14 }
  - { offsetInCU: 0xB2DF, offset: 0xB2DF, size: 0x8, addend: 0x0, symName: __ZNKSt3__16vectorIiNS_9allocatorIiEEE9__end_capB8ue170006Ev, symObjAddr: 0xFA0, symBinAddr: 0x1000041D8, symSize: 0x28 }
  - { offsetInCU: 0xB304, offset: 0xB304, size: 0x8, addend: 0x0, symName: __ZNKSt3__117__compressed_pairIPiNS_9allocatorIiEEE5firstB8ue170006Ev, symObjAddr: 0xFC8, symBinAddr: 0x100004200, symSize: 0x24 }
  - { offsetInCU: 0xB329, offset: 0xB329, size: 0x8, addend: 0x0, symName: __ZNKSt3__122__compressed_pair_elemIPiLi0ELb0EE5__getB8ue170006Ev, symObjAddr: 0xFEC, symBinAddr: 0x100004224, symSize: 0x14 }
  - { offsetInCU: 0xB34D, offset: 0xB34D, size: 0x8, addend: 0x0, symName: __ZNSt3__16vectorIiNS_9allocatorIiEEE8__appendEm, symObjAddr: 0x1000, symBinAddr: 0x100004238, symSize: 0x108 }
  - { offsetInCU: 0xB3A7, offset: 0xB3A7, size: 0x8, addend: 0x0, symName: __ZNSt3__16vectorIiNS_9allocatorIiEEE17__destruct_at_endB8ue170006EPi, symObjAddr: 0x1108, symBinAddr: 0x100004340, symSize: 0x4C }
  - { offsetInCU: 0xB3EA, offset: 0xB3EA, size: 0x8, addend: 0x0, symName: __ZNSt3__16vectorIiNS_9allocatorIiEEE9__end_capB8ue170006Ev, symObjAddr: 0x1154, symBinAddr: 0x10000438C, symSize: 0x28 }
  - { offsetInCU: 0xB40E, offset: 0xB40E, size: 0x8, addend: 0x0, symName: __ZNSt3__16vectorIiNS_9allocatorIiEEE18__construct_at_endEm, symObjAddr: 0x117C, symBinAddr: 0x1000043B4, symSize: 0xC8 }
  - { offsetInCU: 0xB47E, offset: 0xB47E, size: 0x8, addend: 0x0, symName: __ZNKSt3__16vectorIiNS_9allocatorIiEEE11__recommendB8ue170006Em, symObjAddr: 0x1244, symBinAddr: 0x10000447C, symSize: 0xB4 }
  - { offsetInCU: 0xB4D2, offset: 0xB4D2, size: 0x8, addend: 0x0, symName: __ZNSt3__114__split_bufferIiRNS_9allocatorIiEEEC1EmmS3_, symObjAddr: 0x12F8, symBinAddr: 0x100004530, symSize: 0x44 }
  - { offsetInCU: 0xB526, offset: 0xB526, size: 0x8, addend: 0x0, symName: __ZNSt3__114__split_bufferIiRNS_9allocatorIiEEE18__construct_at_endEm, symObjAddr: 0x133C, symBinAddr: 0x100004574, symSize: 0xB4 }
  - { offsetInCU: 0xB56A, offset: 0xB56A, size: 0x8, addend: 0x0, symName: __ZNSt3__114__split_bufferIiRNS_9allocatorIiEEED1Ev, symObjAddr: 0x1500, symBinAddr: 0x100004738, symSize: 0x2C }
  - { offsetInCU: 0xB595, offset: 0xB595, size: 0x8, addend: 0x0, symName: __ZNSt3__117__compressed_pairIPiNS_9allocatorIiEEE5firstB8ue170006Ev, symObjAddr: 0x152C, symBinAddr: 0x100004764, symSize: 0x24 }
  - { offsetInCU: 0xB5BA, offset: 0xB5BA, size: 0x8, addend: 0x0, symName: __ZNSt3__122__compressed_pair_elemIPiLi0ELb0EE5__getB8ue170006Ev, symObjAddr: 0x1550, symBinAddr: 0x100004788, symSize: 0x14 }
  - { offsetInCU: 0xB5F8, offset: 0xB5F8, size: 0x8, addend: 0x0, symName: __ZNSt3__16vectorIiNS_9allocatorIiEEE21_ConstructTransactionC1B8ue170006ERS3_m, symObjAddr: 0x1564, symBinAddr: 0x10000479C, symSize: 0x3C }
  - { offsetInCU: 0xB63F, offset: 0xB63F, size: 0x8, addend: 0x0, symName: __ZNSt3__116allocator_traitsINS_9allocatorIiEEE9constructB8ue170006IiJEvEEvRS2_PT_DpOT0_, symObjAddr: 0x15A0, symBinAddr: 0x1000047D8, symSize: 0x2C }
  - { offsetInCU: 0xB681, offset: 0xB681, size: 0x8, addend: 0x0, symName: __ZNSt3__16vectorIiNS_9allocatorIiEEE21_ConstructTransactionD1B8ue170006Ev, symObjAddr: 0x15CC, symBinAddr: 0x100004804, symSize: 0x2C }
  - { offsetInCU: 0xB6AA, offset: 0xB6AA, size: 0x8, addend: 0x0, symName: __ZNSt3__16vectorIiNS_9allocatorIiEEE21_ConstructTransactionC2B8ue170006ERS3_m, symObjAddr: 0x15F8, symBinAddr: 0x100004830, symSize: 0x44 }
  - { offsetInCU: 0xB6F1, offset: 0xB6F1, size: 0x8, addend: 0x0, symName: __ZNSt3__19allocatorIiE9constructB8ue170006IiJEEEvPT_DpOT0_, symObjAddr: 0x163C, symBinAddr: 0x100004874, symSize: 0x1C }
  - { offsetInCU: 0xB732, offset: 0xB732, size: 0x8, addend: 0x0, symName: __ZNSt3__16vectorIiNS_9allocatorIiEEE21_ConstructTransactionD2B8ue170006Ev, symObjAddr: 0x1658, symBinAddr: 0x100004890, symSize: 0x20 }
  - { offsetInCU: 0xB75A, offset: 0xB75A, size: 0x8, addend: 0x0, symName: __ZNKSt3__16vectorIiNS_9allocatorIiEEE8max_sizeEv, symObjAddr: 0x1678, symBinAddr: 0x1000048B0, symSize: 0x60 }
  - { offsetInCU: 0xB781, offset: 0xB781, size: 0x8, addend: 0x0, symName: __ZNKSt3__16vectorIiNS_9allocatorIiEEE20__throw_length_errorB8ue170006Ev, symObjAddr: 0x16D8, symBinAddr: 0x100004910, symSize: 0x1C }
  - { offsetInCU: 0xB7B0, offset: 0xB7B0, size: 0x8, addend: 0x0, symName: __ZNSt3__116allocator_traitsINS_9allocatorIiEEE8max_sizeB8ue170006IS2_vEEmRKS2_, symObjAddr: 0x174C, symBinAddr: 0x100004984, symSize: 0x24 }
  - { offsetInCU: 0xB7DE, offset: 0xB7DE, size: 0x8, addend: 0x0, symName: __ZNKSt3__16vectorIiNS_9allocatorIiEEE7__allocB8ue170006Ev, symObjAddr: 0x1770, symBinAddr: 0x1000049A8, symSize: 0x28 }
  - { offsetInCU: 0xB803, offset: 0xB803, size: 0x8, addend: 0x0, symName: __ZNSt3__114numeric_limitsIlE3maxB8ue170006Ev, symObjAddr: 0x1798, symBinAddr: 0x1000049D0, symSize: 0x14 }
  - { offsetInCU: 0xB82B, offset: 0xB82B, size: 0x8, addend: 0x0, symName: __ZNKSt3__16__lessIvvEclB8ue170006ImmEEbRKT_RKT0_, symObjAddr: 0x1800, symBinAddr: 0x100004A38, symSize: 0x34 }
  - { offsetInCU: 0xB87E, offset: 0xB87E, size: 0x8, addend: 0x0, symName: __ZNKSt3__19allocatorIiE8max_sizeB8ue170006Ev, symObjAddr: 0x1834, symBinAddr: 0x100004A6C, symSize: 0x14 }
  - { offsetInCU: 0xB8A3, offset: 0xB8A3, size: 0x8, addend: 0x0, symName: __ZNKSt3__117__compressed_pairIPiNS_9allocatorIiEEE6secondB8ue170006Ev, symObjAddr: 0x1848, symBinAddr: 0x100004A80, symSize: 0x24 }
  - { offsetInCU: 0xB8C8, offset: 0xB8C8, size: 0x8, addend: 0x0, symName: __ZNKSt3__122__compressed_pair_elemINS_9allocatorIiEELi1ELb1EE5__getB8ue170006Ev, symObjAddr: 0x186C, symBinAddr: 0x100004AA4, symSize: 0x14 }
  - { offsetInCU: 0xB8ED, offset: 0xB8ED, size: 0x8, addend: 0x0, symName: __ZNSt3__123__libcpp_numeric_limitsIlLb1EE3maxB8ue170006Ev, symObjAddr: 0x1880, symBinAddr: 0x100004AB8, symSize: 0x8 }
  - { offsetInCU: 0xB901, offset: 0xB901, size: 0x8, addend: 0x0, symName: __ZNSt12length_errorC1B8ue170006EPKc, symObjAddr: 0x18EC, symBinAddr: 0x100004B24, symSize: 0x34 }
  - { offsetInCU: 0xB938, offset: 0xB938, size: 0x8, addend: 0x0, symName: __ZNSt12length_errorC2B8ue170006EPKc, symObjAddr: 0x1920, symBinAddr: 0x100004B58, symSize: 0x4C }
  - { offsetInCU: 0xB96F, offset: 0xB96F, size: 0x8, addend: 0x0, symName: __ZNSt3__114__split_bufferIiRNS_9allocatorIiEEEC2EmmS3_, symObjAddr: 0x19C0, symBinAddr: 0x100004BF8, symSize: 0xD4 }
  - { offsetInCU: 0xB9E1, offset: 0xB9E1, size: 0x8, addend: 0x0, symName: __ZNSt3__117__compressed_pairIPiRNS_9allocatorIiEEEC1B8ue170006IDnS4_EEOT_OT0_, symObjAddr: 0x1A94, symBinAddr: 0x100004CCC, symSize: 0x3C }
  - { offsetInCU: 0xBA38, offset: 0xBA38, size: 0x8, addend: 0x0, symName: __ZNSt3__114__split_bufferIiRNS_9allocatorIiEEE7__allocB8ue170006Ev, symObjAddr: 0x1B10, symBinAddr: 0x100004D48, symSize: 0x28 }
  - { offsetInCU: 0xBA5D, offset: 0xBA5D, size: 0x8, addend: 0x0, symName: __ZNSt3__114__split_bufferIiRNS_9allocatorIiEEE9__end_capB8ue170006Ev, symObjAddr: 0x1B38, symBinAddr: 0x100004D70, symSize: 0x28 }
  - { offsetInCU: 0xBA82, offset: 0xBA82, size: 0x8, addend: 0x0, symName: __ZNSt3__117__compressed_pairIPiRNS_9allocatorIiEEEC2B8ue170006IDnS4_EEOT_OT0_, symObjAddr: 0x1B60, symBinAddr: 0x100004D98, symSize: 0x48 }
  - { offsetInCU: 0xBAD9, offset: 0xBAD9, size: 0x8, addend: 0x0, symName: __ZNSt3__122__compressed_pair_elemIRNS_9allocatorIiEELi1ELb0EEC2B8ue170006IS3_vEEOT_, symObjAddr: 0x1BA8, symBinAddr: 0x100004DE0, symSize: 0x20 }
  - { offsetInCU: 0xBB1A, offset: 0xBB1A, size: 0x8, addend: 0x0, symName: __ZNSt3__19allocatorIiE8allocateB8ue170006Em, symObjAddr: 0x1BC8, symBinAddr: 0x100004E00, symSize: 0x58 }
  - { offsetInCU: 0xBB4D, offset: 0xBB4D, size: 0x8, addend: 0x0, symName: __ZNSt3__117__compressed_pairIPiRNS_9allocatorIiEEE6secondB8ue170006Ev, symObjAddr: 0x1D04, symBinAddr: 0x100004F3C, symSize: 0x28 }
  - { offsetInCU: 0xBB72, offset: 0xBB72, size: 0x8, addend: 0x0, symName: __ZNSt3__122__compressed_pair_elemIRNS_9allocatorIiEELi1ELb0EE5__getB8ue170006Ev, symObjAddr: 0x1D2C, symBinAddr: 0x100004F64, symSize: 0x18 }
  - { offsetInCU: 0xBB97, offset: 0xBB97, size: 0x8, addend: 0x0, symName: __ZNSt3__117__compressed_pairIPiRNS_9allocatorIiEEE5firstB8ue170006Ev, symObjAddr: 0x1D44, symBinAddr: 0x100004F7C, symSize: 0x24 }
  - { offsetInCU: 0xBBC6, offset: 0xBBC6, size: 0x8, addend: 0x0, symName: __ZNSt3__114__split_bufferIiRNS_9allocatorIiEEE21_ConstructTransactionC1B8ue170006EPPim, symObjAddr: 0x1D68, symBinAddr: 0x100004FA0, symSize: 0x3C }
  - { offsetInCU: 0xBC0B, offset: 0xBC0B, size: 0x8, addend: 0x0, symName: __ZNSt3__114__split_bufferIiRNS_9allocatorIiEEE21_ConstructTransactionD1B8ue170006Ev, symObjAddr: 0x1DA4, symBinAddr: 0x100004FDC, symSize: 0x2C }
  - { offsetInCU: 0xBC34, offset: 0xBC34, size: 0x8, addend: 0x0, symName: __ZNSt3__114__split_bufferIiRNS_9allocatorIiEEE21_ConstructTransactionC2B8ue170006EPPim, symObjAddr: 0x1DD0, symBinAddr: 0x100005008, symSize: 0x44 }
  - { offsetInCU: 0xBC79, offset: 0xBC79, size: 0x8, addend: 0x0, symName: __ZNSt3__114__split_bufferIiRNS_9allocatorIiEEE21_ConstructTransactionD2B8ue170006Ev, symObjAddr: 0x1E14, symBinAddr: 0x10000504C, symSize: 0x20 }
  - { offsetInCU: 0xBCA2, offset: 0xBCA2, size: 0x8, addend: 0x0, symName: __ZNSt3__116reverse_iteratorIPiEC1B8ue170006ES1_, symObjAddr: 0x1EAC, symBinAddr: 0x1000050E4, symSize: 0x34 }
  - { offsetInCU: 0xBCD9, offset: 0xBCD9, size: 0x8, addend: 0x0, symName: __ZNKSt3__116reverse_iteratorIPiE4baseB8ue170006Ev, symObjAddr: 0x1EE0, symBinAddr: 0x100005118, symSize: 0x18 }
  - { offsetInCU: 0xBCFE, offset: 0xBCFE, size: 0x8, addend: 0x0, symName: __ZNKSt3__16vectorIiNS_9allocatorIiEEE14__annotate_newB8ue170006Em, symObjAddr: 0x1F34, symBinAddr: 0x10000516C, symSize: 0xAC }
  - { offsetInCU: 0xBD55, offset: 0xBD55, size: 0x8, addend: 0x0, symName: __ZNKSt3__111__move_loopINS_17_ClassicAlgPolicyEEclB8ue170006INS_16reverse_iteratorIPiEES6_S6_EENS_4pairIT_T1_EES8_T0_S9_, symObjAddr: 0x22D0, symBinAddr: 0x100005508, symSize: 0xA0 }
  - { offsetInCU: 0xBDC4, offset: 0xBDC4, size: 0x8, addend: 0x0, symName: __ZNSt3__18_IterOpsINS_17_ClassicAlgPolicyEE11__iter_moveB8ue170006IRNS_16reverse_iteratorIPiEEEENS_9enable_ifIXsr12is_referenceIDTdeclsr3stdE7declvalIRT_EEEEE5valueEDTclsr3stdE4movedeclsr3stdE7declvalISA_EEEEE4typeEOS9_, symObjAddr: 0x2504, symBinAddr: 0x10000573C, symSize: 0x28 }
  - { offsetInCU: 0xBDF0, offset: 0xBDF0, size: 0x8, addend: 0x0, symName: __ZNKSt3__116reverse_iteratorIPiEdeB8ue170006Ev, symObjAddr: 0x252C, symBinAddr: 0x100005764, symSize: 0x28 }
  - { offsetInCU: 0xBE23, offset: 0xBE23, size: 0x8, addend: 0x0, symName: __ZNSt3__116reverse_iteratorIPiEppB8ue170006Ev, symObjAddr: 0x2554, symBinAddr: 0x10000578C, symSize: 0x20 }
  - { offsetInCU: 0xBE48, offset: 0xBE48, size: 0x8, addend: 0x0, symName: __ZNSt3__18_IterOpsINS_17_ClassicAlgPolicyEE25__validate_iter_referenceB8ue170006IRNS_16reverse_iteratorIPiEEEEvv, symObjAddr: 0x2574, symBinAddr: 0x1000057AC, symSize: 0x4 }
  - { offsetInCU: 0xBE66, offset: 0xBE66, size: 0x8, addend: 0x0, symName: __ZNSt3__118__unwrap_iter_implINS_16reverse_iteratorIPiEELb0EE8__unwrapB8ue170006ES3_, symObjAddr: 0x2578, symBinAddr: 0x1000057B0, symSize: 0x24 }
  - { offsetInCU: 0xBE8E, offset: 0xBE8E, size: 0x8, addend: 0x0, symName: __ZNSt3__14pairINS_16reverse_iteratorIPiEES3_EC1B8ue170006IS3_S3_LPv0EEEOT_OT0_, symObjAddr: 0x259C, symBinAddr: 0x1000057D4, symSize: 0x3C }
  - { offsetInCU: 0xBEEB, offset: 0xBEEB, size: 0x8, addend: 0x0, symName: __ZNSt3__14pairINS_16reverse_iteratorIPiEES3_EC2B8ue170006IS3_S3_LPv0EEEOT_OT0_, symObjAddr: 0x25D8, symBinAddr: 0x100005810, symSize: 0x34 }
  - { offsetInCU: 0xBF48, offset: 0xBF48, size: 0x8, addend: 0x0, symName: __ZNSt3__118__unwrap_iter_implINS_16reverse_iteratorIPiEELb0EE8__rewrapB8ue170006ES3_S3_, symObjAddr: 0x260C, symBinAddr: 0x100005844, symSize: 0x2C }
  - { offsetInCU: 0xBF75, offset: 0xBF75, size: 0x8, addend: 0x0, symName: __ZNSt3__116reverse_iteratorIPiEC2B8ue170006ES1_, symObjAddr: 0x2638, symBinAddr: 0x100005870, symSize: 0x28 }
  - { offsetInCU: 0xBFAC, offset: 0xBFAC, size: 0x8, addend: 0x0, symName: __ZNSt3__114__split_bufferIiRNS_9allocatorIiEEED2Ev, symObjAddr: 0x2660, symBinAddr: 0x100005898, symSize: 0x8C }
  - { offsetInCU: 0xBFD7, offset: 0xBFD7, size: 0x8, addend: 0x0, symName: __ZNSt3__114__split_bufferIiRNS_9allocatorIiEEE5clearB8ue170006Ev, symObjAddr: 0x26EC, symBinAddr: 0x100005924, symSize: 0x28 }
  - { offsetInCU: 0xBFFC, offset: 0xBFFC, size: 0x8, addend: 0x0, symName: __ZNKSt3__114__split_bufferIiRNS_9allocatorIiEEE8capacityB8ue170006Ev, symObjAddr: 0x2714, symBinAddr: 0x10000594C, symSize: 0x40 }
  - { offsetInCU: 0xC021, offset: 0xC021, size: 0x8, addend: 0x0, symName: __ZNSt3__114__split_bufferIiRNS_9allocatorIiEEE17__destruct_at_endB8ue170006EPi, symObjAddr: 0x2754, symBinAddr: 0x10000598C, symSize: 0x2C }
  - { offsetInCU: 0xC053, offset: 0xC053, size: 0x8, addend: 0x0, symName: __ZNSt3__114__split_bufferIiRNS_9allocatorIiEEE17__destruct_at_endB8ue170006EPiNS_17integral_constantIbLb0EEE, symObjAddr: 0x2780, symBinAddr: 0x1000059B8, symSize: 0x80 }
  - { offsetInCU: 0xC092, offset: 0xC092, size: 0x8, addend: 0x0, symName: __ZNKSt3__114__split_bufferIiRNS_9allocatorIiEEE9__end_capB8ue170006Ev, symObjAddr: 0x2800, symBinAddr: 0x100005A38, symSize: 0x28 }
  - { offsetInCU: 0xC0B7, offset: 0xC0B7, size: 0x8, addend: 0x0, symName: __ZNKSt3__117__compressed_pairIPiRNS_9allocatorIiEEE5firstB8ue170006Ev, symObjAddr: 0x2828, symBinAddr: 0x100005A60, symSize: 0x24 }
  - { offsetInCU: 0xC0DC, offset: 0xC0DC, size: 0x8, addend: 0x0, symName: __ZNKSt3__16vectorIiNS_9allocatorIiEEE17__annotate_shrinkB8ue170006Em, symObjAddr: 0x284C, symBinAddr: 0x100005A84, symSize: 0xB4 }
  - { offsetInCU: 0xC110, offset: 0xC110, size: 0x8, addend: 0x0, symName: __ZNSt3__16vectorIiNS_9allocatorIiEEE11__make_iterB8ue170006EPi, symObjAddr: 0x2900, symBinAddr: 0x100005B38, symSize: 0x30 }
  - { offsetInCU: 0xC144, offset: 0xC144, size: 0x8, addend: 0x0, symName: __ZNSt3__111__wrap_iterIPiEC1B8ue170006ES1_, symObjAddr: 0x2930, symBinAddr: 0x100005B68, symSize: 0x34 }
  - { offsetInCU: 0xC17B, offset: 0xC17B, size: 0x8, addend: 0x0, symName: __ZNSt3__111__wrap_iterIPiEC2B8ue170006ES1_, symObjAddr: 0x2964, symBinAddr: 0x100005B9C, symSize: 0x20 }
  - { offsetInCU: 0xC1B2, offset: 0xC1B2, size: 0x8, addend: 0x0, symName: __ZNKSt3__111__wrap_iterIPiEdeB8ue170006Ev, symObjAddr: 0x29B8, symBinAddr: 0x100005BF0, symSize: 0x18 }
  - { offsetInCU: 0xC1D7, offset: 0xC1D7, size: 0x8, addend: 0x0, symName: __ZNSt3__111__wrap_iterIPiEppB8ue170006Ev, symObjAddr: 0x29D0, symBinAddr: 0x100005C08, symSize: 0x20 }
  - { offsetInCU: 0xC1FC, offset: 0xC1FC, size: 0x8, addend: 0x0, symName: __ZNSt3__126linear_congruential_engineIjLj48271ELj0ELj2147483647EEC2B8ue170006Ej, symObjAddr: 0x2A38, symBinAddr: 0x100005C70, symSize: 0x34 }
  - { offsetInCU: 0xC233, offset: 0xC233, size: 0x8, addend: 0x0, symName: __ZNSt3__126linear_congruential_engineIjLj48271ELj0ELj2147483647EE4seedB8ue170006Ej, symObjAddr: 0x2A6C, symBinAddr: 0x100005CA4, symSize: 0x2C }
  - { offsetInCU: 0xC266, offset: 0xC266, size: 0x8, addend: 0x0, symName: __ZNSt3__126linear_congruential_engineIjLj48271ELj0ELj2147483647EE4seedB8ue170006ENS_17integral_constantIbLb0EEENS2_IbLb1EEEj, symObjAddr: 0x2A98, symBinAddr: 0x100005CD0, symSize: 0x74 }
  - { offsetInCU: 0xC2B0, offset: 0xC2B0, size: 0x8, addend: 0x0, symName: __ZNSt3__18_IterOpsINS_17_ClassicAlgPolicyEE4nextB8ue170006INS_11__wrap_iterIPiEEEET_S7_S7_, symObjAddr: 0x2C48, symBinAddr: 0x100005E80, symSize: 0x20 }
  - { offsetInCU: 0xC2E6, offset: 0xC2E6, size: 0x8, addend: 0x0, symName: __ZNSt3__124uniform_int_distributionIlEC1B8ue170006Ev, symObjAddr: 0x2CB0, symBinAddr: 0x100005EE8, symSize: 0x3C }
  - { offsetInCU: 0xC30F, offset: 0xC30F, size: 0x8, addend: 0x0, symName: __ZNSt3__111__wrap_iterIPiEmmB8ue170006Ev, symObjAddr: 0x2CEC, symBinAddr: 0x100005F24, symSize: 0x20 }
  - { offsetInCU: 0xC334, offset: 0xC334, size: 0x8, addend: 0x0, symName: __ZNSt3__124uniform_int_distributionIlE10param_typeC1B8ue170006Ell, symObjAddr: 0x2EC8, symBinAddr: 0x100006100, symSize: 0x3C }
  - { offsetInCU: 0xC37E, offset: 0xC37E, size: 0x8, addend: 0x0, symName: __ZNSt3__18_IterOpsINS_17_ClassicAlgPolicyEE9iter_swapB8ue170006IRNS_11__wrap_iterIPiEES6_EEvOT_OT0_, symObjAddr: 0x2F04, symBinAddr: 0x10000613C, symSize: 0x44 }
  - { offsetInCU: 0xC3C1, offset: 0xC3C1, size: 0x8, addend: 0x0, symName: __ZNKSt3__111__wrap_iterIPiEplB8ue170006El, symObjAddr: 0x2F48, symBinAddr: 0x100006180, symSize: 0x3C }
  - { offsetInCU: 0xC402, offset: 0xC402, size: 0x8, addend: 0x0, symName: __ZNSt3__124uniform_int_distributionIlEC1B8ue170006Ell, symObjAddr: 0x2F84, symBinAddr: 0x1000061BC, symSize: 0x3C }
  - { offsetInCU: 0xC447, offset: 0xC447, size: 0x8, addend: 0x0, symName: __ZNSt3__124uniform_int_distributionIlEC2B8ue170006Ell, symObjAddr: 0x2FC0, symBinAddr: 0x1000061F8, symSize: 0x3C }
  - { offsetInCU: 0xC48C, offset: 0xC48C, size: 0x8, addend: 0x0, symName: __ZNKSt3__124uniform_int_distributionIlE10param_type1bB8ue170006Ev, symObjAddr: 0x2FFC, symBinAddr: 0x100006234, symSize: 0x18 }
  - { offsetInCU: 0xC4B1, offset: 0xC4B1, size: 0x8, addend: 0x0, symName: __ZNKSt3__124uniform_int_distributionIlE10param_type1aB8ue170006Ev, symObjAddr: 0x3014, symBinAddr: 0x10000624C, symSize: 0x18 }
  - { offsetInCU: 0xC4D6, offset: 0xC4D6, size: 0x8, addend: 0x0, symName: __ZNSt3__125__independent_bits_engineINS_26linear_congruential_engineIjLj48271ELj0ELj2147483647EEEmEC1ERS2_m, symObjAddr: 0x302C, symBinAddr: 0x100006264, symSize: 0x3C }
  - { offsetInCU: 0xC51C, offset: 0xC51C, size: 0x8, addend: 0x0, symName: __ZNSt3__125__independent_bits_engineINS_26linear_congruential_engineIjLj48271ELj0ELj2147483647EEEmEclB8ue170006Ev, symObjAddr: 0x3068, symBinAddr: 0x1000062A0, symSize: 0x24 }
  - { offsetInCU: 0xC541, offset: 0xC541, size: 0x8, addend: 0x0, symName: __ZNSt3__114numeric_limitsImE3maxB8ue170006Ev, symObjAddr: 0x30E0, symBinAddr: 0x100006318, symSize: 0x14 }
  - { offsetInCU: 0xC555, offset: 0xC555, size: 0x8, addend: 0x0, symName: __ZNSt3__125__independent_bits_engineINS_26linear_congruential_engineIjLj48271ELj0ELj2147483647EEEmEC2ERS2_m, symObjAddr: 0x30F4, symBinAddr: 0x10000632C, symSize: 0x264 }
  - { offsetInCU: 0xC59A, offset: 0xC59A, size: 0x8, addend: 0x0, symName: __ZNSt3__125__independent_bits_engineINS_26linear_congruential_engineIjLj48271ELj0ELj2147483647EEEmE6__evalENS_17integral_constantIbLb1EEE, symObjAddr: 0x3358, symBinAddr: 0x100006590, symSize: 0x1F0 }
  - { offsetInCU: 0xC656, offset: 0xC656, size: 0x8, addend: 0x0, symName: __ZNSt3__126linear_congruential_engineIjLj48271ELj0ELj2147483647EEclB8ue170006Ev, symObjAddr: 0x3548, symBinAddr: 0x100006780, symSize: 0x34 }
  - { offsetInCU: 0xC67B, offset: 0xC67B, size: 0x8, addend: 0x0, symName: __ZNSt3__126linear_congruential_engineIjLj48271ELj0ELj2147483647EE3minB8ue170006Ev, symObjAddr: 0x357C, symBinAddr: 0x1000067B4, symSize: 0x8 }
  - { offsetInCU: 0xC69A, offset: 0xC69A, size: 0x8, addend: 0x0, symName: __ZNSt3__18__lce_taILy48271ELy0ELy2147483647ELy4294967295ELb1EE4nextB8ue170006Ej, symObjAddr: 0x3584, symBinAddr: 0x1000067BC, symSize: 0x88 }
  - { offsetInCU: 0xC711, offset: 0xC711, size: 0x8, addend: 0x0, symName: __ZNSt3__123__libcpp_numeric_limitsImLb1EE3maxB8ue170006Ev, symObjAddr: 0x3628, symBinAddr: 0x100006860, symSize: 0x8 }
  - { offsetInCU: 0xC725, offset: 0xC725, size: 0x8, addend: 0x0, symName: __ZNSt3__124uniform_int_distributionIlE10param_typeC2B8ue170006Ell, symObjAddr: 0x3630, symBinAddr: 0x100006868, symSize: 0x2C }
  - { offsetInCU: 0xC76A, offset: 0xC76A, size: 0x8, addend: 0x0, symName: __ZNSt3__111__wrap_iterIPiEpLB8ue170006El, symObjAddr: 0x36E8, symBinAddr: 0x100006920, symSize: 0x28 }
  - { offsetInCU: 0xC79C, offset: 0xC79C, size: 0x8, addend: 0x0, symName: __ZNSt3__16vectorIiNS_9allocatorIiEEE18__insert_with_sizeB8ue170006INS_11__wrap_iterIPiEES7_EES7_NS5_IPKiEET_T0_l, symObjAddr: 0x3710, symBinAddr: 0x100006948, symSize: 0x310 }
  - { offsetInCU: 0xC8C2, offset: 0xC8C2, size: 0x8, addend: 0x0, symName: __ZNSt3__16vectorIiNS_9allocatorIiEEE18__construct_at_endINS_11__wrap_iterIPiEES7_EEvT_T0_m, symObjAddr: 0x3B18, symBinAddr: 0x100006D50, symSize: 0x9C }
  - { offsetInCU: 0xC936, offset: 0xC936, size: 0x8, addend: 0x0, symName: __ZNSt3__16vectorIiNS_9allocatorIiEEE12__move_rangeEPiS4_S4_, symObjAddr: 0x3BB4, symBinAddr: 0x100006DEC, symSize: 0x12C }
  - { offsetInCU: 0xC9F0, offset: 0xC9F0, size: 0x8, addend: 0x0, symName: __ZNSt3__114__split_bufferIiRNS_9allocatorIiEEE28__construct_at_end_with_sizeINS_11__wrap_iterIPiEEEEvT_m, symObjAddr: 0x3D30, symBinAddr: 0x100006F68, symSize: 0xD0 }
  - { offsetInCU: 0xCA4B, offset: 0xCA4B, size: 0x8, addend: 0x0, symName: __ZNKSt3__111__wrap_iterIPKiE4baseB8ue170006Ev, symObjAddr: 0x3F4C, symBinAddr: 0x100007184, symSize: 0x18 }
  - { offsetInCU: 0xCA8E, offset: 0xCA8E, size: 0x8, addend: 0x0, symName: __ZNSt3__14pairIPiS1_EC1B8ue170006IS1_S1_LPv0EEEOT_OT0_, symObjAddr: 0x41A0, symBinAddr: 0x1000073D8, symSize: 0x3C }
  - { offsetInCU: 0xCAEB, offset: 0xCAEB, size: 0x8, addend: 0x0, symName: __ZNSt3__14pairIPiS1_EC2B8ue170006IS1_S1_LPv0EEEOT_OT0_, symObjAddr: 0x41DC, symBinAddr: 0x100007414, symSize: 0x34 }
  - { offsetInCU: 0xCB48, offset: 0xCB48, size: 0x8, addend: 0x0, symName: __ZNSt3__118__unwrap_iter_implINS_11__wrap_iterIPiEELb1EE8__unwrapB8ue170006ES3_, symObjAddr: 0x4210, symBinAddr: 0x100007448, symSize: 0x28 }
  - { offsetInCU: 0xCB70, offset: 0xCB70, size: 0x8, addend: 0x0, symName: __ZNSt3__119__to_address_helperINS_11__wrap_iterIPiEEvE6__callB8ue170006ERKS3_, symObjAddr: 0x425C, symBinAddr: 0x100007494, symSize: 0x30 }
  - { offsetInCU: 0xCB93, offset: 0xCB93, size: 0x8, addend: 0x0, symName: __ZNSt3__114pointer_traitsINS_11__wrap_iterIPiEEE10to_addressB8ue170006ES3_, symObjAddr: 0x428C, symBinAddr: 0x1000074C4, symSize: 0x2C }
  - { offsetInCU: 0xCBC0, offset: 0xCBC0, size: 0x8, addend: 0x0, symName: __ZNKSt3__114__copy_trivialclB8ue170006IiiLi0EEENS_4pairIPT_PT0_EES4_S4_S6_, symObjAddr: 0x4494, symBinAddr: 0x1000076CC, symSize: 0x48 }
  - { offsetInCU: 0xCC27, offset: 0xCC27, size: 0x8, addend: 0x0, symName: __ZNSt3__14pairIPiS1_EC1B8ue170006IRS1_S1_LPv0EEEOT_OT0_, symObjAddr: 0x4624, symBinAddr: 0x10000785C, symSize: 0x3C }
  - { offsetInCU: 0xCC84, offset: 0xCC84, size: 0x8, addend: 0x0, symName: __ZNSt3__14pairIPiS1_EC2B8ue170006IRS1_S1_LPv0EEEOT_OT0_, symObjAddr: 0x4660, symBinAddr: 0x100007898, symSize: 0x34 }
  - { offsetInCU: 0xCCE1, offset: 0xCCE1, size: 0x8, addend: 0x0, symName: __ZNSt3__118__unwrap_iter_implIPiLb1EE8__unwrapB8ue170006ES1_, symObjAddr: 0x4694, symBinAddr: 0x1000078CC, symSize: 0x24 }
  - { offsetInCU: 0xCD04, offset: 0xCD04, size: 0x8, addend: 0x0, symName: __ZNSt3__118__unwrap_iter_implIPiLb1EE8__rewrapB8ue170006ES1_S1_, symObjAddr: 0x46B8, symBinAddr: 0x1000078F0, symSize: 0x50 }
  - { offsetInCU: 0xCD35, offset: 0xCD35, size: 0x8, addend: 0x0, symName: __ZNSt3__116allocator_traitsINS_9allocatorIiEEE9constructB8ue170006IiJiEvEEvRS2_PT_DpOT0_, symObjAddr: 0x4708, symBinAddr: 0x100007940, symSize: 0x34 }
  - { offsetInCU: 0xCD8C, offset: 0xCD8C, size: 0x8, addend: 0x0, symName: __ZNSt3__19allocatorIiE9constructB8ue170006IiJiEEEvPT_DpOT0_, symObjAddr: 0x477C, symBinAddr: 0x1000079B4, symSize: 0x28 }
  - { offsetInCU: 0xCDEB, offset: 0xCDEB, size: 0x8, addend: 0x0, symName: __ZNKSt3__123__move_backward_trivialclB8ue170006IiiLi0EEENS_4pairIPT_PT0_EES4_S4_S6_, symObjAddr: 0x48E0, symBinAddr: 0x100007B18, symSize: 0x48 }
  - { offsetInCU: 0xCE52, offset: 0xCE52, size: 0x8, addend: 0x0, symName: __ZNSt3__14pairIPiS1_EC1B8ue170006IRS1_S4_LPv0EEEOT_OT0_, symObjAddr: 0x49F0, symBinAddr: 0x100007C28, symSize: 0x3C }
  - { offsetInCU: 0xCEAF, offset: 0xCEAF, size: 0x8, addend: 0x0, symName: __ZNSt3__14pairIPiS1_EC2B8ue170006IRS1_S4_LPv0EEEOT_OT0_, symObjAddr: 0x4A2C, symBinAddr: 0x100007C64, symSize: 0x34 }
  - { offsetInCU: 0xCF25, offset: 0xCF25, size: 0x8, addend: 0x0, symName: __ZNSt3__14pairINS_11__wrap_iterIPiEES2_EC1B8ue170006IS3_S2_LPv0EEEOT_OT0_, symObjAddr: 0x4C48, symBinAddr: 0x100007E80, symSize: 0x3C }
  - { offsetInCU: 0xCF82, offset: 0xCF82, size: 0x8, addend: 0x0, symName: __ZNSt3__14pairINS_11__wrap_iterIPiEES2_EC2B8ue170006IS3_S2_LPv0EEEOT_OT0_, symObjAddr: 0x4C84, symBinAddr: 0x100007EBC, symSize: 0x34 }
  - { offsetInCU: 0xCFDF, offset: 0xCFDF, size: 0x8, addend: 0x0, symName: __ZNSt3__118__unwrap_iter_implINS_11__wrap_iterIPiEELb1EE8__rewrapB8ue170006ES3_S2_, symObjAddr: 0x4D04, symBinAddr: 0x100007F3C, symSize: 0x5C }
  - { offsetInCU: 0xD010, offset: 0xD010, size: 0x8, addend: 0x0, symName: __ZNSt3__116allocator_traitsINS_9allocatorIiEEE9constructB8ue170006IiJRiEvEEvRS2_PT_DpOT0_, symObjAddr: 0x4D60, symBinAddr: 0x100007F98, symSize: 0x34 }
  - { offsetInCU: 0xD067, offset: 0xD067, size: 0x8, addend: 0x0, symName: __ZNSt3__19allocatorIiE9constructB8ue170006IiJRiEEEvPT_DpOT0_, symObjAddr: 0x4D94, symBinAddr: 0x100007FCC, symSize: 0x28 }
  - { offsetInCU: 0xD0C6, offset: 0xD0C6, size: 0x8, addend: 0x0, symName: __ZNKSt3__114__move_trivialclB8ue170006IiiLi0EEENS_4pairIPT_PT0_EES4_S4_S6_, symObjAddr: 0x4F70, symBinAddr: 0x1000081A8, symSize: 0x48 }
  - { offsetInCU: 0x46, offset: 0xD24F, size: 0x8, addend: 0x0, symName: __ZN4CGAL12_GLOBAL__N_135check_fpu_rounding_mode_is_restoredE, symObjAddr: 0x2E2438, symBinAddr: 0x1000680C8, symSize: 0x0 }
  - { offsetInCU: 0x60, offset: 0xD269, size: 0x8, addend: 0x0, symName: __ZN4CGAL12_GLOBAL__N_114default_randomE, symObjAddr: 0x2E2448, symBinAddr: 0x1000680D8, symSize: 0x0 }
  - { offsetInCU: 0x6E, offset: 0xD277, size: 0x8, addend: 0x0, symName: __ZN4CGAL12_GLOBAL__N_123_standard_error_handlerEPKcS2_S2_iS2_, symObjAddr: 0x30F0, symBinAddr: 0x10000B304, symSize: 0xE8 }
  - { offsetInCU: 0x33D, offset: 0xD546, size: 0x8, addend: 0x0, symName: __ZN4CGAL8internal6resizeINSt3__16vectorImNS2_9allocatorImEEEEEEvRT_mPNS2_9enable_ifIXsr10has_resizeIS7_EE5valueEvE4typeE, symObjAddr: 0x10478, symBinAddr: 0x100017DB8, symSize: 0x30 }
  - { offsetInCU: 0x38E, offset: 0xD597, size: 0x8, addend: 0x0, symName: __ZN4CGAL8internal11is_isolatedINS_12Surface_meshINS_7Point_3INS_16Simple_cartesianIdEEEEEEEEbN5boost12graph_traitsIT_E17vertex_descriptorERKSA_, symObjAddr: 0x18D18, symBinAddr: 0x1000205D8, symSize: 0x64 }
  - { offsetInCU: 0x3D7, offset: 0xD5E0, size: 0x8, addend: 0x0, symName: __ZN4CGAL8internal24adjust_incoming_halfedgeINS_12Surface_meshINS_7Point_3INS_16Simple_cartesianIdEEEEEEEEvN5boost12graph_traitsIT_E17vertex_descriptorERSA_, symObjAddr: 0x19758, symBinAddr: 0x100021018, symSize: 0x1C4 }
  - { offsetInCU: 0xE5B2, offset: 0x1B7BB, size: 0x8, addend: 0x0, symName: __ZN4CGAL11Interval_ntILb1EE6testerE, symObjAddr: 0x57458, symBinAddr: 0x100068000, symSize: 0x0 }
  - { offsetInCU: 0xE841, offset: 0x1BA4A, size: 0x8, addend: 0x0, symName: __ZN4CGAL46get_static_check_fpu_rounding_mode_is_restoredEv, symObjAddr: 0x0, symBinAddr: 0x100008220, symSize: 0xB8 }
  - { offsetInCU: 0xE86A, offset: 0x1BA73, size: 0x8, addend: 0x0, symName: __ZZN4CGAL46get_static_check_fpu_rounding_mode_is_restoredEvE35check_fpu_rounding_mode_is_restored, symObjAddr: 0x57478, symBinAddr: 0x100068020, symSize: 0x0 }
  - { offsetInCU: 0xE875, offset: 0x1BA7E, size: 0x8, addend: 0x0, symName: __ZN4CGAL24get_static_error_handlerEv, symObjAddr: 0x3058, symBinAddr: 0x10000B26C, symSize: 0xC }
  - { offsetInCU: 0xE89E, offset: 0x1BAA7, size: 0x8, addend: 0x0, symName: __ZZN4CGAL24get_static_error_handlerEvE14_error_handler, symObjAddr: 0x57488, symBinAddr: 0x100068030, symSize: 0x0 }
  - { offsetInCU: 0xE8B4, offset: 0x1BABD, size: 0x8, addend: 0x0, symName: __ZN4CGAL26get_static_error_behaviourEv, symObjAddr: 0x3064, symBinAddr: 0x10000B278, symSize: 0xC }
  - { offsetInCU: 0xE8DD, offset: 0x1BAE6, size: 0x8, addend: 0x0, symName: __ZZN4CGAL26get_static_error_behaviourEvE16_error_behaviour, symObjAddr: 0x57490, symBinAddr: 0x100068038, symSize: 0x0 }
  - { offsetInCU: 0xE918, offset: 0x1BB21, size: 0x8, addend: 0x0, symName: __ZN4CGAL18get_default_randomEv, symObjAddr: 0x110, symBinAddr: 0x100008330, symSize: 0x6C }
  - { offsetInCU: 0xE959, offset: 0x1BB62, size: 0x8, addend: 0x0, symName: __ZN4CGALL8IDENTITYE, symObjAddr: 0x56D8B, symBinAddr: 0x100060E98, symSize: 0x0 }
  - { offsetInCU: 0xE973, offset: 0x1BB7C, size: 0x8, addend: 0x0, symName: __ZN4CGALL11TRANSLATIONE, symObjAddr: 0x56D8C, symBinAddr: 0x100060E99, symSize: 0x0 }
  - { offsetInCU: 0xEB18, offset: 0x1BD21, size: 0x8, addend: 0x0, symName: __ZN4CGAL2IO8internal8read_OBJINSt3__16vectorINS_7Point_3INS_16Simple_cartesianIdEEEENS3_9allocatorIS8_EEEENS4_INS4_ImNS9_ImEEEENS9_ISD_EEEENS_17Emptyset_iteratorESG_EEbRNS3_13basic_istreamIcNS3_11char_traitsIcEEEERT_RT0_T1_T2_b, symObjAddr: 0xEA88, symBinAddr: 0x1000163C8, symSize: 0xF04 }
  - { offsetInCU: 0xF100, offset: 0x1C309, size: 0x8, addend: 0x0, symName: __ZN4CGAL2IO8get_modeERNSt3__19basic_iosIcNS1_11char_traitsIcEEEE, symObjAddr: 0x105A8, symBinAddr: 0x100017EE8, symSize: 0x3C }
  - { offsetInCU: 0xF12E, offset: 0x1C337, size: 0x8, addend: 0x0, symName: __ZN4CGAL2IO14set_ascii_modeERNSt3__19basic_iosIcNS1_11char_traitsIcEEEE, symObjAddr: 0xFA04, symBinAddr: 0x100017344, symSize: 0x48 }
  - { offsetInCU: 0xF20A, offset: 0x1C413, size: 0x8, addend: 0x0, symName: __ZN4CGAL2IO8read_OBJINS_12Surface_meshINS_7Point_3INS_16Simple_cartesianIdEEEEEEbNS_11internal_np13all_default_tENS8_11No_propertyEEEbRNSt3__113basic_istreamIcNSB_11char_traitsIcEEEERT_RKNS_25Named_function_parametersIT0_T1_T2_EEPNSB_9enable_ifIXntsr8internal33is_Point_set_or_Range_or_IteratorISH_EE5valueEvE4typeE, symObjAddr: 0x6E8, symBinAddr: 0x100008908, symSize: 0x80 }
  - { offsetInCU: 0xF28E, offset: 0x1C497, size: 0x8, addend: 0x0, symName: __ZN4CGAL2IO9write_OBJINS_12Surface_meshINS_7Point_3INS_16Simple_cartesianIdEEEEEEbNS_11internal_np13all_default_tENS8_11No_propertyEEEbRNSt3__113basic_ostreamIcNSB_11char_traitsIcEEEERKT_RKNS_25Named_function_parametersIT0_T1_T2_EEPNSB_9enable_ifIXntsr8internal33is_Point_set_or_Range_or_IteratorISH_EE5valueEvE4typeE, symObjAddr: 0xBF8, symBinAddr: 0x100008E18, symSize: 0x4C }
  - { offsetInCU: 0xF312, offset: 0x1C51B, size: 0x8, addend: 0x0, symName: __ZN4CGAL2IO8read_OBJINSt3__16vectorINS_7Point_3INS_16Simple_cartesianIdEEEENS2_9allocatorIS7_EEEENS3_INS3_ImNS8_ImEEEENS8_ISC_EEEEbNS_11internal_np17use_binary_mode_tENS_25Named_function_parametersIbNSF_9verbose_tENSH_INS2_20back_insert_iteratorINS3_INS0_5ColorENS8_ISK_EEEEEENSF_28face_color_output_iterator_tENSH_INSJ_INS3_INS_7Point_2IS6_EENS8_ISQ_EEEEEENSF_32vertex_texture_output_iterator_tENSH_ISN_NSF_30vertex_color_output_iterator_tENSH_INSJ_INS3_INS_8Vector_3IS6_EENS8_ISX_EEEEEENSF_31vertex_normal_output_iterator_tENSF_11No_propertyEEEEEEEEEEEEEbRNS2_13basic_istreamIcNS2_11char_traitsIcEEEERT_RT0_RKNSH_IT1_T2_T3_EEPNS2_9enable_ifIXsr8internal8is_RangeIS1F_EE5valueEvE4typeE, symObjAddr: 0xE9BC, symBinAddr: 0x1000162FC, symSize: 0x84 }
  - { offsetInCU: 0xF3AD, offset: 0x1C5B6, size: 0x8, addend: 0x0, symName: __ZN4CGAL2IO7iformatIdEENS_9Input_repIT_EERS3_, symObjAddr: 0x11924, symBinAddr: 0x100019264, symSize: 0x2C }
  - { offsetInCU: 0xF3E4, offset: 0x1C5ED, size: 0x8, addend: 0x0, symName: __ZN4CGAL2IO7oformatIdEENS_10Output_repIT_NS_8Null_tagEEERKS3_, symObjAddr: 0x26DD4, symBinAddr: 0x10002E678, symSize: 0x2C }
  - { offsetInCU: 0xF724, offset: 0x1C92D, size: 0x8, addend: 0x0, symName: __ZN4CGAL11internal_np18get_parameter_implIbNS0_13all_default_tENS0_9verbose_tEEENS0_15Param_not_foundERKNS0_17Named_params_implIT_T0_NS0_11No_propertyEEET1_, symObjAddr: 0xE994, symBinAddr: 0x1000162D4, symSize: 0x14 }
  - { offsetInCU: 0xF771, offset: 0x1C97A, size: 0x8, addend: 0x0, symName: __ZN4CGAL11internal_np18get_parameter_implIbNS0_13all_default_tENS0_17use_binary_mode_tEEENS0_15Param_not_foundERKNS0_17Named_params_implIT_T0_NS0_11No_propertyEEET1_, symObjAddr: 0xE9A8, symBinAddr: 0x1000162E8, symSize: 0x14 }
  - { offsetInCU: 0xF7BE, offset: 0x1C9C7, size: 0x8, addend: 0x0, symName: __ZN4CGAL11internal_np18get_parameter_implIbNS0_17use_binary_mode_tENS_25Named_function_parametersIbNS0_9verbose_tENS3_INSt3__120back_insert_iteratorINS5_6vectorINS_2IO5ColorENS5_9allocatorIS9_EEEEEENS0_28face_color_output_iterator_tENS3_INS6_INS7_INS_7Point_2INS_16Simple_cartesianIdEEEENSA_ISI_EEEEEENS0_32vertex_texture_output_iterator_tENS3_ISD_NS0_30vertex_color_output_iterator_tENS3_INS6_INS7_INS_8Vector_3ISH_EENSA_ISP_EEEEEENS0_31vertex_normal_output_iterator_tENS0_11No_propertyEEEEEEEEEEES4_EENS0_9Get_paramINS0_17Named_params_implIT_T0_T1_EET2_E4typeERKS15_S16_, symObjAddr: 0xF98C, symBinAddr: 0x1000172CC, symSize: 0x30 }
  - { offsetInCU: 0xF81C, offset: 0x1CA25, size: 0x8, addend: 0x0, symName: __ZN4CGAL11internal_np18get_parameter_implIbNS0_9verbose_tENS_25Named_function_parametersINSt3__120back_insert_iteratorINS4_6vectorINS_2IO5ColorENS4_9allocatorIS8_EEEEEENS0_28face_color_output_iterator_tENS3_INS5_INS6_INS_7Point_2INS_16Simple_cartesianIdEEEENS9_ISH_EEEEEENS0_32vertex_texture_output_iterator_tENS3_ISC_NS0_30vertex_color_output_iterator_tENS3_INS5_INS6_INS_8Vector_3ISG_EENS9_ISO_EEEEEENS0_31vertex_normal_output_iterator_tENS0_11No_propertyEEEEEEEEEEENS4_11conditionalIXsr3std21is_copy_constructibleIT_EE5valueESZ_NS4_17reference_wrapperIKSZ_EEE4typeERKNS0_17Named_params_implISZ_T0_T1_EES16_, symObjAddr: 0xF9BC, symBinAddr: 0x1000172FC, symSize: 0x20 }
  - { offsetInCU: 0xF86D, offset: 0x1CA76, size: 0x8, addend: 0x0, symName: __ZN4CGAL11internal_np18get_parameter_implIbNS0_13all_default_tENS0_14vertex_point_tEEENS0_15Param_not_foundERKNS0_17Named_params_implIT_T0_NS0_11No_propertyEEET1_, symObjAddr: 0x16D38, symBinAddr: 0x10001E5F8, symSize: 0x14 }
  - { offsetInCU: 0xF8BA, offset: 0x1CAC3, size: 0x8, addend: 0x0, symName: __ZN4CGAL11internal_np18get_parameter_implIbNS0_13all_default_tENS0_19vertex_normal_map_tEEENS0_15Param_not_foundERKNS0_17Named_params_implIT_T0_NS0_11No_propertyEEET1_, symObjAddr: 0x16EBC, symBinAddr: 0x10001E77C, symSize: 0x14 }
  - { offsetInCU: 0xF907, offset: 0x1CB10, size: 0x8, addend: 0x0, symName: __ZN4CGAL11internal_np18get_parameter_implIbNS0_13all_default_tENS0_18vertex_color_map_tEEENS0_15Param_not_foundERKNS0_17Named_params_implIT_T0_NS0_11No_propertyEEET1_, symObjAddr: 0x16F3C, symBinAddr: 0x10001E7FC, symSize: 0x14 }
  - { offsetInCU: 0xF954, offset: 0x1CB5D, size: 0x8, addend: 0x0, symName: __ZN4CGAL11internal_np18get_parameter_implIbNS0_13all_default_tENS0_20vertex_texture_map_tEEENS0_15Param_not_foundERKNS0_17Named_params_implIT_T0_NS0_11No_propertyEEET1_, symObjAddr: 0x17084, symBinAddr: 0x10001E944, symSize: 0x14 }
  - { offsetInCU: 0xF9A1, offset: 0x1CBAA, size: 0x8, addend: 0x0, symName: __ZN4CGAL11internal_np18get_parameter_implIbNS0_13all_default_tENS0_16face_color_map_tEEENS0_15Param_not_foundERKNS0_17Named_params_implIT_T0_NS0_11No_propertyEEET1_, symObjAddr: 0x17180, symBinAddr: 0x10001EA40, symSize: 0x14 }
  - { offsetInCU: 0xFC97, offset: 0x1CEA0, size: 0x8, addend: 0x0, symName: __ZN4CGAL10parameters29vertex_normal_output_iteratorINSt3__120back_insert_iteratorINS2_6vectorINS_8Vector_3INS_16Simple_cartesianIdEEEENS2_9allocatorIS8_EEEEEEEENS_25Named_function_parametersIT_NS_11internal_np31vertex_normal_output_iterator_tENSF_11No_propertyEEERKSE_, symObjAddr: 0xB11C, symBinAddr: 0x100012A5C, symSize: 0x2C }
  - { offsetInCU: 0xFCD7, offset: 0x1CEE0, size: 0x8, addend: 0x0, symName: __ZN4CGAL10parameters14default_valuesEv, symObjAddr: 0x768, symBinAddr: 0x100008988, symSize: 0x24 }
  - { offsetInCU: 0xFCF6, offset: 0x1CEFF, size: 0x8, addend: 0x0, symName: __ZN4CGAL10parameters16choose_parameterIbEET_RKNS_11internal_np15Param_not_foundEOS2_, symObjAddr: 0xB05C, symBinAddr: 0x10001299C, symSize: 0x20 }
  - { offsetInCU: 0xFD38, offset: 0x1CF41, size: 0x8, addend: 0x0, symName: __ZN4CGAL10parameters13get_parameterIbNS_11internal_np13all_default_tENS2_11No_propertyENS2_9verbose_tEEENS2_9Get_paramINS2_17Named_params_implIT_T0_T1_EET2_E4typeERKNS_25Named_function_parametersIS8_S9_SA_EESC_, symObjAddr: 0xB07C, symBinAddr: 0x1000129BC, symSize: 0x2C }
  - { offsetInCU: 0xFD99, offset: 0x1CFA2, size: 0x8, addend: 0x0, symName: __ZN4CGAL10parameters13get_parameterIbNS_11internal_np13all_default_tENS2_11No_propertyENS2_17use_binary_mode_tEEENS2_9Get_paramINS2_17Named_params_implIT_T0_T1_EET2_E4typeERKNS_25Named_function_parametersIS8_S9_SA_EESC_, symObjAddr: 0xB0A8, symBinAddr: 0x1000129E8, symSize: 0x2C }
  - { offsetInCU: 0xFDFA, offset: 0x1D003, size: 0x8, addend: 0x0, symName: __ZN4CGAL10parameters16choose_parameterINS_12Surface_meshINS_7Point_3INS_16Simple_cartesianIdEEEEE12Property_mapINS_15SM_Vertex_indexES6_EEEET_RKNS_11internal_np15Param_not_foundEOSB_, symObjAddr: 0xB2E4, symBinAddr: 0x100012C24, symSize: 0x3C }
  - { offsetInCU: 0xFE3C, offset: 0x1D045, size: 0x8, addend: 0x0, symName: __ZN4CGAL10parameters13get_parameterIbNS_11internal_np13all_default_tENS2_11No_propertyENS2_14vertex_point_tEEENS2_9Get_paramINS2_17Named_params_implIT_T0_T1_EET2_E4typeERKNS_25Named_function_parametersIS8_S9_SA_EESC_, symObjAddr: 0xB320, symBinAddr: 0x100012C60, symSize: 0x2C }
  - { offsetInCU: 0xFE9D, offset: 0x1D0A6, size: 0x8, addend: 0x0, symName: __ZN4CGAL10parameters16choose_parameterINS_21Constant_property_mapINS_15SM_Vertex_indexENS_8Vector_3INS_16Simple_cartesianIdEEEEEEEET_RKNS_11internal_np15Param_not_foundEOS9_, symObjAddr: 0xB384, symBinAddr: 0x100012CC4, symSize: 0x34 }
  - { offsetInCU: 0xFEDF, offset: 0x1D0E8, size: 0x8, addend: 0x0, symName: __ZN4CGAL10parameters13get_parameterIbNS_11internal_np13all_default_tENS2_11No_propertyENS2_19vertex_normal_map_tEEENS2_9Get_paramINS2_17Named_params_implIT_T0_T1_EET2_E4typeERKNS_25Named_function_parametersIS8_S9_SA_EESC_, symObjAddr: 0xB3B8, symBinAddr: 0x100012CF8, symSize: 0x2C }
  - { offsetInCU: 0xFF40, offset: 0x1D149, size: 0x8, addend: 0x0, symName: __ZN4CGAL10parameters16choose_parameterINS_21Constant_property_mapINS_15SM_Vertex_indexENS_2IO5ColorEEEEET_RKNS_11internal_np15Param_not_foundEOS7_, symObjAddr: 0xB444, symBinAddr: 0x100012D84, symSize: 0x24 }
  - { offsetInCU: 0xFF82, offset: 0x1D18B, size: 0x8, addend: 0x0, symName: __ZN4CGAL10parameters13get_parameterIbNS_11internal_np13all_default_tENS2_11No_propertyENS2_18vertex_color_map_tEEENS2_9Get_paramINS2_17Named_params_implIT_T0_T1_EET2_E4typeERKNS_25Named_function_parametersIS8_S9_SA_EESC_, symObjAddr: 0xB468, symBinAddr: 0x100012DA8, symSize: 0x2C }
  - { offsetInCU: 0xFFE3, offset: 0x1D1EC, size: 0x8, addend: 0x0, symName: __ZN4CGAL10parameters16choose_parameterINS_21Constant_property_mapINS_15SM_Vertex_indexENS_7Point_2INS_16Simple_cartesianIdEEEEEEEET_RKNS_11internal_np15Param_not_foundEOS9_, symObjAddr: 0xB4F4, symBinAddr: 0x100012E34, symSize: 0x28 }
  - { offsetInCU: 0x10025, offset: 0x1D22E, size: 0x8, addend: 0x0, symName: __ZN4CGAL10parameters13get_parameterIbNS_11internal_np13all_default_tENS2_11No_propertyENS2_20vertex_texture_map_tEEENS2_9Get_paramINS2_17Named_params_implIT_T0_T1_EET2_E4typeERKNS_25Named_function_parametersIS8_S9_SA_EESC_, symObjAddr: 0xB51C, symBinAddr: 0x100012E5C, symSize: 0x2C }
  - { offsetInCU: 0x10086, offset: 0x1D28F, size: 0x8, addend: 0x0, symName: __ZN4CGAL10parameters16choose_parameterINS_21Constant_property_mapINS_13SM_Face_indexENS_2IO5ColorEEEEET_RKNS_11internal_np15Param_not_foundEOS7_, symObjAddr: 0xB5A8, symBinAddr: 0x100012EE8, symSize: 0x24 }
  - { offsetInCU: 0x100C8, offset: 0x1D2D1, size: 0x8, addend: 0x0, symName: __ZN4CGAL10parameters13get_parameterIbNS_11internal_np13all_default_tENS2_11No_propertyENS2_16face_color_map_tEEENS2_9Get_paramINS2_17Named_params_implIT_T0_T1_EET2_E4typeERKNS_25Named_function_parametersIS8_S9_SA_EESC_, symObjAddr: 0xB5CC, symBinAddr: 0x100012F0C, symSize: 0x2C }
  - { offsetInCU: 0x10129, offset: 0x1D332, size: 0x8, addend: 0x0, symName: __ZN4CGAL10parameters16choose_parameterIbbEERKT_S4_RKT0_, symObjAddr: 0xEA40, symBinAddr: 0x100016380, symSize: 0x18 }
  - { offsetInCU: 0x10174, offset: 0x1D37D, size: 0x8, addend: 0x0, symName: __ZN4CGAL10parameters13get_parameterIbNS_11internal_np17use_binary_mode_tENS_25Named_function_parametersIbNS2_9verbose_tENS4_INSt3__120back_insert_iteratorINS6_6vectorINS_2IO5ColorENS6_9allocatorISA_EEEEEENS2_28face_color_output_iterator_tENS4_INS7_INS8_INS_7Point_2INS_16Simple_cartesianIdEEEENSB_ISJ_EEEEEENS2_32vertex_texture_output_iterator_tENS4_ISE_NS2_30vertex_color_output_iterator_tENS4_INS7_INS8_INS_8Vector_3ISI_EENSB_ISQ_EEEEEENS2_31vertex_normal_output_iterator_tENS2_11No_propertyEEEEEEEEEEES5_EENS2_9Get_paramINS2_17Named_params_implIT_T0_T1_EET2_E4typeERKNS4_IS13_S14_S15_EES17_, symObjAddr: 0xEA58, symBinAddr: 0x100016398, symSize: 0x30 }
  - { offsetInCU: 0x101D5, offset: 0x1D3DE, size: 0x8, addend: 0x0, symName: __ZN4CGAL10parameters16choose_parameterINS_21Constant_property_mapINS_15SM_Vertex_indexENS_2IO5ColorEEEEET_RKNS_11internal_np15Param_not_foundE, symObjAddr: 0x251A0, symBinAddr: 0x10002CA44, symSize: 0x38 }
  - { offsetInCU: 0x10208, offset: 0x1D411, size: 0x8, addend: 0x0, symName: __ZN4CGAL10parameters16choose_parameterINS_21Constant_property_mapINS_13SM_Face_indexENS_2IO5ColorEEEEET_RKNS_11internal_np15Param_not_foundE, symObjAddr: 0x251D8, symBinAddr: 0x10002CA7C, symSize: 0x38 }
  - { offsetInCU: 0x106D4, offset: 0x1D8DD, size: 0x8, addend: 0x0, symName: __ZN4CGAL20vertices_around_faceINS_12Surface_meshINS_7Point_3INS_16Simple_cartesianIdEEEEEEEENS_14Iterator_rangeINS_27Vertex_around_face_iteratorIT_EEEEN5boost12graph_traitsIS9_E19halfedge_descriptorERKS9_, symObjAddr: 0x1B34, symBinAddr: 0x100009D54, symSize: 0x80 }
  - { offsetInCU: 0x1071A, offset: 0x1D923, size: 0x8, addend: 0x0, symName: __ZN4CGAL10FPU_get_cwEv, symObjAddr: 0x2D78, symBinAddr: 0x10000AF98, symSize: 0x18 }
  - { offsetInCU: 0x10748, offset: 0x1D951, size: 0x8, addend: 0x0, symName: __ZN4CGAL8possiblyEb, symObjAddr: 0x2E1C, symBinAddr: 0x10000B03C, symSize: 0x20 }
  - { offsetInCU: 0x10778, offset: 0x1D981, size: 0x8, addend: 0x0, symName: __ZN4CGAL14assertion_failEPKcS1_iS1_, symObjAddr: 0x2E48, symBinAddr: 0x10000B05C, symSize: 0x1FC }
  - { offsetInCU: 0x10B45, offset: 0x1DD4E, size: 0x8, addend: 0x0, symName: __ZN4CGAL23get_pointee_or_identityINSt3__15arrayIdLm3EEEEERKT_S6_, symObjAddr: 0x675C, symBinAddr: 0x10000E334, symSize: 0x14 }
  - { offsetInCU: 0x10C0D, offset: 0x1DE16, size: 0x8, addend: 0x0, symName: __ZN4CGAL5IA_upEd, symObjAddr: 0x84BC, symBinAddr: 0x100010094, symSize: 0x24 }
  - { offsetInCU: 0x10C3B, offset: 0x1DE44, size: 0x8, addend: 0x0, symName: __ZN4CGAL10IA_opacifyEd, symObjAddr: 0x84E0, symBinAddr: 0x1000100B8, symSize: 0x1C }
  - { offsetInCU: 0x10C67, offset: 0x1DE70, size: 0x8, addend: 0x0, symName: __ZN4CGAL18FPU_get_and_set_cwEm, symObjAddr: 0x8594, symBinAddr: 0x10001016C, symSize: 0x30 }
  - { offsetInCU: 0x10CA4, offset: 0x1DEAD, size: 0x8, addend: 0x0, symName: __ZN4CGAL10FPU_set_cwEm, symObjAddr: 0x85C4, symBinAddr: 0x10001019C, symSize: 0x18 }
  - { offsetInCU: 0x11828, offset: 0x1EA31, size: 0x8, addend: 0x0, symName: __ZN4CGAL16get_property_mapINS_12Surface_meshINS_7Point_3INS_16Simple_cartesianIdEEEEEEN5boost14vertex_point_tEEENS_21property_map_selectorIT_T0_E4typeERKSB_RSA_, symObjAddr: 0xB34C, symBinAddr: 0x100012C8C, symSize: 0x38 }
  - { offsetInCU: 0x119CE, offset: 0x1EBD7, size: 0x8, addend: 0x0, symName: __ZN4CGAL10add_vertexINS_7Point_3INS_16Simple_cartesianIdEEEEEEN5boost12graph_traitsINS_12Surface_meshIT_EEE17vertex_descriptorERS9_, symObjAddr: 0xB688, symBinAddr: 0x100012FC8, symSize: 0x2C }
  - { offsetInCU: 0x11A0A, offset: 0x1EC13, size: 0x8, addend: 0x0, symName: __ZN4CGAL5Euler8add_faceINS_12Surface_meshINS_7Point_3INS_16Simple_cartesianIdEEEEEENSt3__16vectorINS_15SM_Vertex_indexENS8_9allocatorISA_EEEEEEN5boost12graph_traitsIT_E15face_descriptorERKT0_RSG_, symObjAddr: 0xB7F8, symBinAddr: 0x100013138, symSize: 0x2CA8 }
  - { offsetInCU: 0x1402B, offset: 0x21234, size: 0x8, addend: 0x0, symName: __ZN4CGAL5Euler8add_edgeINS_12Surface_meshINS_7Point_3INS_16Simple_cartesianIdEEEEEEEEN5boost12graph_traitsIT_E15edge_descriptorENSB_17vertex_descriptorESD_RSA_, symObjAddr: 0x191BC, symBinAddr: 0x100020A7C, symSize: 0x158 }
  - { offsetInCU: 0x1408F, offset: 0x21298, size: 0x8, addend: 0x0, symName: __ZN4CGAL5Euler8add_faceINS_12Surface_meshINS_7Point_3INS_16Simple_cartesianIdEEEEEEN5boost5arrayINS_15SM_Vertex_indexELm3EEEEENS8_12graph_traitsIT_E15face_descriptorERKT0_RSD_, symObjAddr: 0x4F5A0, symBinAddr: 0x100056E30, symSize: 0x2C4C }
  - { offsetInCU: 0x166B1, offset: 0x238BA, size: 0x8, addend: 0x0, symName: __ZN4CGAL8is_validINS_12Surface_meshINS_7Point_3INS_16Simple_cartesianIdEEEEEEEEbRKT_, symObjAddr: 0xE4F4, symBinAddr: 0x100015E34, symSize: 0x2C }
  - { offsetInCU: 0x166EA, offset: 0x238F3, size: 0x8, addend: 0x0, symName: __ZN4CGALrsINS_16Simple_cartesianIdEEEERNSt3__113basic_istreamIcNS3_11char_traitsIcEEEES8_RNS_7Point_3IT_EE, symObjAddr: 0x10358, symBinAddr: 0x100017C98, symSize: 0x30 }
  - { offsetInCU: 0x16730, offset: 0x23939, size: 0x8, addend: 0x0, symName: __ZN4CGAL7extractINS_16Simple_cartesianIdEEEERNSt3__113basic_istreamIcNS3_11char_traitsIcEEEES8_RNS_7Point_3IT_EERKNS_13Cartesian_tagE, symObjAddr: 0x1174C, symBinAddr: 0x10001908C, symSize: 0x1A8 }
  - { offsetInCU: 0x167AE, offset: 0x239B7, size: 0x8, addend: 0x0, symName: __ZN4CGALrsIdEERNSt3__113basic_istreamIcNS1_11char_traitsIcEEEES6_NS_9Input_repIT_EE, symObjAddr: 0x118F4, symBinAddr: 0x100019234, symSize: 0x30 }
  - { offsetInCU: 0x167F4, offset: 0x239FD, size: 0x8, addend: 0x0, symName: __ZN4CGAL4readIdEEvRNSt3__113basic_istreamIcNS1_11char_traitsIcEEEERT_, symObjAddr: 0x11950, symBinAddr: 0x100019290, symSize: 0x30 }
  - { offsetInCU: 0x16836, offset: 0x23A3F, size: 0x8, addend: 0x0, symName: __ZN4CGAL4readIdEEvRNSt3__113basic_istreamIcNS1_11char_traitsIcEEEERT_RKNS_13io_Read_writeE, symObjAddr: 0x11A04, symBinAddr: 0x100019344, symSize: 0x34 }
  - { offsetInCU: 0x169E4, offset: 0x23BED, size: 0x8, addend: 0x0, symName: __ZN4CGAL3getINS_7Point_3INS_16Simple_cartesianIdEEEEEEN5boost15lazy_disable_ifINS5_8is_constIT_EENS_8internal49Get_vertex_point_map_for_Surface_mesh_return_typeIS8_EEE4typeENS5_14vertex_point_tERKNS_12Surface_meshIS8_EE, symObjAddr: 0x16DC4, symBinAddr: 0x10001E684, symSize: 0x30 }
  - { offsetInCU: 0x16A29, offset: 0x23C32, size: 0x8, addend: 0x0, symName: __ZN4CGAL26is_valid_vertex_descriptorINS_7Point_3INS_16Simple_cartesianIdEEEEEEbN5boost12graph_traitsINS_12Surface_meshIT_EEE17vertex_descriptorERKS9_b, symObjAddr: 0x1882C, symBinAddr: 0x1000200EC, symSize: 0xA4 }
  - { offsetInCU: 0x16A7E, offset: 0x23C87, size: 0x8, addend: 0x0, symName: __ZN4CGAL17precondition_failEPKcS1_iS1_, symObjAddr: 0x188D0, symBinAddr: 0x100020190, symSize: 0x1FC }
  - { offsetInCU: 0x16AD1, offset: 0x23CDA, size: 0x8, addend: 0x0, symName: __ZN4CGAL9is_borderINS_12Surface_meshINS_7Point_3INS_16Simple_cartesianIdEEEEEEEEN5boost8optionalINS7_12graph_traitsIT_E19halfedge_descriptorEEENSB_17vertex_descriptorERKSA_, symObjAddr: 0x18D7C, symBinAddr: 0x10002063C, symSize: 0x118 }
  - { offsetInCU: 0x16B4D, offset: 0x23D56, size: 0x8, addend: 0x0, symName: __ZN4CGAL8halfedgeINS_7Point_3INS_16Simple_cartesianIdEEEEEENSt3__14pairIN5boost12graph_traitsINS_12Surface_meshIT_EEE19halfedge_descriptorEbEENSC_17vertex_descriptorESF_RKSB_, symObjAddr: 0x18EEC, symBinAddr: 0x1000207AC, symSize: 0x88 }
  - { offsetInCU: 0x16BB1, offset: 0x23DBA, size: 0x8, addend: 0x0, symName: __ZN4CGAL9is_borderINS_12Surface_meshINS_7Point_3INS_16Simple_cartesianIdEEEEEEEEbN5boost12graph_traitsIT_E19halfedge_descriptorERKS9_, symObjAddr: 0x18FC4, symBinAddr: 0x100020884, symSize: 0x64 }
  - { offsetInCU: 0x16BF4, offset: 0x23DFD, size: 0x8, addend: 0x0, symName: __ZN4CGAL4nextINS_7Point_3INS_16Simple_cartesianIdEEEEEEN5boost12graph_traitsINS_12Surface_meshIT_EEE19halfedge_descriptorESB_RKS9_, symObjAddr: 0x19054, symBinAddr: 0x100020914, symSize: 0x44 }
  - { offsetInCU: 0x16C37, offset: 0x23E40, size: 0x8, addend: 0x0, symName: __ZN4CGAL8oppositeINS_7Point_3INS_16Simple_cartesianIdEEEEEEN5boost12graph_traitsINS_12Surface_meshIT_EEE19halfedge_descriptorESB_RKS9_, symObjAddr: 0x190C8, symBinAddr: 0x100020988, symSize: 0x44 }
  - { offsetInCU: 0x16C7D, offset: 0x23E86, size: 0x8, addend: 0x0, symName: __ZN4CGAL4prevINS_7Point_3INS_16Simple_cartesianIdEEEEEEN5boost12graph_traitsINS_12Surface_meshIT_EEE19halfedge_descriptorESB_RKS9_, symObjAddr: 0x1913C, symBinAddr: 0x1000209FC, symSize: 0x44 }
  - { offsetInCU: 0x16CC3, offset: 0x23ECC, size: 0x8, addend: 0x0, symName: __ZN4CGAL8halfedgeINS_7Point_3INS_16Simple_cartesianIdEEEEEEN5boost12graph_traitsINS_12Surface_meshIT_EEE19halfedge_descriptorENSA_15edge_descriptorERKS9_, symObjAddr: 0x19314, symBinAddr: 0x100020BD4, symSize: 0x44 }
  - { offsetInCU: 0x16D09, offset: 0x23F12, size: 0x8, addend: 0x0, symName: __ZN4CGAL8set_faceINS_7Point_3INS_16Simple_cartesianIdEEEEEEvN5boost12graph_traitsINS_12Surface_meshIT_EEE19halfedge_descriptorENSA_15face_descriptorERS9_, symObjAddr: 0x1937C, symBinAddr: 0x100020C3C, symSize: 0x54 }
  - { offsetInCU: 0x16D5A, offset: 0x23F63, size: 0x8, addend: 0x0, symName: __ZN4CGAL6sourceINS_7Point_3INS_16Simple_cartesianIdEEEEEEN5boost12graph_traitsINS_12Surface_meshIT_EEE17vertex_descriptorENSA_19halfedge_descriptorERKS9_, symObjAddr: 0x193D0, symBinAddr: 0x100020C90, symSize: 0x44 }
  - { offsetInCU: 0x16D9D, offset: 0x23FA6, size: 0x8, addend: 0x0, symName: __ZN4CGAL8add_faceINS_7Point_3INS_16Simple_cartesianIdEEEEEEN5boost12graph_traitsINS_12Surface_meshIT_EEE15face_descriptorERS9_, symObjAddr: 0x19444, symBinAddr: 0x100020D04, symSize: 0x2C }
  - { offsetInCU: 0x16DD4, offset: 0x23FDD, size: 0x8, addend: 0x0, symName: __ZN4CGAL12set_halfedgeINS_7Point_3INS_16Simple_cartesianIdEEEEEEvN5boost12graph_traitsINS_12Surface_meshIT_EEE15face_descriptorENSA_19halfedge_descriptorERS9_, symObjAddr: 0x19470, symBinAddr: 0x100020D30, symSize: 0x54 }
  - { offsetInCU: 0x16E25, offset: 0x2402E, size: 0x8, addend: 0x0, symName: __ZN4CGAL12set_halfedgeINS_7Point_3INS_16Simple_cartesianIdEEEEEEvN5boost12graph_traitsINS_12Surface_meshIT_EEE17vertex_descriptorENSA_19halfedge_descriptorERS9_, symObjAddr: 0x194C4, symBinAddr: 0x100020D84, symSize: 0x54 }
  - { offsetInCU: 0x16E76, offset: 0x2407F, size: 0x8, addend: 0x0, symName: __ZN4CGAL8halfedgeINS_7Point_3INS_16Simple_cartesianIdEEEEEEN5boost12graph_traitsINS_12Surface_meshIT_EEE19halfedge_descriptorENSA_17vertex_descriptorERKS9_, symObjAddr: 0x19518, symBinAddr: 0x100020DD8, symSize: 0x44 }
  - { offsetInCU: 0x16EBC, offset: 0x240C5, size: 0x8, addend: 0x0, symName: __ZN4CGAL23halfedges_around_targetINS_12Surface_meshINS_7Point_3INS_16Simple_cartesianIdEEEEEEEENS_14Iterator_rangeINS_31Halfedge_around_target_iteratorIT_EEEEN5boost12graph_traitsIS9_E19halfedge_descriptorERKS9_, symObjAddr: 0x1955C, symBinAddr: 0x100020E1C, symSize: 0x80 }
  - { offsetInCU: 0x16F02, offset: 0x2410B, size: 0x8, addend: 0x0, symName: __ZN4CGAL8set_nextINS_7Point_3INS_16Simple_cartesianIdEEEEEEvN5boost12graph_traitsINS_12Surface_meshIT_EEE19halfedge_descriptorESB_RS9_, symObjAddr: 0x19704, symBinAddr: 0x100020FC4, symSize: 0x54 }
  - { offsetInCU: 0x16F58, offset: 0x24161, size: 0x8, addend: 0x0, symName: __ZN4CGAL3BGL26is_valid_vertex_descriptorINS_12Surface_meshINS_7Point_3INS_16Simple_cartesianIdEEEEEEEEbN5boost12graph_traitsIT_E17vertex_descriptorERKSA_b, symObjAddr: 0x19C84, symBinAddr: 0x100021544, symSize: 0x18C }
  - { offsetInCU: 0x171C6, offset: 0x243CF, size: 0x8, addend: 0x0, symName: __ZN4CGAL6targetINS_7Point_3INS_16Simple_cartesianIdEEEEEEN5boost12graph_traitsINS_12Surface_meshIT_EEE17vertex_descriptorENSA_19halfedge_descriptorERKS9_, symObjAddr: 0x1A4C4, symBinAddr: 0x100021D84, symSize: 0x44 }
  - { offsetInCU: 0x1725A, offset: 0x24463, size: 0x8, addend: 0x0, symName: __ZN4CGAL4faceINS_7Point_3INS_16Simple_cartesianIdEEEEEEN5boost12graph_traitsINS_12Surface_meshIT_EEE15face_descriptorENSA_19halfedge_descriptorERKS9_, symObjAddr: 0x2078C, symBinAddr: 0x100028030, symSize: 0x44 }
  - { offsetInCU: 0x172A0, offset: 0x244A9, size: 0x8, addend: 0x0, symName: __ZN4CGAL8add_edgeINS_7Point_3INS_16Simple_cartesianIdEEEEEEN5boost12graph_traitsINS_12Surface_meshIT_EEE15edge_descriptorERS9_, symObjAddr: 0x222A0, symBinAddr: 0x100029B44, symSize: 0x4C }
  - { offsetInCU: 0x172D7, offset: 0x244E0, size: 0x8, addend: 0x0, symName: __ZN4CGAL10set_targetINS_7Point_3INS_16Simple_cartesianIdEEEEEEvN5boost12graph_traitsINS_12Surface_meshIT_EEE19halfedge_descriptorENSA_17vertex_descriptorERS9_, symObjAddr: 0x222EC, symBinAddr: 0x100029B90, symSize: 0x54 }
  - { offsetInCU: 0x17328, offset: 0x24531, size: 0x8, addend: 0x0, symName: __ZN4CGAL10make_rangeINS_31Halfedge_around_target_iteratorINS_12Surface_meshINS_7Point_3INS_16Simple_cartesianIdEEEEEEEEEENS_14Iterator_rangeIT_EERKSA_SD_, symObjAddr: 0x22FEC, symBinAddr: 0x10002A890, symSize: 0x60 }
  - { offsetInCU: 0x175BE, offset: 0x247C7, size: 0x8, addend: 0x0, symName: __ZN4CGAL28set_stream_precision_from_NPINS_25Named_function_parametersIbNS_11internal_np13all_default_tENS2_11No_propertyEEEEEvRNSt3__113basic_ostreamIcNS6_11char_traitsIcEEEERKT_, symObjAddr: 0x25154, symBinAddr: 0x10002C9F8, symSize: 0x14 }
  - { offsetInCU: 0x17606, offset: 0x2480F, size: 0x8, addend: 0x0, symName: __ZN4CGAL22get_const_property_mapINS_12Surface_meshINS_7Point_3INS_16Simple_cartesianIdEEEEEEN5boost14vertex_point_tEEENS_21property_map_selectorIT_T0_E10const_typeERKSB_RKSA_, symObjAddr: 0x25168, symBinAddr: 0x10002CA0C, symSize: 0x38 }
  - { offsetInCU: 0x17668, offset: 0x24871, size: 0x8, addend: 0x0, symName: __ZN4CGAL8verticesINS_7Point_3INS_16Simple_cartesianIdEEEEEENS_14Iterator_rangeIN5boost12graph_traitsINS_12Surface_meshIT_EEE15vertex_iteratorEEERKSA_, symObjAddr: 0x25398, symBinAddr: 0x10002CC3C, symSize: 0x24 }
  - { offsetInCU: 0x1769D, offset: 0x248A6, size: 0x8, addend: 0x0, symName: __ZN4CGAL9halfedgesINS_7Point_3INS_16Simple_cartesianIdEEEEEENS_14Iterator_rangeIN5boost12graph_traitsINS_12Surface_meshIT_EEE17halfedge_iteratorEEERKSA_, symObjAddr: 0x25414, symBinAddr: 0x10002CCB8, symSize: 0x24 }
  - { offsetInCU: 0x176D4, offset: 0x248DD, size: 0x8, addend: 0x0, symName: __ZN4CGAL5facesINS_7Point_3INS_16Simple_cartesianIdEEEEEENS_14Iterator_rangeIN5boost12graph_traitsINS_12Surface_meshIT_EEE13face_iteratorEEERKSA_, symObjAddr: 0x25490, symBinAddr: 0x10002CD34, symSize: 0x24 }
  - { offsetInCU: 0x1770B, offset: 0x24914, size: 0x8, addend: 0x0, symName: __ZN4CGAL9to_doubleIdEENS_22Real_embeddable_traitsIT_E9To_double11result_typeERKS2_, symObjAddr: 0x2561C, symBinAddr: 0x10002CEC0, symSize: 0x28 }
  - { offsetInCU: 0x17757, offset: 0x24960, size: 0x8, addend: 0x0, symName: __ZN4CGAL8halfedgeINS_7Point_3INS_16Simple_cartesianIdEEEEEEN5boost12graph_traitsINS_12Surface_meshIT_EEE19halfedge_descriptorENSA_15face_descriptorERKS9_, symObjAddr: 0x256A4, symBinAddr: 0x10002CF48, symSize: 0x44 }
  - { offsetInCU: 0x1798A, offset: 0x24B93, size: 0x8, addend: 0x0, symName: __ZN4CGAL15circulator_sizeINS_31Halfedge_around_face_circulatorINS_12Surface_meshINS_7Point_3INS_16Simple_cartesianIdEEEEEEEEEENT_9size_typeERKS9_, symObjAddr: 0x2572C, symBinAddr: 0x10002CFD0, symSize: 0x24 }
  - { offsetInCU: 0x179C5, offset: 0x24BCE, size: 0x8, addend: 0x0, symName: __ZN4CGAL10make_rangeINS_12Surface_meshINS_7Point_3INS_16Simple_cartesianIdEEEEE14Index_iteratorINS_17SM_Halfedge_indexEEEEENS_14Iterator_rangeIT_EERKSB_SE_, symObjAddr: 0x26034, symBinAddr: 0x10002D8D8, symSize: 0x58 }
  - { offsetInCU: 0x17A08, offset: 0x24C11, size: 0x8, addend: 0x0, symName: __ZN4CGALlsIdNS_8Null_tagEEERNSt3__113basic_ostreamIcNS2_11char_traitsIcEEEES7_NS_10Output_repIT_T0_EE, symObjAddr: 0x26DA4, symBinAddr: 0x10002E648, symSize: 0x30 }
  - { offsetInCU: 0x17A54, offset: 0x24C5D, size: 0x8, addend: 0x0, symName: __ZN4CGAL17I_circulator_sizeINS_31Halfedge_around_face_circulatorINS_12Surface_meshINS_7Point_3INS_16Simple_cartesianIdEEEEEEEEEENT_9size_typeERKS9_NS_28Bidirectional_circulator_tagE, symObjAddr: 0x29EE8, symBinAddr: 0x10003178C, symSize: 0x24 }
  - { offsetInCU: 0x17A9C, offset: 0x24CA5, size: 0x8, addend: 0x0, symName: __ZN4CGAL17I_circulator_sizeINS_31Halfedge_around_face_circulatorINS_12Surface_meshINS_7Point_3INS_16Simple_cartesianIdEEEEEEEEEENT_9size_typeERKS9_NS_22Forward_circulator_tagE, symObjAddr: 0x29F0C, symBinAddr: 0x1000317B0, symSize: 0x88 }
  - { offsetInCU: 0x17B14, offset: 0x24D1D, size: 0x8, addend: 0x0, symName: __ZN4CGAL10make_arrayIdJddEEENSt3__15arrayIT_XplLi1EsZT0_EEERKS3_DpRKT0_, symObjAddr: 0x45DA4, symBinAddr: 0x10004D634, symSize: 0x48 }
  - { offsetInCU: 0x17B8D, offset: 0x24D96, size: 0x8, addend: 0x0, symName: __ZN4CGAL14point_on_planeINS_16Simple_cartesianIdEEEENS_7PointC3IT_EERKNS_7PlaneC3IS4_EE, symObjAddr: 0x4606C, symBinAddr: 0x10004D8FC, symSize: 0x94 }
  - { offsetInCU: 0x17BF7, offset: 0x24E00, size: 0x8, addend: 0x0, symName: __ZN4CGAL16point_on_planeC3IdEEvRKT_S3_S3_S3_RS1_S4_S4_, symObjAddr: 0x46134, symBinAddr: 0x10004D9C4, symSize: 0x144 }
  - { offsetInCU: 0x17CC6, offset: 0x24ECF, size: 0x8, addend: 0x0, symName: __ZN4CGAL3absIdEENS_22Real_embeddable_traitsIT_E3Abs11result_typeERKS2_, symObjAddr: 0x4636C, symBinAddr: 0x10004DBFC, symSize: 0x28 }
  - { offsetInCU: 0x17D5C, offset: 0x24F65, size: 0x8, addend: 0x0, symName: __ZN4CGAL23get_pointee_or_identityINSt3__15arrayIdLm4EEEEERKT_S6_, symObjAddr: 0x463B4, symBinAddr: 0x10004DC44, symSize: 0x14 }
  - { offsetInCU: 0x17D97, offset: 0x24FA0, size: 0x8, addend: 0x0, symName: __ZN4CGAL26plane_from_point_directionINS_16Simple_cartesianIdEEEENS_7PlaneC3IT_EERKNS4_7Point_3ERKNS4_11Direction_3E, symObjAddr: 0x46708, symBinAddr: 0x10004DF98, symSize: 0xD4 }
  - { offsetInCU: 0x17E22, offset: 0x2502B, size: 0x8, addend: 0x0, symName: __ZN4CGAL28plane_from_point_directionC3IdEEvRKT_S3_S3_S3_S3_S3_RS1_S4_S4_S4_, symObjAddr: 0x467DC, symBinAddr: 0x10004E06C, symSize: 0xB0 }
  - { offsetInCU: 0x17EF4, offset: 0x250FD, size: 0x8, addend: 0x0, symName: __ZN4CGAL10make_arrayIdJdddEEENSt3__15arrayIT_XplLi1EsZT0_EEERKS3_DpRKT0_, symObjAddr: 0x46A90, symBinAddr: 0x10004E320, symSize: 0x5C }
  - { offsetInCU: 0x17F82, offset: 0x2518B, size: 0x8, addend: 0x0, symName: __ZN4CGAL11determinantIdEET_RKS1_S3_S3_S3_, symObjAddr: 0x472BC, symBinAddr: 0x10004EB4C, symSize: 0x4C }
  - { offsetInCU: 0x17FFB, offset: 0x25204, size: 0x8, addend: 0x0, symName: __ZN4CGAL11determinantIdEET_RKS1_S3_S3_S3_S3_S3_S3_S3_S3_, symObjAddr: 0x47308, symBinAddr: 0x10004EB98, symSize: 0xF0 }
  - { offsetInCU: 0x180FA, offset: 0x25303, size: 0x8, addend: 0x0, symName: __ZN4CGAL19sign_of_determinantIdEENS_3SgnIT_E11result_typeERKS2_S6_S6_S6_S6_S6_S6_S6_S6_, symObjAddr: 0x473F8, symBinAddr: 0x10004EC88, symSize: 0x7C }
  - { offsetInCU: 0x181B3, offset: 0x253BC, size: 0x8, addend: 0x0, symName: __ZN4CGAL4signIdEENS_22Real_embeddable_traitsIT_E3Sgn11result_typeERKS2_, symObjAddr: 0x47474, symBinAddr: 0x10004ED04, symSize: 0x28 }
  - { offsetInCU: 0x181FC, offset: 0x25405, size: 0x8, addend: 0x0, symName: __ZN4CGALplINS_16Simple_cartesianIdEEEENT_7Point_3ERKNS_7Point_3IS3_EERKNS_8Vector_3IS3_EE, symObjAddr: 0x48540, symBinAddr: 0x10004FDD0, symSize: 0x50 }
  - { offsetInCU: 0x18248, offset: 0x25451, size: 0x8, addend: 0x0, symName: __ZN4CGAL10make_rangeINS_12Surface_meshINS_7Point_3INS_16Simple_cartesianIdEEEEE14Index_iteratorINS_15SM_Vertex_indexEEEEENS_14Iterator_rangeIT_EERKSB_SE_, symObjAddr: 0x48BD8, symBinAddr: 0x100050468, symSize: 0x58 }
  - { offsetInCU: 0x1828B, offset: 0x25494, size: 0x8, addend: 0x0, symName: __ZN4CGAL10make_rangeINS_12Surface_meshINS_7Point_3INS_16Simple_cartesianIdEEEEE14Index_iteratorINS_13SM_Face_indexEEEEENS_14Iterator_rangeIT_EERKSB_SE_, symObjAddr: 0x4ACAC, symBinAddr: 0x10005253C, symSize: 0x58 }
  - { offsetInCU: 0x182CE, offset: 0x254D7, size: 0x8, addend: 0x0, symName: __ZN4CGAL10make_rangeINS_27Vertex_around_face_iteratorINS_12Surface_meshINS_7Point_3INS_16Simple_cartesianIdEEEEEEEEEENS_14Iterator_rangeIT_EERKSA_SD_, symObjAddr: 0x4B268, symBinAddr: 0x100052AF8, symSize: 0x60 }
  - { offsetInCU: 0x18497, offset: 0x256A0, size: 0x8, addend: 0x0, symName: __ZN5boost11optional_nsL13in_place_initE, symObjAddr: 0x2E2440, symBinAddr: 0x1000680D0, symSize: 0x0 }
  - { offsetInCU: 0x184D6, offset: 0x256DF, size: 0x8, addend: 0x0, symName: __ZN5boost11optional_nsL16in_place_init_ifE, symObjAddr: 0x2E2441, symBinAddr: 0x1000680D1, symSize: 0x0 }
  - { offsetInCU: 0x1873E, offset: 0x25947, size: 0x8, addend: 0x0, symName: __ZN5boost6random6detail20generate_uniform_intINS0_6rand48EiEET0_RT_S4_S4_NS_17integral_constantIbLb1EEE, symObjAddr: 0x45F8, symBinAddr: 0x10000C80C, symSize: 0x3C4 }
  - { offsetInCU: 0x188D9, offset: 0x25AE2, size: 0x8, addend: 0x0, symName: __ZN5boost6random6detail9muldivmodEmmm, symObjAddr: 0x5480, symBinAddr: 0x10000D678, symSize: 0x43C }
  - { offsetInCU: 0x18AB5, offset: 0x25CBE, size: 0x8, addend: 0x0, symName: __ZN5boost6random6detail20generate_uniform_intINS0_6rand48EjEET0_RT_S4_S4_NS_17integral_constantIbLb1EEE, symObjAddr: 0x4B60, symBinAddr: 0x10000CD74, symSize: 0x3C4 }
  - { offsetInCU: 0x18C66, offset: 0x25E6F, size: 0x8, addend: 0x0, symName: __ZN5boost6random6detail20generate_uniform_intINS0_6rand48EiEET0_RT_S4_S4_, symObjAddr: 0x45C4, symBinAddr: 0x10000C7D8, symSize: 0x34 }
  - { offsetInCU: 0x18D57, offset: 0x25F60, size: 0x8, addend: 0x0, symName: __ZN5boost6random6detail6mulmodEmmm, symObjAddr: 0x5438, symBinAddr: 0x10000D638, symSize: 0x40 }
  - { offsetInCU: 0x18D9F, offset: 0x25FA8, size: 0x8, addend: 0x0, symName: __ZN5boost6random6detail12integer_log2ImEEiT_, symObjAddr: 0x58BC, symBinAddr: 0x10000DAB4, symSize: 0x28 }
  - { offsetInCU: 0x19CF2, offset: 0x26EFB, size: 0x8, addend: 0x0, symName: __ZN5boost6tuples6detail5cnullEv, symObjAddr: 0x1FF24, symBinAddr: 0x1000277C8, symSize: 0x4 }
  - { offsetInCU: 0x1A380, offset: 0x27589, size: 0x8, addend: 0x0, symName: __ZN5boost6tuples3tieIN4CGAL31Halfedge_around_target_iteratorINS2_12Surface_meshINS2_7Point_3INS2_16Simple_cartesianIdEEEEEEEESA_EENS0_6detail10tie_mapperIT_T0_vvvvvvvvE4typeERSD_RSE_, symObjAddr: 0x1FD20, symBinAddr: 0x1000275C4, symSize: 0x40 }
  - { offsetInCU: 0x1BACD, offset: 0x28CD6, size: 0x8, addend: 0x0, symName: __ZN5boost9iteratorsneIN4CGAL12Surface_meshINS2_7Point_3INS2_16Simple_cartesianIdEEEEE14Index_iteratorINS2_15SM_Vertex_indexEEESA_NSt3__126random_access_iterator_tagESA_lSB_SA_SD_SA_lEENS0_6detail23enable_if_interoperableIT_T4_NS_3mpl6apply2INSE_12always_bool2ESG_SH_E4typeEE4typeERKNS0_15iterator_facadeISG_T0_T1_T2_T3_EERKNSP_ISH_T5_T6_T7_T8_EE, symObjAddr: 0x17A8, symBinAddr: 0x1000099C8, symSize: 0x4C }
  - { offsetInCU: 0x1BB64, offset: 0x28D6D, size: 0x8, addend: 0x0, symName: __ZN5boost9iteratorsneIN4CGAL12Surface_meshINS2_7Point_3INS2_16Simple_cartesianIdEEEEE14Index_iteratorINS2_13SM_Face_indexEEESA_NSt3__126random_access_iterator_tagESA_lSB_SA_SD_SA_lEENS0_6detail23enable_if_interoperableIT_T4_NS_3mpl6apply2INSE_12always_bool2ESG_SH_E4typeEE4typeERKNS0_15iterator_facadeISG_T0_T1_T2_T3_EERKNSP_ISH_T5_T6_T7_T8_EE, symObjAddr: 0x1A8C, symBinAddr: 0x100009CAC, symSize: 0x4C }
  - { offsetInCU: 0x1BBFB, offset: 0x28E04, size: 0x8, addend: 0x0, symName: __ZN5boost9iteratorsneIN4CGAL27Vertex_around_face_iteratorINS2_12Surface_meshINS2_7Point_3INS2_16Simple_cartesianIdEEEEEEEENS2_15SM_Vertex_indexENSt3__126bidirectional_iterator_tagESB_lSA_SB_SD_SB_lEENS0_6detail23enable_if_interoperableIT_T4_NS_3mpl6apply2INSE_12always_bool2ESG_SH_E4typeEE4typeERKNS0_15iterator_facadeISG_T0_T1_T2_T3_EERKNSP_ISH_T5_T6_T7_T8_EE, symObjAddr: 0x1C3C, symBinAddr: 0x100009E5C, symSize: 0x4C }
  - { offsetInCU: 0x1BC92, offset: 0x28E9B, size: 0x8, addend: 0x0, symName: __ZN5boost9iteratorsmiIN4CGAL12Surface_meshINS2_7Point_3INS2_16Simple_cartesianIdEEEEE14Index_iteratorINS2_15SM_Vertex_indexEEESA_NSt3__126random_access_iterator_tagESA_lSB_SA_SD_SA_lEENS0_6detail51enable_if_interoperable_and_random_access_traversalIT_T4_NS_3mpl6apply2INSE_22choose_difference_typeESG_SH_E4typeEE4typeERKNS0_15iterator_facadeISG_T0_T1_T2_T3_EERKNSP_ISH_T5_T6_T7_T8_EE, symObjAddr: 0x25B78, symBinAddr: 0x10002D41C, symSize: 0x44 }
  - { offsetInCU: 0x1BD29, offset: 0x28F32, size: 0x8, addend: 0x0, symName: __ZN5boost9iteratorsmiIN4CGAL12Surface_meshINS2_7Point_3INS2_16Simple_cartesianIdEEEEE14Index_iteratorINS2_17SM_Halfedge_indexEEESA_NSt3__126random_access_iterator_tagESA_lSB_SA_SD_SA_lEENS0_6detail51enable_if_interoperable_and_random_access_traversalIT_T4_NS_3mpl6apply2INSE_22choose_difference_typeESG_SH_E4typeEE4typeERKNS0_15iterator_facadeISG_T0_T1_T2_T3_EERKNSP_ISH_T5_T6_T7_T8_EE, symObjAddr: 0x263FC, symBinAddr: 0x10002DCA0, symSize: 0x44 }
  - { offsetInCU: 0x1BDC0, offset: 0x28FC9, size: 0x8, addend: 0x0, symName: __ZN5boost9iteratorsmiIN4CGAL12Surface_meshINS2_7Point_3INS2_16Simple_cartesianIdEEEEE14Index_iteratorINS2_13SM_Face_indexEEESA_NSt3__126random_access_iterator_tagESA_lSB_SA_SD_SA_lEENS0_6detail51enable_if_interoperable_and_random_access_traversalIT_T4_NS_3mpl6apply2INSE_22choose_difference_typeESG_SH_E4typeEE4typeERKNS0_15iterator_facadeISG_T0_T1_T2_T3_EERKNSP_ISH_T5_T6_T7_T8_EE, symObjAddr: 0x268F8, symBinAddr: 0x10002E19C, symSize: 0x44 }
  - { offsetInCU: 0x1C92C, offset: 0x29B35, size: 0x8, addend: 0x0, symName: __ZN5boost4math6detail21min_shift_initializerIdE11initializerE, symObjAddr: 0x57468, symBinAddr: 0x100068010, symSize: 0x0 }
  - { offsetInCU: 0x1C998, offset: 0x29BA1, size: 0x8, addend: 0x0, symName: __ZN5boost4math6detail19get_min_shift_valueIdEET_v, symObjAddr: 0x8678, symBinAddr: 0x100010250, symSize: 0xB4 }
  - { offsetInCU: 0x1C9C1, offset: 0x29BCA, size: 0x8, addend: 0x0, symName: __ZZN5boost4math6detail19get_min_shift_valueIdEET_vE3val, symObjAddr: 0x57498, symBinAddr: 0x100068040, symSize: 0x0 }
  - { offsetInCU: 0x1C9D5, offset: 0x29BDE, size: 0x8, addend: 0x0, symName: __ZN5boost4math6detail16calc_min_shiftedIdEET_RKNSt3__117integral_constantIbLb1EEE, symObjAddr: 0x872C, symBinAddr: 0x100010304, symSize: 0x34 }
  - { offsetInCU: 0x1CAB3, offset: 0x29CBC, size: 0x8, addend: 0x0, symName: __ZN5boost4math5tools9min_valueIdEET_v, symObjAddr: 0x877C, symBinAddr: 0x100010354, symSize: 0x14 }
  - { offsetInCU: 0x1CADC, offset: 0x29CE5, size: 0x8, addend: 0x0, symName: __ZN5boost4math5tools6digitsIdEEiv, symObjAddr: 0x8790, symBinAddr: 0x100010368, symSize: 0x8 }
  - { offsetInCU: 0x1EA7B, offset: 0x2BC84, size: 0x8, addend: 0x0, symName: __ZN5boost9container3dtl9max_valueImEERKT_S5_S5_, symObjAddr: 0x21D6C, symBinAddr: 0x100029610, symSize: 0x50 }
  - { offsetInCU: 0x1EAC4, offset: 0x2BCCD, size: 0x8, addend: 0x0, symName: __ZN5boost9container3dtl9min_valueImEERKT_S5_S5_, symObjAddr: 0x21DBC, symBinAddr: 0x100029660, symSize: 0x50 }
  - { offsetInCU: 0x22FE7, offset: 0x301F0, size: 0x8, addend: 0x0, symName: __ZN5boost9container18throw_length_errorEPKc, symObjAddr: 0x20B0C, symBinAddr: 0x1000283B0, symSize: 0x64 }
  - { offsetInCU: 0x23011, offset: 0x3021A, size: 0x8, addend: 0x0, symName: __ZN5boost9container15throw_bad_allocEv, symObjAddr: 0x20E24, symBinAddr: 0x1000286C8, symSize: 0x5C }
  - { offsetInCU: 0x2311D, offset: 0x30326, size: 0x8, addend: 0x0, symName: __ZN5boost9container35uninitialized_move_and_insert_allocINS0_22small_vector_allocatorINSt3__14pairIN4CGAL17SM_Halfedge_indexES6_EENS0_13new_allocatorIvEEvEEPS7_SB_NS0_3dtl18insert_range_proxyISA_NS_13move_iteratorISB_EEEEEEvRT_T0_SJ_SJ_T1_mT2_, symObjAddr: 0x20FC4, symBinAddr: 0x100028868, symSize: 0x504 }
  - { offsetInCU: 0x237C9, offset: 0x309D2, size: 0x8, addend: 0x0, symName: __ZN5boost9container35uninitialized_move_and_insert_allocINS0_22small_vector_allocatorINSt3__14pairIN4CGAL17SM_Halfedge_indexES6_EENS0_13new_allocatorIvEEvEEPS7_SB_NS0_3dtl20insert_emplace_proxyISA_JS7_EEEEEvRT_T0_SH_SH_T1_mT2_, symObjAddr: 0x21E0C, symBinAddr: 0x1000296B0, symSize: 0x460 }
  - { offsetInCU: 0x25BB1, offset: 0x32DBA, size: 0x8, addend: 0x0, symName: __ZN5boost9container13move_backwardIPNS0_3dtl4pairIN4CGAL15SM_Vertex_indexEjEES7_EENS2_38disable_if_memtransfer_copy_assignableIT_T0_SA_E4typeES9_S9_SA_, symObjAddr: 0x29504, symBinAddr: 0x100030DA8, symSize: 0x74 }
  - { offsetInCU: 0x25C2F, offset: 0x32E38, size: 0x8, addend: 0x0, symName: __ZN5boost9container35uninitialized_move_and_insert_allocINS0_13new_allocatorINS0_3dtl4pairIN4CGAL15SM_Vertex_indexEjEEEEPS7_S9_NS3_20insert_emplace_proxyIS8_JS7_EEEEEvRT_T0_SE_SE_T1_mT2_, symObjAddr: 0x2998C, symBinAddr: 0x100031230, symSize: 0x1F8 }
  - { offsetInCU: 0x25EB3, offset: 0x330BC, size: 0x8, addend: 0x0, symName: __ZN5boost9container24uninitialized_move_allocINS0_13new_allocatorINS0_3dtl4pairIN4CGAL15SM_Vertex_indexEjEEEEPS7_S9_EENS3_41disable_if_memtransfer_copy_constructibleIT0_T1_SC_E4typeERT_SB_SB_SC_, symObjAddr: 0x29C00, symBinAddr: 0x1000314A4, symSize: 0x230 }
  - { offsetInCU: 0x27CEC, offset: 0x34EF5, size: 0x8, addend: 0x0, symName: __ZN5boost3putIN4CGAL12Surface_meshINS1_7Point_3INS1_16Simple_cartesianIdEEEEE12Property_mapINS1_15SM_Vertex_indexES6_EERS6_S9_S6_EEvRKNS_14put_get_helperIT0_T_EET1_RKT2_, symObjAddr: 0xB6B4, symBinAddr: 0x100012FF4, symSize: 0x50 }
  - { offsetInCU: 0x2861C, offset: 0x35825, size: 0x8, addend: 0x0, symName: __ZN5boost3getIN4CGAL12Surface_meshINS1_7Point_3INS1_16Simple_cartesianIdEEEEE12Property_mapINS1_15SM_Vertex_indexES6_EERS6_S9_EET0_RKNS_14put_get_helperISC_T_EERKT1_, symObjAddr: 0x2550C, symBinAddr: 0x10002CDB0, symSize: 0x34 }
  - { offsetInCU: 0x3CB37, offset: 0x49D40, size: 0x8, addend: 0x0, symName: __ZNSt3__119piecewise_constructE, symObjAddr: 0x57453, symBinAddr: 0x100061560, symSize: 0x0 }
  - { offsetInCU: 0x43D09, offset: 0x50F12, size: 0x8, addend: 0x0, symName: __ZNSt3__124__put_character_sequenceB8ue170006IcNS_11char_traitsIcEEEERNS_13basic_ostreamIT_T0_EES7_PKS4_m, symObjAddr: 0x79E0, symBinAddr: 0x10000F5B8, symSize: 0x1EC }
  - { offsetInCU: 0x4C64F, offset: 0x59858, size: 0x8, addend: 0x0, symName: __ZNSt3__111__introsortINS_17_ClassicAlgPolicyERNS_6__lessIvvEEPN4CGAL15SM_Vertex_indexELb0EEEvT1_S8_T0_NS_15iterator_traitsIS8_E15difference_typeEb, symObjAddr: 0x1B708, symBinAddr: 0x100022FC8, symSize: 0x434 }
  - { offsetInCU: 0x4C77A, offset: 0x59983, size: 0x8, addend: 0x0, symName: __ZNSt3__126__insertion_sort_unguardedB8ue170006INS_17_ClassicAlgPolicyERNS_6__lessIvvEEPN4CGAL15SM_Vertex_indexEEEvT1_S8_T0_, symObjAddr: 0x1BDF4, symBinAddr: 0x100023698, symSize: 0x120 }
  - { offsetInCU: 0x4C86B, offset: 0x59A74, size: 0x8, addend: 0x0, symName: __ZNSt3__111__sift_downB8ue170006INS_17_ClassicAlgPolicyERNS_6__lessIvvEEPN4CGAL15SM_Vertex_indexEEEvT1_OT0_NS_15iterator_traitsIS8_E15difference_typeES8_, symObjAddr: 0x1CFE0, symBinAddr: 0x100024884, symSize: 0x20C }
  - { offsetInCU: 0x4C917, offset: 0x59B20, size: 0x8, addend: 0x0, symName: __ZNSt3__117__floyd_sift_downB8ue170006INS_17_ClassicAlgPolicyERNS_6__lessIvvEEPN4CGAL15SM_Vertex_indexEEET1_S8_OT0_NS_15iterator_traitsIS8_E15difference_typeE, symObjAddr: 0x1D388, symBinAddr: 0x100024C2C, symSize: 0x100 }
  - { offsetInCU: 0x4C9AF, offset: 0x59BB8, size: 0x8, addend: 0x0, symName: __ZNSt3__131__partition_with_equals_on_leftB8ue170006INS_17_ClassicAlgPolicyEPN4CGAL15SM_Vertex_indexERNS_6__lessIvvEEEET0_S8_S8_T1_, symObjAddr: 0x1C120, symBinAddr: 0x1000239C4, symSize: 0x20C }
  - { offsetInCU: 0x4CA6A, offset: 0x59C73, size: 0x8, addend: 0x0, symName: __ZNSt3__118__bitset_partitionB8ue170006INS_17_ClassicAlgPolicyEPN4CGAL15SM_Vertex_indexERNS_6__lessIvvEEEENS_4pairIT0_bEES9_S9_T1_, symObjAddr: 0x1C32C, symBinAddr: 0x100023BD0, symSize: 0x324 }
  - { offsetInCU: 0x4CB63, offset: 0x59D6C, size: 0x8, addend: 0x0, symName: __ZNSt3__124__swap_bitmap_pos_withinB8ue170006INS_17_ClassicAlgPolicyEPN4CGAL15SM_Vertex_indexEEEvRT0_S6_RyS7_, symObjAddr: 0x1DAD4, symBinAddr: 0x100025378, symSize: 0x1E0 }
  - { offsetInCU: 0x4CC30, offset: 0x59E39, size: 0x8, addend: 0x0, symName: __ZNSt3__132__partition_with_equals_on_rightB8ue170006INS_17_ClassicAlgPolicyEPN4CGAL15SM_Vertex_indexERNS_6__lessIvvEEEENS_4pairIT0_bEES9_S9_T1_, symObjAddr: 0x1C650, symBinAddr: 0x100023EF4, symSize: 0x21C }
  - { offsetInCU: 0x4CCFA, offset: 0x59F03, size: 0x8, addend: 0x0, symName: __ZNSt3__127__insertion_sort_incompleteB8ue170006INS_17_ClassicAlgPolicyERNS_6__lessIvvEEPN4CGAL15SM_Vertex_indexEEEbT1_S8_T0_, symObjAddr: 0x1C86C, symBinAddr: 0x100024110, symSize: 0x304 }
  - { offsetInCU: 0x4DE11, offset: 0x5B01A, size: 0x8, addend: 0x0, symName: __ZNSt3__113__fill_n_trueB8ue170006INS_6vectorIbNS_9allocatorIbEEEEEEvNS_14__bit_iteratorIT_Lb0EXLi0EEEENS6_9size_typeE, symObjAddr: 0x1F808, symBinAddr: 0x1000270AC, symSize: 0x160 }
  - { offsetInCU: 0x4DED6, offset: 0x5B0DF, size: 0x8, addend: 0x0, symName: __ZNSt3__114__fill_n_falseB8ue170006INS_6vectorIbNS_9allocatorIbEEEEEEvNS_14__bit_iteratorIT_Lb0EXLi0EEEENS6_9size_typeE, symObjAddr: 0x1F99C, symBinAddr: 0x100027240, symSize: 0x15C }
  - { offsetInCU: 0x4E390, offset: 0x5B599, size: 0x8, addend: 0x0, symName: __ZNSt3__17advanceB8ue170006IPN4CGAL12Surface_meshINS1_7Point_3INS1_16Simple_cartesianIdEEEEE19Vertex_connectivityEllvEEvRT_T0_, symObjAddr: 0x3073C, symBinAddr: 0x100037FE0, symSize: 0x38 }
  - { offsetInCU: 0x4E950, offset: 0x5BB59, size: 0x8, addend: 0x0, symName: __ZNSt3__17advanceB8ue170006IPN4CGAL12Surface_meshINS1_7Point_3INS1_16Simple_cartesianIdEEEEE21Halfedge_connectivityEllvEEvRT_T0_, symObjAddr: 0x361D0, symBinAddr: 0x10003DA60, symSize: 0x38 }
  - { offsetInCU: 0x4ED36, offset: 0x5BF3F, size: 0x8, addend: 0x0, symName: __ZNSt3__17advanceB8ue170006IPN4CGAL12Surface_meshINS1_7Point_3INS1_16Simple_cartesianIdEEEEE17Face_connectivityEllvEEvRT_T0_, symObjAddr: 0x3A960, symBinAddr: 0x1000421F0, symSize: 0x38 }
  - { offsetInCU: 0x4EF42, offset: 0x5C14B, size: 0x8, addend: 0x0, symName: __ZNSt3__17advanceB8ue170006IPN4CGAL7Point_3INS1_16Simple_cartesianIdEEEEllvEEvRT_T0_, symObjAddr: 0x3D760, symBinAddr: 0x100044FF0, symSize: 0x38 }
  - { offsetInCU: 0x4F080, offset: 0x5C289, size: 0x8, addend: 0x0, symName: __ZNSt3__114__copy_alignedB8ue170006INS_6vectorIbNS_9allocatorIbEEEELb1EEENS_14__bit_iteratorIT_Lb0EXLi0EEEENS5_IS6_XT0_EXLi0EEEES8_S7_, symObjAddr: 0x3F630, symBinAddr: 0x100046EC0, symSize: 0x268 }
  - { offsetInCU: 0x4F1AC, offset: 0x5C3B5, size: 0x8, addend: 0x0, symName: __ZNSt3__16copy_nB8ue170006IPKmmPmEENS_9enable_ifIXsr37__has_random_access_iterator_categoryIT_EE5valueET1_E4typeES5_T0_S6_, symObjAddr: 0x3FE2C, symBinAddr: 0x1000476BC, symSize: 0x44 }
  - { offsetInCU: 0x4F233, offset: 0x5C43C, size: 0x8, addend: 0x0, symName: __ZNSt3__116__copy_unalignedB8ue170006INS_6vectorIbNS_9allocatorIbEEEELb1EEENS_14__bit_iteratorIT_Lb0EXLi0EEEENS5_IS6_XT0_EXLi0EEEES8_S7_, symObjAddr: 0x3F898, symBinAddr: 0x100047128, symSize: 0x520 }
  - { offsetInCU: 0x55F99, offset: 0x631A2, size: 0x8, addend: 0x0, symName: __ZNSt3__1lsB8ue170006IcNS_11char_traitsIcEENS_9allocatorIcEEEERNS_13basic_ostreamIT_T0_EES9_RKNS_12basic_stringIS6_S7_T1_EE, symObjAddr: 0x78C, symBinAddr: 0x1000089AC, symSize: 0x4C }
  - { offsetInCU: 0x55FF1, offset: 0x631FA, size: 0x8, addend: 0x0, symName: __ZNSt3__1lsB8ue170006INS_11char_traitsIcEEEERNS_13basic_ostreamIcT_EES6_PKc, symObjAddr: 0x7D8, symBinAddr: 0x1000089F8, symSize: 0x48 }
  - { offsetInCU: 0x56037, offset: 0x63240, size: 0x8, addend: 0x0, symName: __ZNSt3__14endlB8ue170006IcNS_11char_traitsIcEEEERNS_13basic_ostreamIT_T0_EES7_, symObjAddr: 0x84C, symBinAddr: 0x100008A6C, symSize: 0x58 }
  - { offsetInCU: 0x56253, offset: 0x6345C, size: 0x8, addend: 0x0, symName: __ZNSt3__1neB8ue170006IPK5CoralEEbRKNS_11__wrap_iterIT_EES8_, symObjAddr: 0x1430, symBinAddr: 0x100009650, symSize: 0x34 }
  - { offsetInCU: 0x56296, offset: 0x6349F, size: 0x8, addend: 0x0, symName: __ZNSt3__1neB8ue170006IPNS_12basic_stringIcNS_11char_traitsIcEENS_9allocatorIcEEEEEEbRKNS_11__wrap_iterIT_EESC_, symObjAddr: 0x28E8, symBinAddr: 0x10000AB08, symSize: 0x34 }
  - { offsetInCU: 0x562D9, offset: 0x634E2, size: 0x8, addend: 0x0, symName: __ZNSt3__1plB8ue170006IcNS_11char_traitsIcEENS_9allocatorIcEEEENS_12basic_stringIT_T0_T1_EEOS9_SA_, symObjAddr: 0x3A40, symBinAddr: 0x10000BC54, symSize: 0x40 }
  - { offsetInCU: 0x56331, offset: 0x6353A, size: 0x8, addend: 0x0, symName: __ZNSt3__1plB8ue170006IcNS_11char_traitsIcEENS_9allocatorIcEEEENS_12basic_stringIT_T0_T1_EEOS9_RKS9_, symObjAddr: 0x3A80, symBinAddr: 0x10000BC94, symSize: 0x40 }
  - { offsetInCU: 0x56389, offset: 0x63592, size: 0x8, addend: 0x0, symName: __ZNSt3__1plB8ue170006IcNS_11char_traitsIcEENS_9allocatorIcEEEENS_12basic_stringIT_T0_T1_EERKS9_OS9_, symObjAddr: 0x3AC0, symBinAddr: 0x10000BCD4, symSize: 0x44 }
  - { offsetInCU: 0x563E1, offset: 0x635EA, size: 0x8, addend: 0x0, symName: __ZNSt3__112__to_addressB8ue170006IKcEEPT_S3_, symObjAddr: 0x3C8C, symBinAddr: 0x10000BEA0, symSize: 0x14 }
  - { offsetInCU: 0x56637, offset: 0x63840, size: 0x8, addend: 0x0, symName: __ZNSt3__1eqB8ue170006IPK5CoralEEbRKNS_11__wrap_iterIT_EES8_, symObjAddr: 0x63C8, symBinAddr: 0x10000DFA0, symSize: 0x48 }
  - { offsetInCU: 0x5667A, offset: 0x63883, size: 0x8, addend: 0x0, symName: __ZNSt3__14swapB8ue170006IPN4CGAL29Aff_transformation_rep_baseC3INS1_16Simple_cartesianIdEEEEEENS_9enable_ifIXaasr21is_move_constructibleIT_EE5valuesr18is_move_assignableIS8_EE5valueEvE4typeERS8_SB_, symObjAddr: 0x64BC, symBinAddr: 0x10000E094, symSize: 0x3C }
  - { offsetInCU: 0x566D3, offset: 0x638DC, size: 0x8, addend: 0x0, symName: __ZNSt3__112__to_addressB8ue170006IPN4CGAL10Properties19Base_property_arrayEEEPT_S6_, symObjAddr: 0x6E20, symBinAddr: 0x10000E9F8, symSize: 0x14 }
  - { offsetInCU: 0x56708, offset: 0x63911, size: 0x8, addend: 0x0, symName: __ZNSt3__1eqB8ue170006IPNS_12basic_stringIcNS_11char_traitsIcEENS_9allocatorIcEEEEEEbRKNS_11__wrap_iterIT_EESC_, symObjAddr: 0x7564, symBinAddr: 0x10000F13C, symSize: 0x48 }
  - { offsetInCU: 0x5674B, offset: 0x63954, size: 0x8, addend: 0x0, symName: __ZNSt3__118__constexpr_strlenB8ue170006EPKc, symObjAddr: 0x778C, symBinAddr: 0x10000F364, symSize: 0x24 }
  - { offsetInCU: 0x56777, offset: 0x63980, size: 0x8, addend: 0x0, symName: __ZNSt3__116__pad_and_outputB8ue170006IcNS_11char_traitsIcEEEENS_19ostreambuf_iteratorIT_T0_EES6_PKS4_S8_S8_RNS_8ios_baseES4_, symObjAddr: 0x7BE8, symBinAddr: 0x10000F7C0, symSize: 0x240 }
  - { offsetInCU: 0x5685C, offset: 0x63A65, size: 0x8, addend: 0x0, symName: __ZNSt3__112__to_addressB8ue170006IcEEPT_S2_, symObjAddr: 0x802C, symBinAddr: 0x10000FC04, symSize: 0x14 }
  - { offsetInCU: 0x568C4, offset: 0x63ACD, size: 0x8, addend: 0x0, symName: __ZNSt3__19use_facetB8ue170006INS_5ctypeIcEEEERKT_RKNS_6localeE, symObjAddr: 0x8234, symBinAddr: 0x10000FE0C, symSize: 0x2C }
  - { offsetInCU: 0x56CAC, offset: 0x63EB5, size: 0x8, addend: 0x0, symName: __ZNSt3__112__to_addressB8ue170006IN4CGAL12Surface_meshINS1_7Point_3INS1_16Simple_cartesianIdEEEEEEEEPT_S9_, symObjAddr: 0x8C90, symBinAddr: 0x100010868, symSize: 0x14 }
  - { offsetInCU: 0x56CE1, offset: 0x63EEA, size: 0x8, addend: 0x0, symName: __ZNSt3__122__make_exception_guardB8ue170006INS_6vectorIfNS_9allocatorIfEEE16__destroy_vectorEEENS_28__exception_guard_exceptionsIT_EES7_, symObjAddr: 0x8F4C, symBinAddr: 0x100010B24, symSize: 0x40 }
  - { offsetInCU: 0x56D16, offset: 0x63F1F, size: 0x8, addend: 0x0, symName: __ZNSt3__119__allocate_at_leastB8ue170006INS_9allocatorIfEEEENS_19__allocation_resultINS_16allocator_traitsIT_E7pointerEEERS5_m, symObjAddr: 0x934C, symBinAddr: 0x100010F24, symSize: 0x40 }
  - { offsetInCU: 0x56E0E, offset: 0x64017, size: 0x8, addend: 0x0, symName: __ZNSt3__112__to_addressB8ue170006IfEEPT_S2_, symObjAddr: 0x9908, symBinAddr: 0x100011248, symSize: 0x14 }
  - { offsetInCU: 0x56E43, offset: 0x6404C, size: 0x8, addend: 0x0, symName: __ZNSt3__130__uninitialized_allocator_copyB8ue170006INS_9allocatorIfEEPKfS4_PfEET2_RT_T0_T1_S6_, symObjAddr: 0x99B8, symBinAddr: 0x1000112F8, symSize: 0x80 }
  - { offsetInCU: 0x56EE0, offset: 0x640E9, size: 0x8, addend: 0x0, symName: __ZNSt3__114__unwrap_rangeB8ue170006IPKfS2_EENS_4pairIT0_S4_EET_S6_, symObjAddr: 0x9AA8, symBinAddr: 0x1000113E8, symSize: 0x60 }
  - { offsetInCU: 0x56F32, offset: 0x6413B, size: 0x8, addend: 0x0, symName: __ZNSt3__135__uninitialized_allocator_copy_implB8ue170006INS_9allocatorIfEEKfffLPv0EEEPT2_RT_PT0_SA_S6_, symObjAddr: 0x9B08, symBinAddr: 0x100011448, symSize: 0x38 }
  - { offsetInCU: 0x56FB3, offset: 0x641BC, size: 0x8, addend: 0x0, symName: __ZNSt3__113__unwrap_iterB8ue170006IPfNS_18__unwrap_iter_implIS1_Lb1EEELi0EEEDTclsrT0_8__unwrapclsr3stdE7declvalIT_EEEES5_, symObjAddr: 0x9B40, symBinAddr: 0x100011480, symSize: 0x24 }
  - { offsetInCU: 0x56FFB, offset: 0x64204, size: 0x8, addend: 0x0, symName: __ZNSt3__113__rewrap_iterB8ue170006IPfS1_NS_18__unwrap_iter_implIS1_Lb1EEEEET_S4_T0_, symObjAddr: 0x9B64, symBinAddr: 0x1000114A4, symSize: 0x3C }
  - { offsetInCU: 0x57056, offset: 0x6425F, size: 0x8, addend: 0x0, symName: __ZNSt3__19make_pairB8ue170006IPKfS2_EENS_4pairINS_18__unwrap_ref_decayIT_E4typeENS4_IT0_E4typeEEEOS5_OS8_, symObjAddr: 0x9BA0, symBinAddr: 0x1000114E0, symSize: 0x38 }
  - { offsetInCU: 0x570A5, offset: 0x642AE, size: 0x8, addend: 0x0, symName: __ZNSt3__113__unwrap_iterB8ue170006IPKfNS_18__unwrap_iter_implIS2_Lb1EEELi0EEEDTclsrT0_8__unwrapclsr3stdE7declvalIT_EEEES6_, symObjAddr: 0x9BD8, symBinAddr: 0x100011518, symSize: 0x24 }
  - { offsetInCU: 0x5721C, offset: 0x64425, size: 0x8, addend: 0x0, symName: __ZNSt3__112__to_addressB8ue170006IKfEEPT_S3_, symObjAddr: 0x9C90, symBinAddr: 0x1000115D0, symSize: 0x14 }
  - { offsetInCU: 0x57251, offset: 0x6445A, size: 0x8, addend: 0x0, symName: __ZNSt3__14copyB8ue170006IPKfPfEET0_T_S5_S4_, symObjAddr: 0x9CA4, symBinAddr: 0x1000115E4, symSize: 0x40 }
  - { offsetInCU: 0x572B3, offset: 0x644BC, size: 0x8, addend: 0x0, symName: __ZNSt3__16__copyB8ue170006INS_17_ClassicAlgPolicyEPKfS3_PfEENS_4pairIT0_T2_EES6_T1_S7_, symObjAddr: 0x9CE4, symBinAddr: 0x100011624, symSize: 0x44 }
  - { offsetInCU: 0x57327, offset: 0x64530, size: 0x8, addend: 0x0, symName: __ZNSt3__123__dispatch_copy_or_moveB8ue170006INS_17_ClassicAlgPolicyENS_11__copy_loopIS1_EENS_14__copy_trivialEPKfS6_PfEENS_4pairIT2_T4_EES9_T3_SA_, symObjAddr: 0x9D28, symBinAddr: 0x100011668, symSize: 0x44 }
  - { offsetInCU: 0x573AD, offset: 0x645B6, size: 0x8, addend: 0x0, symName: __ZNSt3__121__unwrap_and_dispatchB8ue170006INS_10__overloadINS_11__copy_loopINS_17_ClassicAlgPolicyEEENS_14__copy_trivialEEEPKfS8_PfLi0EEENS_4pairIT0_T2_EESB_T1_SC_, symObjAddr: 0x9D6C, symBinAddr: 0x1000116AC, symSize: 0xB4 }
  - { offsetInCU: 0x5783E, offset: 0x64A47, size: 0x8, addend: 0x0, symName: __ZNSt3__19make_pairB8ue170006IPKfPfEENS_4pairINS_18__unwrap_ref_decayIT_E4typeENS5_IT0_E4typeEEEOS6_OS9_, symObjAddr: 0x9E68, symBinAddr: 0x1000117A8, symSize: 0x38 }
  - { offsetInCU: 0x5788D, offset: 0x64A96, size: 0x8, addend: 0x0, symName: __ZNSt3__114__rewrap_rangeB8ue170006IPKfS2_EET_S3_T0_, symObjAddr: 0x9EA0, symBinAddr: 0x1000117E0, symSize: 0x2C }
  - { offsetInCU: 0x578DF, offset: 0x64AE8, size: 0x8, addend: 0x0, symName: __ZNSt3__119__copy_trivial_implB8ue170006IKffEENS_4pairIPT_PT0_EES4_S4_S6_, symObjAddr: 0x9ECC, symBinAddr: 0x10001180C, symSize: 0x80 }
  - { offsetInCU: 0x57951, offset: 0x64B5A, size: 0x8, addend: 0x0, symName: __ZNSt3__119__constexpr_memmoveB8ue170006IfKfLi0EEEPT_S3_PT0_NS_15__element_countE, symObjAddr: 0x9F4C, symBinAddr: 0x10001188C, symSize: 0x64 }
  - { offsetInCU: 0x579BF, offset: 0x64BC8, size: 0x8, addend: 0x0, symName: __ZNSt3__19make_pairB8ue170006IRPKfPfEENS_4pairINS_18__unwrap_ref_decayIT_E4typeENS6_IT0_E4typeEEEOS7_OSA_, symObjAddr: 0x9FB0, symBinAddr: 0x1000118F0, symSize: 0x38 }
  - { offsetInCU: 0x57A0E, offset: 0x64C17, size: 0x8, addend: 0x0, symName: __ZNSt3__113__rewrap_iterB8ue170006IPKfS2_NS_18__unwrap_iter_implIS2_Lb1EEEEET_S5_T0_, symObjAddr: 0xA0C8, symBinAddr: 0x100011A08, symSize: 0x3C }
  - { offsetInCU: 0x57AC4, offset: 0x64CCD, size: 0x8, addend: 0x0, symName: __ZNSt3__113back_inserterB8ue170006INS_6vectorIN4CGAL8Vector_3INS2_16Simple_cartesianIdEEEENS_9allocatorIS6_EEEEEENS_20back_insert_iteratorIT_EERSB_, symObjAddr: 0xB148, symBinAddr: 0x100012A88, symSize: 0x2C }
  - { offsetInCU: 0x57AF9, offset: 0x64D02, size: 0x8, addend: 0x0, symName: __ZNSt3__113back_inserterB8ue170006INS_6vectorIN4CGAL2IO5ColorENS_9allocatorIS4_EEEEEENS_20back_insert_iteratorIT_EERS9_, symObjAddr: 0xB1AC, symBinAddr: 0x100012AEC, symSize: 0x2C }
  - { offsetInCU: 0x57B2E, offset: 0x64D37, size: 0x8, addend: 0x0, symName: __ZNSt3__113back_inserterB8ue170006INS_6vectorIN4CGAL7Point_2INS2_16Simple_cartesianIdEEEENS_9allocatorIS6_EEEEEENS_20back_insert_iteratorIT_EERSB_, symObjAddr: 0xB210, symBinAddr: 0x100012B50, symSize: 0x2C }
  - { offsetInCU: 0x57B63, offset: 0x64D6C, size: 0x8, addend: 0x0, symName: __ZNSt3__17getlineB8ue170006IcNS_11char_traitsIcEENS_9allocatorIcEEEERNS_13basic_istreamIT_T0_EES9_RNS_12basic_stringIS6_S7_T1_EE, symObjAddr: 0xFAA4, symBinAddr: 0x1000173E4, symSize: 0x5C }
  - { offsetInCU: 0x57BBB, offset: 0x64DC4, size: 0x8, addend: 0x0, symName: __ZNSt3__17find_ifB8ue170006INS_16reverse_iteratorINS_11__wrap_iterIPcEEEEZN4CGAL2IO8internal8read_OBJINS_6vectorINS6_7Point_3INS6_16Simple_cartesianIdEEEENS_9allocatorISE_EEEENSA_INSA_ImNSF_ImEEEENSF_ISJ_EEEENS6_17Emptyset_iteratorESM_EEbRNS_13basic_istreamIcNS_11char_traitsIcEEEERT_RT0_T1_T2_bEUlcE_EESS_SS_SS_SU_, symObjAddr: 0xFB2C, symBinAddr: 0x10001746C, symSize: 0x80 }
  - { offsetInCU: 0x57C1D, offset: 0x64E26, size: 0x8, addend: 0x0, symName: __ZNSt3__1eqB8ue170006INS_11__wrap_iterIPcEES3_EEbRKNS_16reverse_iteratorIT_EERKNS4_IT0_EE, symObjAddr: 0xFC34, symBinAddr: 0x100017574, symSize: 0x54 }
  - { offsetInCU: 0x57C69, offset: 0x64E72, size: 0x8, addend: 0x0, symName: __ZNSt3__1neB8ue170006INS_11__wrap_iterIPcEES3_EEbRKNS_16reverse_iteratorIT_EERKNS4_IT0_EE, symObjAddr: 0xFC88, symBinAddr: 0x1000175C8, symSize: 0x54 }
  - { offsetInCU: 0x57CB5, offset: 0x64EBE, size: 0x8, addend: 0x0, symName: __ZNSt3__1miB8ue170006INS_11__wrap_iterIPcEES3_EEDTmicldtfp0_4baseEcldtfp_4baseEERKNS_16reverse_iteratorIT_EERKNS5_IT0_EE, symObjAddr: 0xFD78, symBinAddr: 0x1000176B8, symSize: 0x50 }
  - { offsetInCU: 0x57D04, offset: 0x64F0D, size: 0x8, addend: 0x0, symName: __ZNSt3__17find_ifB8ue170006INS_16reverse_iteratorINS_11__wrap_iterIPcEEEEZN4CGAL2IO8internal8read_OBJINS_6vectorINS6_7Point_3INS6_16Simple_cartesianIdEEEENS_9allocatorISE_EEEENSA_INSA_ImNSF_ImEEEENSF_ISJ_EEEENS6_17Emptyset_iteratorESM_EEbRNS_13basic_istreamIcNS_11char_traitsIcEEEERT_RT0_T1_T2_bEUlcE0_EESS_SS_SS_SU_, symObjAddr: 0xFE28, symBinAddr: 0x100017768, symSize: 0x80 }
  - { offsetInCU: 0x5812E, offset: 0x65337, size: 0x8, addend: 0x0, symName: __ZNSt3__1rsB8ue170006IcNS_11char_traitsIcEENS_9allocatorIcEEEERNS_13basic_istreamIT_T0_EES9_RNS_12basic_stringIS6_S7_T1_EE, symObjAddr: 0xFFA4, symBinAddr: 0x1000178E4, symSize: 0x308 }
  - { offsetInCU: 0x581FB, offset: 0x65404, size: 0x8, addend: 0x0, symName: __ZNSt3__1eqB8ue170006IcNS_11char_traitsIcEENS_9allocatorIcEEEEbRKNS_12basic_stringIT_T0_T1_EEPKS6_, symObjAddr: 0x102AC, symBinAddr: 0x100017BEC, symSize: 0xAC }
  - { offsetInCU: 0x5826F, offset: 0x65478, size: 0x8, addend: 0x0, symName: __ZNSt3__17getlineB8ue170006IcNS_11char_traitsIcEENS_9allocatorIcEEEERNS_13basic_istreamIT_T0_EES9_RNS_12basic_stringIS6_S7_T1_EES6_, symObjAddr: 0x1072C, symBinAddr: 0x10001806C, symSize: 0x238 }
  - { offsetInCU: 0x5832D, offset: 0x65536, size: 0x8, addend: 0x0, symName: __ZNSt3__1eqB8ue170006IPcEEbRKNS_11__wrap_iterIT_EES6_, symObjAddr: 0x1107C, symBinAddr: 0x1000189BC, symSize: 0x48 }
  - { offsetInCU: 0x58370, offset: 0x65579, size: 0x8, addend: 0x0, symName: __ZNSt3__1neB8ue170006IPcEEbRKNS_11__wrap_iterIT_EES6_, symObjAddr: 0x110FC, symBinAddr: 0x100018A3C, symSize: 0x34 }
  - { offsetInCU: 0x583B3, offset: 0x655BC, size: 0x8, addend: 0x0, symName: __ZNSt3__1miB8ue170006IPcS1_EEDTmicldtfp_4baseEcldtfp0_4baseEERKNS_11__wrap_iterIT_EERKNS3_IT0_EE, symObjAddr: 0x11174, symBinAddr: 0x100018AB4, symSize: 0x40 }
  - { offsetInCU: 0x583FF, offset: 0x65608, size: 0x8, addend: 0x0, symName: __ZNSt3__112__to_addressB8ue170006IN4CGAL7Point_3INS1_16Simple_cartesianIdEEEEEEPT_S7_, symObjAddr: 0x11C98, symBinAddr: 0x1000195D8, symSize: 0x14 }
  - { offsetInCU: 0x58434, offset: 0x6563D, size: 0x8, addend: 0x0, symName: __ZNSt3__119__allocate_at_leastB8ue170006INS_9allocatorIN4CGAL7Point_3INS2_16Simple_cartesianIdEEEEEEEENS_19__allocation_resultINS_16allocator_traitsIT_E7pointerEEERSA_m, symObjAddr: 0x12334, symBinAddr: 0x100019BF4, symSize: 0x40 }
  - { offsetInCU: 0x5847D, offset: 0x65686, size: 0x8, addend: 0x0, symName: __ZNSt3__142__uninitialized_allocator_move_if_noexceptB8ue170006INS_9allocatorIN4CGAL7Point_3INS2_16Simple_cartesianIdEEEEEENS_16reverse_iteratorIPS6_EESA_S6_vEET1_RT_T0_SE_SB_, symObjAddr: 0x125C0, symBinAddr: 0x100019E80, symSize: 0x78 }
  - { offsetInCU: 0x584FA, offset: 0x65703, size: 0x8, addend: 0x0, symName: __ZNSt3__14swapB8ue170006IPN4CGAL7Point_3INS1_16Simple_cartesianIdEEEEEENS_9enable_ifIXaasr21is_move_constructibleIT_EE5valuesr18is_move_assignableIS8_EE5valueEvE4typeERS8_SB_, symObjAddr: 0x12684, symBinAddr: 0x100019F44, symSize: 0x3C }
  - { offsetInCU: 0x58553, offset: 0x6575C, size: 0x8, addend: 0x0, symName: __ZNSt3__14moveB8ue170006INS_16reverse_iteratorIPN4CGAL7Point_3INS2_16Simple_cartesianIdEEEEEES8_EET0_T_SA_S9_, symObjAddr: 0x127D0, symBinAddr: 0x10001A090, symSize: 0x78 }
  - { offsetInCU: 0x585B5, offset: 0x657BE, size: 0x8, addend: 0x0, symName: __ZNSt3__16__moveB8ue170006INS_17_ClassicAlgPolicyENS_16reverse_iteratorIPN4CGAL7Point_3INS3_16Simple_cartesianIdEEEEEES9_S9_EENS_4pairIT0_T2_EESB_T1_SC_, symObjAddr: 0x12848, symBinAddr: 0x10001A108, symSize: 0x64 }
  - { offsetInCU: 0x58629, offset: 0x65832, size: 0x8, addend: 0x0, symName: __ZNSt3__123__dispatch_copy_or_moveB8ue170006INS_17_ClassicAlgPolicyENS_11__move_loopIS1_EENS_14__move_trivialENS_16reverse_iteratorIPN4CGAL7Point_3INS6_16Simple_cartesianIdEEEEEESC_SC_EENS_4pairIT2_T4_EESE_T3_SF_, symObjAddr: 0x128AC, symBinAddr: 0x10001A16C, symSize: 0x64 }
  - { offsetInCU: 0x586AF, offset: 0x658B8, size: 0x8, addend: 0x0, symName: __ZNSt3__121__unwrap_and_dispatchB8ue170006INS_10__overloadINS_11__move_loopINS_17_ClassicAlgPolicyEEENS_14__move_trivialEEENS_16reverse_iteratorIPN4CGAL7Point_3INS8_16Simple_cartesianIdEEEEEESE_SE_Li0EEENS_4pairIT0_T2_EESG_T1_SH_, symObjAddr: 0x12910, symBinAddr: 0x10001A1D0, symSize: 0x12C }
  - { offsetInCU: 0x5874B, offset: 0x65954, size: 0x8, addend: 0x0, symName: __ZNSt3__114__unwrap_rangeB8ue170006INS_16reverse_iteratorIPN4CGAL7Point_3INS2_16Simple_cartesianIdEEEEEES8_EENS_4pairIT0_SA_EET_SC_, symObjAddr: 0x12A3C, symBinAddr: 0x10001A2FC, symSize: 0x84 }
  - { offsetInCU: 0x58A8E, offset: 0x65C97, size: 0x8, addend: 0x0, symName: __ZNSt3__113__unwrap_iterB8ue170006INS_16reverse_iteratorIPN4CGAL7Point_3INS2_16Simple_cartesianIdEEEEEENS_18__unwrap_iter_implIS8_Lb0EEELi0EEEDTclsrT0_8__unwrapclsr3stdE7declvalIT_EEEESC_, symObjAddr: 0x12B68, symBinAddr: 0x10001A428, symSize: 0x44 }
  - { offsetInCU: 0x58AD6, offset: 0x65CDF, size: 0x8, addend: 0x0, symName: __ZNSt3__19make_pairB8ue170006INS_16reverse_iteratorIPN4CGAL7Point_3INS2_16Simple_cartesianIdEEEEEES8_EENS_4pairINS_18__unwrap_ref_decayIT_E4typeENSA_IT0_E4typeEEEOSB_OSE_, symObjAddr: 0x12BAC, symBinAddr: 0x10001A46C, symSize: 0x38 }
  - { offsetInCU: 0x58B25, offset: 0x65D2E, size: 0x8, addend: 0x0, symName: __ZNSt3__114__rewrap_rangeB8ue170006INS_16reverse_iteratorIPN4CGAL7Point_3INS2_16Simple_cartesianIdEEEEEES8_EET_S9_T0_, symObjAddr: 0x12BE4, symBinAddr: 0x10001A4A4, symSize: 0x5C }
  - { offsetInCU: 0x58B77, offset: 0x65D80, size: 0x8, addend: 0x0, symName: __ZNSt3__113__rewrap_iterB8ue170006INS_16reverse_iteratorIPN4CGAL7Point_3INS2_16Simple_cartesianIdEEEEEES8_NS_18__unwrap_iter_implIS8_Lb0EEEEET_SB_T0_, symObjAddr: 0x12C40, symBinAddr: 0x10001A500, symSize: 0x74 }
  - { offsetInCU: 0x58BD2, offset: 0x65DDB, size: 0x8, addend: 0x0, symName: __ZNSt3__1neB8ue170006IPN4CGAL7Point_3INS1_16Simple_cartesianIdEEEES6_EEbRKNS_16reverse_iteratorIT_EERKNS7_IT0_EE, symObjAddr: 0x12CB4, symBinAddr: 0x10001A574, symSize: 0x48 }
  - { offsetInCU: 0x58F3B, offset: 0x66144, size: 0x8, addend: 0x0, symName: __ZNSt3__112__to_addressB8ue170006INS_6vectorImNS_9allocatorImEEEEEEPT_S6_, symObjAddr: 0x13344, symBinAddr: 0x10001AC04, symSize: 0x14 }
  - { offsetInCU: 0x58F70, offset: 0x66179, size: 0x8, addend: 0x0, symName: __ZNSt3__119__allocate_at_leastB8ue170006INS_9allocatorINS_6vectorImNS1_ImEEEEEEEENS_19__allocation_resultINS_16allocator_traitsIT_E7pointerEEERS8_m, symObjAddr: 0x13AD4, symBinAddr: 0x10001B394, symSize: 0x40 }
  - { offsetInCU: 0x58FB9, offset: 0x661C2, size: 0x8, addend: 0x0, symName: __ZNSt3__142__uninitialized_allocator_move_if_noexceptB8ue170006INS_9allocatorINS_6vectorImNS1_ImEEEEEENS_16reverse_iteratorIPS4_EES8_S8_EET2_RT_T0_T1_S9_, symObjAddr: 0x13D60, symBinAddr: 0x10001B620, symSize: 0x12C }
  - { offsetInCU: 0x59059, offset: 0x66262, size: 0x8, addend: 0x0, symName: __ZNSt3__14swapB8ue170006IPNS_6vectorImNS_9allocatorImEEEEEENS_9enable_ifIXaasr21is_move_constructibleIT_EE5valuesr18is_move_assignableIS7_EE5valueEvE4typeERS7_SA_, symObjAddr: 0x13ED8, symBinAddr: 0x10001B798, symSize: 0x3C }
  - { offsetInCU: 0x590B2, offset: 0x662BB, size: 0x8, addend: 0x0, symName: __ZNSt3__122__make_exception_guardB8ue170006INS_29_AllocatorDestroyRangeReverseINS_9allocatorINS_6vectorImNS2_ImEEEEEENS_16reverse_iteratorIPS5_EEEEEENS_28__exception_guard_exceptionsIT_EESC_, symObjAddr: 0x14024, symBinAddr: 0x10001B8E4, symSize: 0x4C }
  - { offsetInCU: 0x590E8, offset: 0x662F1, size: 0x8, addend: 0x0, symName: __ZNSt3__1neB8ue170006IPNS_6vectorImNS_9allocatorImEEEES5_EEbRKNS_16reverse_iteratorIT_EERKNS6_IT0_EE, symObjAddr: 0x140B4, symBinAddr: 0x10001B974, symSize: 0x48 }
  - { offsetInCU: 0x59134, offset: 0x6633D, size: 0x8, addend: 0x0, symName: __ZNSt3__112__to_addressB8ue170006INS_16reverse_iteratorIPNS_6vectorImNS_9allocatorImEEEEEEvEEu7__decayIDTclsr19__to_address_helperIT_EE6__callclsr3stdE7declvalIRKS8_EEEEESA_, symObjAddr: 0x14130, symBinAddr: 0x10001B9F0, symSize: 0x24 }
  - { offsetInCU: 0x59193, offset: 0x6639C, size: 0x8, addend: 0x0, symName: __ZNSt3__119__allocator_destroyB8ue170006INS_9allocatorINS_6vectorImNS1_ImEEEEEENS_16reverse_iteratorINS6_IPS4_EEEES9_EEvRT_T0_T1_, symObjAddr: 0x14660, symBinAddr: 0x10001BF20, symSize: 0x70 }
  - { offsetInCU: 0x591F8, offset: 0x66401, size: 0x8, addend: 0x0, symName: __ZNSt3__1neB8ue170006INS_16reverse_iteratorIPNS_6vectorImNS_9allocatorImEEEEEES7_EEbRKNS1_IT_EERKNS1_IT0_EE, symObjAddr: 0x1470C, symBinAddr: 0x10001BFCC, symSize: 0x60 }
  - { offsetInCU: 0x59244, offset: 0x6644D, size: 0x8, addend: 0x0, symName: __ZNSt3__112__to_addressB8ue170006INS_16reverse_iteratorINS1_IPNS_6vectorImNS_9allocatorImEEEEEEEEvEEu7__decayIDTclsr19__to_address_helperIT_EE6__callclsr3stdE7declvalIRKS9_EEEEESB_, symObjAddr: 0x14798, symBinAddr: 0x10001C058, symSize: 0x24 }
  - { offsetInCU: 0x5927A, offset: 0x66483, size: 0x8, addend: 0x0, symName: __ZNSt3__112__to_addressB8ue170006ImEEPT_S2_, symObjAddr: 0x14B98, symBinAddr: 0x10001C458, symSize: 0x14 }
  - { offsetInCU: 0x592D8, offset: 0x664E1, size: 0x8, addend: 0x0, symName: __ZNSt3__119__allocate_at_leastB8ue170006INS_9allocatorImEEEENS_19__allocation_resultINS_16allocator_traitsIT_E7pointerEEERS5_m, symObjAddr: 0x158E0, symBinAddr: 0x10001D1A0, symSize: 0x40 }
  - { offsetInCU: 0x59321, offset: 0x6652A, size: 0x8, addend: 0x0, symName: __ZNSt3__142__uninitialized_allocator_move_if_noexceptB8ue170006INS_9allocatorImEENS_16reverse_iteratorIPmEES5_mvEET1_RT_T0_S9_S6_, symObjAddr: 0x15B60, symBinAddr: 0x10001D420, symSize: 0x78 }
  - { offsetInCU: 0x5939E, offset: 0x665A7, size: 0x8, addend: 0x0, symName: __ZNSt3__14swapB8ue170006IPmEENS_9enable_ifIXaasr21is_move_constructibleIT_EE5valuesr18is_move_assignableIS3_EE5valueEvE4typeERS3_S6_, symObjAddr: 0x15C24, symBinAddr: 0x10001D4E4, symSize: 0x3C }
  - { offsetInCU: 0x593F7, offset: 0x66600, size: 0x8, addend: 0x0, symName: __ZNSt3__14moveB8ue170006INS_16reverse_iteratorIPmEES3_EET0_T_S5_S4_, symObjAddr: 0x15D0C, symBinAddr: 0x10001D5CC, symSize: 0x78 }
  - { offsetInCU: 0x59459, offset: 0x66662, size: 0x8, addend: 0x0, symName: __ZNSt3__16__moveB8ue170006INS_17_ClassicAlgPolicyENS_16reverse_iteratorIPmEES4_S4_EENS_4pairIT0_T2_EES6_T1_S7_, symObjAddr: 0x15D84, symBinAddr: 0x10001D644, symSize: 0x64 }
  - { offsetInCU: 0x594CD, offset: 0x666D6, size: 0x8, addend: 0x0, symName: __ZNSt3__123__dispatch_copy_or_moveB8ue170006INS_17_ClassicAlgPolicyENS_11__move_loopIS1_EENS_14__move_trivialENS_16reverse_iteratorIPmEES7_S7_EENS_4pairIT2_T4_EES9_T3_SA_, symObjAddr: 0x15DE8, symBinAddr: 0x10001D6A8, symSize: 0x64 }
  - { offsetInCU: 0x59553, offset: 0x6675C, size: 0x8, addend: 0x0, symName: __ZNSt3__121__unwrap_and_dispatchB8ue170006INS_10__overloadINS_11__move_loopINS_17_ClassicAlgPolicyEEENS_14__move_trivialEEENS_16reverse_iteratorIPmEES9_S9_Li0EEENS_4pairIT0_T2_EESB_T1_SC_, symObjAddr: 0x15E4C, symBinAddr: 0x10001D70C, symSize: 0x12C }
  - { offsetInCU: 0x595EF, offset: 0x667F8, size: 0x8, addend: 0x0, symName: __ZNSt3__114__unwrap_rangeB8ue170006INS_16reverse_iteratorIPmEES3_EENS_4pairIT0_S5_EET_S7_, symObjAddr: 0x15F78, symBinAddr: 0x10001D838, symSize: 0x84 }
  - { offsetInCU: 0x59715, offset: 0x6691E, size: 0x8, addend: 0x0, symName: __ZNSt3__113__unwrap_iterB8ue170006INS_16reverse_iteratorIPmEENS_18__unwrap_iter_implIS3_Lb0EEELi0EEEDTclsrT0_8__unwrapclsr3stdE7declvalIT_EEEES7_, symObjAddr: 0x1609C, symBinAddr: 0x10001D95C, symSize: 0x44 }
  - { offsetInCU: 0x5975D, offset: 0x66966, size: 0x8, addend: 0x0, symName: __ZNSt3__19make_pairB8ue170006INS_16reverse_iteratorIPmEES3_EENS_4pairINS_18__unwrap_ref_decayIT_E4typeENS5_IT0_E4typeEEEOS6_OS9_, symObjAddr: 0x160E0, symBinAddr: 0x10001D9A0, symSize: 0x38 }
  - { offsetInCU: 0x597AC, offset: 0x669B5, size: 0x8, addend: 0x0, symName: __ZNSt3__114__rewrap_rangeB8ue170006INS_16reverse_iteratorIPmEES3_EET_S4_T0_, symObjAddr: 0x16118, symBinAddr: 0x10001D9D8, symSize: 0x5C }
  - { offsetInCU: 0x597FE, offset: 0x66A07, size: 0x8, addend: 0x0, symName: __ZNSt3__113__rewrap_iterB8ue170006INS_16reverse_iteratorIPmEES3_NS_18__unwrap_iter_implIS3_Lb0EEEEET_S6_T0_, symObjAddr: 0x16174, symBinAddr: 0x10001DA34, symSize: 0x74 }
  - { offsetInCU: 0x59859, offset: 0x66A62, size: 0x8, addend: 0x0, symName: __ZNSt3__1neB8ue170006IPmS1_EEbRKNS_16reverse_iteratorIT_EERKNS2_IT0_EE, symObjAddr: 0x161E8, symBinAddr: 0x10001DAA8, symSize: 0x48 }
  - { offsetInCU: 0x5991B, offset: 0x66B24, size: 0x8, addend: 0x0, symName: __ZNSt3__18exchangeB8ue170006IPN4CGAL10Properties14Property_arrayINS1_7Point_3INS1_16Simple_cartesianIdEEEEEEDnEET_RSA_OT0_, symObjAddr: 0x16D0C, symBinAddr: 0x10001E5CC, symSize: 0x2C }
  - { offsetInCU: 0x5997D, offset: 0x66B86, size: 0x8, addend: 0x0, symName: __ZNSt3__122__make_exception_guardB8ue170006INS_6vectorIN4CGAL15SM_Vertex_indexENS_9allocatorIS3_EEE16__destroy_vectorEEENS_28__exception_guard_exceptionsIT_EES9_, symObjAddr: 0x172C8, symBinAddr: 0x10001EB88, symSize: 0x40 }
  - { offsetInCU: 0x599B2, offset: 0x66BBB, size: 0x8, addend: 0x0, symName: __ZNSt3__119__allocate_at_leastB8ue170006INS_9allocatorIN4CGAL15SM_Vertex_indexEEEEENS_19__allocation_resultINS_16allocator_traitsIT_E7pointerEEERS7_m, symObjAddr: 0x176B4, symBinAddr: 0x10001EF74, symSize: 0x40 }
  - { offsetInCU: 0x599FB, offset: 0x66C04, size: 0x8, addend: 0x0, symName: __ZNSt3__112__to_addressB8ue170006IN4CGAL15SM_Vertex_indexEEEPT_S4_, symObjAddr: 0x179D8, symBinAddr: 0x10001F298, symSize: 0x14 }
  - { offsetInCU: 0x59A30, offset: 0x66C39, size: 0x8, addend: 0x0, symName: __ZNSt3__1neB8ue170006IPKN4CGAL15SM_Vertex_indexEEEbRKNS_11__wrap_iterIT_EES9_, symObjAddr: 0x187E0, symBinAddr: 0x1000200A0, symSize: 0x34 }
  - { offsetInCU: 0x59A73, offset: 0x66C7C, size: 0x8, addend: 0x0, symName: __ZNSt3__14sortB8ue170006INS_11__wrap_iterIPN4CGAL15SM_Vertex_indexEEEEEvT_S6_, symObjAddr: 0x18B3C, symBinAddr: 0x1000203FC, symSize: 0x3C }
  - { offsetInCU: 0x59AB5, offset: 0x66CBE, size: 0x8, addend: 0x0, symName: __ZNSt3__1neB8ue170006IPN4CGAL15SM_Vertex_indexEEEbRKNS_11__wrap_iterIT_EES8_, symObjAddr: 0x18BD8, symBinAddr: 0x100020498, symSize: 0x34 }
  - { offsetInCU: 0x59AF8, offset: 0x66D01, size: 0x8, addend: 0x0, symName: __ZNSt3__113adjacent_findB8ue170006INS_11__wrap_iterIPN4CGAL15SM_Vertex_indexEEEEET_S6_S6_, symObjAddr: 0x18C0C, symBinAddr: 0x1000204CC, symSize: 0x44 }
  - { offsetInCU: 0x59B41, offset: 0x66D4A, size: 0x8, addend: 0x0, symName: __ZNSt3__14copyB8ue170006INS_11__wrap_iterIPKN4CGAL15SM_Vertex_indexEEENS1_IPS3_EEEET0_T_SA_S9_, symObjAddr: 0x18C50, symBinAddr: 0x100020510, symSize: 0x60 }
  - { offsetInCU: 0x59BA3, offset: 0x66DAC, size: 0x8, addend: 0x0, symName: __ZNSt3__1eqB8ue170006IPKN4CGAL15SM_Vertex_indexEEEbRKNS_11__wrap_iterIT_EES9_, symObjAddr: 0x19A24, symBinAddr: 0x1000212E4, symSize: 0x48 }
  - { offsetInCU: 0x59BE6, offset: 0x66DEF, size: 0x8, addend: 0x0, symName: __ZNSt3__18distanceB8ue170006INS_11__wrap_iterIPKN4CGAL15SM_Vertex_indexEEEEENS_15iterator_traitsIT_E15difference_typeES8_S8_, symObjAddr: 0x1AA04, symBinAddr: 0x1000222C4, symSize: 0x3C }
  - { offsetInCU: 0x59C2F, offset: 0x66E38, size: 0x8, addend: 0x0, symName: __ZNSt3__110__distanceB8ue170006INS_11__wrap_iterIPKN4CGAL15SM_Vertex_indexEEEEENS_15iterator_traitsIT_E15difference_typeES8_S8_NS_26random_access_iterator_tagE, symObjAddr: 0x1AB08, symBinAddr: 0x1000223C8, symSize: 0x30 }
  - { offsetInCU: 0x59C84, offset: 0x66E8D, size: 0x8, addend: 0x0, symName: __ZNSt3__1miB8ue170006IPKN4CGAL15SM_Vertex_indexES4_EEDTmicldtfp_4baseEcldtfp0_4baseEERKNS_11__wrap_iterIT_EERKNS6_IT0_EE, symObjAddr: 0x1AB38, symBinAddr: 0x1000223F8, symSize: 0x48 }
  - { offsetInCU: 0x59CD0, offset: 0x66ED9, size: 0x8, addend: 0x0, symName: __ZNSt3__130__uninitialized_allocator_copyB8ue170006INS_9allocatorIN4CGAL15SM_Vertex_indexEEENS_11__wrap_iterIPKS3_EES8_PS3_EET2_RT_T0_T1_SA_, symObjAddr: 0x1AC1C, symBinAddr: 0x1000224DC, symSize: 0x90 }
  - { offsetInCU: 0x59D6D, offset: 0x66F76, size: 0x8, addend: 0x0, symName: __ZNSt3__114__unwrap_rangeB8ue170006INS_11__wrap_iterIPKN4CGAL15SM_Vertex_indexEEES5_EENS_4pairIT0_S8_EET_SA_, symObjAddr: 0x1ACAC, symBinAddr: 0x10002256C, symSize: 0x70 }
  - { offsetInCU: 0x59DBF, offset: 0x66FC8, size: 0x8, addend: 0x0, symName: __ZNSt3__135__uninitialized_allocator_copy_implB8ue170006INS_9allocatorIN4CGAL15SM_Vertex_indexEEEKS3_S3_S3_LPv0EEEPT2_RT_PT0_SC_S8_, symObjAddr: 0x1AD1C, symBinAddr: 0x1000225DC, symSize: 0x38 }
  - { offsetInCU: 0x59E40, offset: 0x67049, size: 0x8, addend: 0x0, symName: __ZNSt3__113__unwrap_iterB8ue170006IPN4CGAL15SM_Vertex_indexENS_18__unwrap_iter_implIS3_Lb1EEELi0EEEDTclsrT0_8__unwrapclsr3stdE7declvalIT_EEEES7_, symObjAddr: 0x1AD54, symBinAddr: 0x100022614, symSize: 0x24 }
  - { offsetInCU: 0x59E88, offset: 0x67091, size: 0x8, addend: 0x0, symName: __ZNSt3__113__rewrap_iterB8ue170006IPN4CGAL15SM_Vertex_indexES3_NS_18__unwrap_iter_implIS3_Lb1EEEEET_S6_T0_, symObjAddr: 0x1AD78, symBinAddr: 0x100022638, symSize: 0x3C }
  - { offsetInCU: 0x59EE3, offset: 0x670EC, size: 0x8, addend: 0x0, symName: __ZNSt3__19make_pairB8ue170006IPKN4CGAL15SM_Vertex_indexES4_EENS_4pairINS_18__unwrap_ref_decayIT_E4typeENS6_IT0_E4typeEEEOS7_OSA_, symObjAddr: 0x1ADB4, symBinAddr: 0x100022674, symSize: 0x38 }
  - { offsetInCU: 0x59F32, offset: 0x6713B, size: 0x8, addend: 0x0, symName: __ZNSt3__113__unwrap_iterB8ue170006INS_11__wrap_iterIPKN4CGAL15SM_Vertex_indexEEENS_18__unwrap_iter_implIS6_Lb1EEELi0EEEDTclsrT0_8__unwrapclsr3stdE7declvalIT_EEEESA_, symObjAddr: 0x1ADEC, symBinAddr: 0x1000226AC, symSize: 0x2C }
  - { offsetInCU: 0x5A0A9, offset: 0x672B2, size: 0x8, addend: 0x0, symName: __ZNSt3__112__to_addressB8ue170006INS_11__wrap_iterIPKN4CGAL15SM_Vertex_indexEEEvEEu7__decayIDTclsr19__to_address_helperIT_EE6__callclsr3stdE7declvalIRKS7_EEEEES9_, symObjAddr: 0x1AEB0, symBinAddr: 0x100022770, symSize: 0x24 }
  - { offsetInCU: 0x5A184, offset: 0x6738D, size: 0x8, addend: 0x0, symName: __ZNSt3__112__to_addressB8ue170006IKN4CGAL15SM_Vertex_indexEEEPT_S5_, symObjAddr: 0x1AF30, symBinAddr: 0x1000227F0, symSize: 0x14 }
  - { offsetInCU: 0x5A1B9, offset: 0x673C2, size: 0x8, addend: 0x0, symName: __ZNSt3__14copyB8ue170006IPKN4CGAL15SM_Vertex_indexEPS2_EET0_T_S7_S6_, symObjAddr: 0x1AF44, symBinAddr: 0x100022804, symSize: 0x40 }
  - { offsetInCU: 0x5A21B, offset: 0x67424, size: 0x8, addend: 0x0, symName: __ZNSt3__16__copyB8ue170006INS_17_ClassicAlgPolicyEPKN4CGAL15SM_Vertex_indexES5_PS3_EENS_4pairIT0_T2_EES8_T1_S9_, symObjAddr: 0x1AF84, symBinAddr: 0x100022844, symSize: 0x44 }
  - { offsetInCU: 0x5A28F, offset: 0x67498, size: 0x8, addend: 0x0, symName: __ZNSt3__123__dispatch_copy_or_moveB8ue170006INS_17_ClassicAlgPolicyENS_11__copy_loopIS1_EENS_14__copy_trivialEPKN4CGAL15SM_Vertex_indexES8_PS6_EENS_4pairIT2_T4_EESB_T3_SC_, symObjAddr: 0x1AFC8, symBinAddr: 0x100022888, symSize: 0x44 }
  - { offsetInCU: 0x5A315, offset: 0x6751E, size: 0x8, addend: 0x0, symName: __ZNSt3__121__unwrap_and_dispatchB8ue170006INS_10__overloadINS_11__copy_loopINS_17_ClassicAlgPolicyEEENS_14__copy_trivialEEEPKN4CGAL15SM_Vertex_indexESA_PS8_Li0EEENS_4pairIT0_T2_EESD_T1_SE_, symObjAddr: 0x1B00C, symBinAddr: 0x1000228CC, symSize: 0xB4 }
  - { offsetInCU: 0x5A3AF, offset: 0x675B8, size: 0x8, addend: 0x0, symName: __ZNSt3__114__unwrap_rangeB8ue170006IPKN4CGAL15SM_Vertex_indexES4_EENS_4pairIT0_S6_EET_S8_, symObjAddr: 0x1B0C0, symBinAddr: 0x100022980, symSize: 0x60 }
  - { offsetInCU: 0x5A504, offset: 0x6770D, size: 0x8, addend: 0x0, symName: __ZNSt3__19make_pairB8ue170006IPKN4CGAL15SM_Vertex_indexEPS2_EENS_4pairINS_18__unwrap_ref_decayIT_E4typeENS7_IT0_E4typeEEEOS8_OSB_, symObjAddr: 0x1B168, symBinAddr: 0x100022A28, symSize: 0x38 }
  - { offsetInCU: 0x5A553, offset: 0x6775C, size: 0x8, addend: 0x0, symName: __ZNSt3__114__rewrap_rangeB8ue170006IPKN4CGAL15SM_Vertex_indexES4_EET_S5_T0_, symObjAddr: 0x1B1A0, symBinAddr: 0x100022A60, symSize: 0x2C }
  - { offsetInCU: 0x5A5A5, offset: 0x677AE, size: 0x8, addend: 0x0, symName: __ZNSt3__113__unwrap_iterB8ue170006IPKN4CGAL15SM_Vertex_indexENS_18__unwrap_iter_implIS4_Lb1EEELi0EEEDTclsrT0_8__unwrapclsr3stdE7declvalIT_EEEES8_, symObjAddr: 0x1B1CC, symBinAddr: 0x100022A8C, symSize: 0x24 }
  - { offsetInCU: 0x5A648, offset: 0x67851, size: 0x8, addend: 0x0, symName: __ZNSt3__119__copy_trivial_implB8ue170006IKN4CGAL15SM_Vertex_indexES2_EENS_4pairIPT_PT0_EES6_S6_S8_, symObjAddr: 0x1B214, symBinAddr: 0x100022AD4, symSize: 0x80 }
  - { offsetInCU: 0x5A6BA, offset: 0x678C3, size: 0x8, addend: 0x0, symName: __ZNSt3__119__constexpr_memmoveB8ue170006IN4CGAL15SM_Vertex_indexEKS2_Li0EEEPT_S5_PT0_NS_15__element_countE, symObjAddr: 0x1B294, symBinAddr: 0x100022B54, symSize: 0x64 }
  - { offsetInCU: 0x5A728, offset: 0x67931, size: 0x8, addend: 0x0, symName: __ZNSt3__19make_pairB8ue170006IRPKN4CGAL15SM_Vertex_indexEPS2_EENS_4pairINS_18__unwrap_ref_decayIT_E4typeENS8_IT0_E4typeEEEOS9_OSC_, symObjAddr: 0x1B2F8, symBinAddr: 0x100022BB8, symSize: 0x38 }
  - { offsetInCU: 0x5A777, offset: 0x67980, size: 0x8, addend: 0x0, symName: __ZNSt3__113__rewrap_iterB8ue170006IPKN4CGAL15SM_Vertex_indexES4_NS_18__unwrap_iter_implIS4_Lb1EEEEET_S7_T0_, symObjAddr: 0x1B410, symBinAddr: 0x100022CD0, symSize: 0x3C }
  - { offsetInCU: 0x5A82D, offset: 0x67A36, size: 0x8, addend: 0x0, symName: __ZNSt3__14sortB8ue170006INS_11__wrap_iterIPN4CGAL15SM_Vertex_indexEEENS_6__lessIvvEEEEvT_S8_T0_, symObjAddr: 0x1B510, symBinAddr: 0x100022DD0, symSize: 0x40 }
  - { offsetInCU: 0x5A887, offset: 0x67A90, size: 0x8, addend: 0x0, symName: __ZNSt3__111__sort_implB8ue170006INS_17_ClassicAlgPolicyENS_11__wrap_iterIPN4CGAL15SM_Vertex_indexEEENS_6__lessIvvEEEEvT0_S9_RT1_, symObjAddr: 0x1B550, symBinAddr: 0x100022E10, symSize: 0xA8 }
  - { offsetInCU: 0x5A8EB, offset: 0x67AF4, size: 0x8, addend: 0x0, symName: __ZNSt3__123__debug_randomize_rangeB8ue170006INS_17_ClassicAlgPolicyENS_11__wrap_iterIPN4CGAL15SM_Vertex_indexEEES6_EEvT0_T1_, symObjAddr: 0x1B5F8, symBinAddr: 0x100022EB8, symSize: 0x14 }
  - { offsetInCU: 0x5A941, offset: 0x67B4A, size: 0x8, addend: 0x0, symName: __ZNSt3__115__sort_dispatchB8ue170006INS_17_ClassicAlgPolicyEPN4CGAL15SM_Vertex_indexENS_6__lessIvvEEEEvT0_S7_RT1_, symObjAddr: 0x1B60C, symBinAddr: 0x100022ECC, symSize: 0x64 }
  - { offsetInCU: 0x5A9BF, offset: 0x67BC8, size: 0x8, addend: 0x0, symName: __ZNSt3__113__unwrap_iterB8ue170006INS_11__wrap_iterIPN4CGAL15SM_Vertex_indexEEENS_18__unwrap_iter_implIS5_Lb1EEELi0EEEDTclsrT0_8__unwrapclsr3stdE7declvalIT_EEEES9_, symObjAddr: 0x1B670, symBinAddr: 0x100022F30, symSize: 0x2C }
  - { offsetInCU: 0x5AA08, offset: 0x67C11, size: 0x8, addend: 0x0, symName: __ZNSt3__135__check_strict_weak_ordering_sortedB8ue170006IPN4CGAL15SM_Vertex_indexENS_6__lessIvvEEEEvT_S6_RT0_, symObjAddr: 0x1B69C, symBinAddr: 0x100022F5C, symSize: 0x18 }
  - { offsetInCU: 0x5AA65, offset: 0x67C6E, size: 0x8, addend: 0x0, symName: __ZNSt3__17__log2iB8ue170006IlEET_S1_, symObjAddr: 0x1B6B4, symBinAddr: 0x100022F74, symSize: 0x54 }
  - { offsetInCU: 0x5AA9C, offset: 0x67CA5, size: 0x8, addend: 0x0, symName: __ZNSt3__124__sort3_maybe_branchlessB8ue170006INS_17_ClassicAlgPolicyERNS_6__lessIvvEEPN4CGAL15SM_Vertex_indexEEENS_9enable_ifIXntsr21__use_branchless_sortIT0_T1_EE5valueEvE4typeESA_SA_SA_S9_, symObjAddr: 0x1BBD8, symBinAddr: 0x10002347C, symSize: 0x3C }
  - { offsetInCU: 0x5AB0D, offset: 0x67D16, size: 0x8, addend: 0x0, symName: __ZNSt3__124__sort4_maybe_branchlessB8ue170006INS_17_ClassicAlgPolicyERNS_6__lessIvvEEPN4CGAL15SM_Vertex_indexEEENS_9enable_ifIXntsr21__use_branchless_sortIT0_T1_EE5valueEvE4typeESA_SA_SA_SA_S9_, symObjAddr: 0x1BC14, symBinAddr: 0x1000234B8, symSize: 0x44 }
  - { offsetInCU: 0x5AB8C, offset: 0x67D95, size: 0x8, addend: 0x0, symName: __ZNSt3__124__sort5_maybe_branchlessB8ue170006INS_17_ClassicAlgPolicyERNS_6__lessIvvEEPN4CGAL15SM_Vertex_indexEEENS_9enable_ifIXntsr21__use_branchless_sortIT0_T1_EE5valueEvE4typeESA_SA_SA_SA_SA_S9_, symObjAddr: 0x1BC58, symBinAddr: 0x1000234FC, symSize: 0x4C }
  - { offsetInCU: 0x5AC1A, offset: 0x67E23, size: 0x8, addend: 0x0, symName: __ZNSt3__116__insertion_sortB8ue170006INS_17_ClassicAlgPolicyERNS_6__lessIvvEEPN4CGAL15SM_Vertex_indexEEEvT1_S8_T0_, symObjAddr: 0x1BCA4, symBinAddr: 0x100023548, symSize: 0x150 }
  - { offsetInCU: 0x5ACDC, offset: 0x67EE5, size: 0x8, addend: 0x0, symName: __ZNSt3__114__partial_sortB8ue170006INS_17_ClassicAlgPolicyERNS_6__lessIvvEEPN4CGAL15SM_Vertex_indexES7_EET1_S8_S8_T2_RT0_, symObjAddr: 0x1BF14, symBinAddr: 0x1000237B8, symSize: 0x94 }
  - { offsetInCU: 0x5AD70, offset: 0x67F79, size: 0x8, addend: 0x0, symName: __ZNSt3__17__sort3B8ue170006INS_17_ClassicAlgPolicyERNS_6__lessIvvEEPN4CGAL15SM_Vertex_indexEEEjT1_S8_S8_T0_, symObjAddr: 0x1BFA8, symBinAddr: 0x10002384C, symSize: 0x144 }
  - { offsetInCU: 0x5ADEF, offset: 0x67FF8, size: 0x8, addend: 0x0, symName: __ZNSt3__19iter_swapB8ue170006IPN4CGAL15SM_Vertex_indexES3_EEvT_T0_, symObjAddr: 0x1CBB8, symBinAddr: 0x10002445C, symSize: 0x2C }
  - { offsetInCU: 0x5AE3D, offset: 0x68046, size: 0x8, addend: 0x0, symName: __ZNSt3__14swapB8ue170006IN4CGAL15SM_Vertex_indexEEENS_9enable_ifIXaasr21is_move_constructibleIT_EE5valuesr18is_move_assignableIS4_EE5valueEvE4typeERS4_S7_, symObjAddr: 0x1CBE4, symBinAddr: 0x100024488, symSize: 0x3C }
  - { offsetInCU: 0x5AE97, offset: 0x680A0, size: 0x8, addend: 0x0, symName: __ZNSt3__17__sort4B8ue170006INS_17_ClassicAlgPolicyERNS_6__lessIvvEEPN4CGAL15SM_Vertex_indexEEEvT1_S8_S8_S8_T0_, symObjAddr: 0x1CC20, symBinAddr: 0x1000244C4, symSize: 0xB8 }
  - { offsetInCU: 0x5AF12, offset: 0x6811B, size: 0x8, addend: 0x0, symName: __ZNSt3__17__sort5B8ue170006INS_17_ClassicAlgPolicyERNS_6__lessIvvEEPN4CGAL15SM_Vertex_indexEEEvT1_S8_S8_S8_S8_T0_, symObjAddr: 0x1CCD8, symBinAddr: 0x10002457C, symSize: 0xE8 }
  - { offsetInCU: 0x5AFC3, offset: 0x681CC, size: 0x8, addend: 0x0, symName: __ZNSt3__123__debug_randomize_rangeB8ue170006INS_17_ClassicAlgPolicyEPN4CGAL15SM_Vertex_indexES4_EEvT0_T1_, symObjAddr: 0x1CE04, symBinAddr: 0x1000246A8, symSize: 0x14 }
  - { offsetInCU: 0x5B019, offset: 0x68222, size: 0x8, addend: 0x0, symName: __ZNSt3__119__partial_sort_implB8ue170006INS_17_ClassicAlgPolicyERNS_6__lessIvvEEPN4CGAL15SM_Vertex_indexES7_EET1_S8_S8_T2_OT0_, symObjAddr: 0x1CE18, symBinAddr: 0x1000246BC, symSize: 0x110 }
  - { offsetInCU: 0x5B0BD, offset: 0x682C6, size: 0x8, addend: 0x0, symName: __ZNSt3__111__make_heapB8ue170006INS_17_ClassicAlgPolicyERNS_6__lessIvvEEPN4CGAL15SM_Vertex_indexEEEvT1_S8_OT0_, symObjAddr: 0x1CF28, symBinAddr: 0x1000247CC, symSize: 0xB8 }
  - { offsetInCU: 0x5B16F, offset: 0x68378, size: 0x8, addend: 0x0, symName: __ZNSt3__111__sort_heapB8ue170006INS_17_ClassicAlgPolicyERNS_6__lessIvvEEPN4CGAL15SM_Vertex_indexEEEvT1_S8_OT0_, symObjAddr: 0x1D1EC, symBinAddr: 0x100024A90, symSize: 0xA8 }
  - { offsetInCU: 0x5B221, offset: 0x6842A, size: 0x8, addend: 0x0, symName: __ZNSt3__110__pop_heapB8ue170006INS_17_ClassicAlgPolicyENS_6__lessIvvEEPN4CGAL15SM_Vertex_indexEEEvT1_S7_RT0_NS_15iterator_traitsIS7_E15difference_typeE, symObjAddr: 0x1D294, symBinAddr: 0x100024B38, symSize: 0xF4 }
  - { offsetInCU: 0x5B2E3, offset: 0x684EC, size: 0x8, addend: 0x0, symName: __ZNSt3__19__sift_upB8ue170006INS_17_ClassicAlgPolicyERNS_6__lessIvvEEPN4CGAL15SM_Vertex_indexEEEvT1_S8_OT0_NS_15iterator_traitsIS8_E15difference_typeE, symObjAddr: 0x1D488, symBinAddr: 0x100024D2C, symSize: 0x11C }
  - { offsetInCU: 0x5B3A3, offset: 0x685AC, size: 0x8, addend: 0x0, symName: __ZNSt3__122__populate_left_bitsetB8ue170006IRNS_6__lessIvvEEPN4CGAL15SM_Vertex_indexES5_EEvT0_T_RT1_Ry, symObjAddr: 0x1D5A4, symBinAddr: 0x100024E48, symSize: 0xA8 }
  - { offsetInCU: 0x5B45E, offset: 0x68667, size: 0x8, addend: 0x0, symName: __ZNSt3__123__populate_right_bitsetB8ue170006IRNS_6__lessIvvEEPN4CGAL15SM_Vertex_indexES5_EEvT0_T_RT1_Ry, symObjAddr: 0x1D64C, symBinAddr: 0x100024EF0, symSize: 0xA0 }
  - { offsetInCU: 0x5B519, offset: 0x68722, size: 0x8, addend: 0x0, symName: __ZNSt3__117__swap_bitmap_posB8ue170006INS_17_ClassicAlgPolicyEPN4CGAL15SM_Vertex_indexEEEvT0_S5_RyS6_, symObjAddr: 0x1D6EC, symBinAddr: 0x100024F90, symSize: 0x100 }
  - { offsetInCU: 0x5B5BA, offset: 0x687C3, size: 0x8, addend: 0x0, symName: __ZNSt3__133__bitset_partition_partial_blocksB8ue170006INS_17_ClassicAlgPolicyERNS_6__lessIvvEEPN4CGAL15SM_Vertex_indexES6_EEvRT1_S9_T0_RT2_RySD_, symObjAddr: 0x1D7EC, symBinAddr: 0x100025090, symSize: 0x2E8 }
  - { offsetInCU: 0x5B73B, offset: 0x68944, size: 0x8, addend: 0x0, symName: __ZNSt3__19make_pairB8ue170006IRPN4CGAL15SM_Vertex_indexERbEENS_4pairINS_18__unwrap_ref_decayIT_E4typeENS7_IT0_E4typeEEEOS8_OSB_, symObjAddr: 0x1DCB4, symBinAddr: 0x100025558, symSize: 0x38 }
  - { offsetInCU: 0x5B78A, offset: 0x68993, size: 0x8, addend: 0x0, symName: __ZNSt3__112__libcpp_ctzB8ue170006Ey, symObjAddr: 0x1DCEC, symBinAddr: 0x100025590, symSize: 0x20 }
  - { offsetInCU: 0x5B7BA, offset: 0x689C3, size: 0x8, addend: 0x0, symName: __ZNSt3__113__libcpp_blsrB8ue170006Ey, symObjAddr: 0x1DD0C, symBinAddr: 0x1000255B0, symSize: 0x2C }
  - { offsetInCU: 0x5B7EA, offset: 0x689F3, size: 0x8, addend: 0x0, symName: __ZNSt3__112__libcpp_clzB8ue170006Ey, symObjAddr: 0x1DD6C, symBinAddr: 0x100025610, symSize: 0x1C }
  - { offsetInCU: 0x5B949, offset: 0x68B52, size: 0x8, addend: 0x0, symName: __ZNSt3__112__to_addressB8ue170006INS_11__wrap_iterIPN4CGAL15SM_Vertex_indexEEEvEEu7__decayIDTclsr19__to_address_helperIT_EE6__callclsr3stdE7declvalIRKS6_EEEEES8_, symObjAddr: 0x1DE24, symBinAddr: 0x1000256C8, symSize: 0x24 }
  - { offsetInCU: 0x5BA24, offset: 0x68C2D, size: 0x8, addend: 0x0, symName: __ZNSt3__1eqB8ue170006IPN4CGAL15SM_Vertex_indexEEEbRKNS_11__wrap_iterIT_EES8_, symObjAddr: 0x1DF40, symBinAddr: 0x1000257E4, symSize: 0x48 }
  - { offsetInCU: 0x5BA67, offset: 0x68C70, size: 0x8, addend: 0x0, symName: __ZNSt3__113adjacent_findB8ue170006INS_11__wrap_iterIPN4CGAL15SM_Vertex_indexEEENS_10__equal_toEEET_S7_S7_T0_, symObjAddr: 0x1DF88, symBinAddr: 0x10002582C, symSize: 0x48 }
  - { offsetInCU: 0x5BAC9, offset: 0x68CD2, size: 0x8, addend: 0x0, symName: __ZNSt3__115__adjacent_findB8ue170006INS_11__wrap_iterIPN4CGAL15SM_Vertex_indexEEES5_RNS_10__equal_toEEET_S8_T0_OT1_, symObjAddr: 0x1DFD0, symBinAddr: 0x100025874, symSize: 0xCC }
  - { offsetInCU: 0x5BB83, offset: 0x68D8C, size: 0x8, addend: 0x0, symName: __ZNSt3__16__copyB8ue170006INS_17_ClassicAlgPolicyENS_11__wrap_iterIPKN4CGAL15SM_Vertex_indexEEES7_NS2_IPS4_EEEENS_4pairIT0_T2_EESB_T1_SC_, symObjAddr: 0x1E108, symBinAddr: 0x1000259AC, symSize: 0x5C }
  - { offsetInCU: 0x5BBF7, offset: 0x68E00, size: 0x8, addend: 0x0, symName: __ZNSt3__123__dispatch_copy_or_moveB8ue170006INS_17_ClassicAlgPolicyENS_11__copy_loopIS1_EENS_14__copy_trivialENS_11__wrap_iterIPKN4CGAL15SM_Vertex_indexEEESA_NS5_IPS7_EEEENS_4pairIT2_T4_EESE_T3_SF_, symObjAddr: 0x1E164, symBinAddr: 0x100025A08, symSize: 0x5C }
  - { offsetInCU: 0x5BC7D, offset: 0x68E86, size: 0x8, addend: 0x0, symName: __ZNSt3__121__unwrap_and_dispatchB8ue170006INS_10__overloadINS_11__copy_loopINS_17_ClassicAlgPolicyEEENS_14__copy_trivialEEENS_11__wrap_iterIPKN4CGAL15SM_Vertex_indexEEESC_NS7_IPS9_EELi0EEENS_4pairIT0_T2_EESG_T1_SH_, symObjAddr: 0x1E1C0, symBinAddr: 0x100025A64, symSize: 0xDC }
  - { offsetInCU: 0x5BD18, offset: 0x68F21, size: 0x8, addend: 0x0, symName: __ZNSt3__19make_pairB8ue170006INS_11__wrap_iterIPKN4CGAL15SM_Vertex_indexEEENS1_IPS3_EEEENS_4pairINS_18__unwrap_ref_decayIT_E4typeENSA_IT0_E4typeEEEOSB_OSE_, symObjAddr: 0x1E29C, symBinAddr: 0x100025B40, symSize: 0x38 }
  - { offsetInCU: 0x5BD67, offset: 0x68F70, size: 0x8, addend: 0x0, symName: __ZNSt3__114__rewrap_rangeB8ue170006INS_11__wrap_iterIPKN4CGAL15SM_Vertex_indexEEES5_EET_S7_T0_, symObjAddr: 0x1E2D4, symBinAddr: 0x100025B78, symSize: 0x3C }
  - { offsetInCU: 0x5BDB9, offset: 0x68FC2, size: 0x8, addend: 0x0, symName: __ZNSt3__113__rewrap_iterB8ue170006INS_11__wrap_iterIPN4CGAL15SM_Vertex_indexEEES4_NS_18__unwrap_iter_implIS5_Lb1EEEEET_S8_T0_, symObjAddr: 0x1E310, symBinAddr: 0x100025BB4, symSize: 0x4C }
  - { offsetInCU: 0x5BEE8, offset: 0x690F1, size: 0x8, addend: 0x0, symName: __ZNSt3__113__rewrap_iterB8ue170006INS_11__wrap_iterIPKN4CGAL15SM_Vertex_indexEEES5_NS_18__unwrap_iter_implIS6_Lb1EEEEET_S9_T0_, symObjAddr: 0x1E3CC, symBinAddr: 0x100025C70, symSize: 0x4C }
  - { offsetInCU: 0x5BF43, offset: 0x6914C, size: 0x8, addend: 0x0, symName: __ZNSt3__122__make_exception_guardB8ue170006INS_6vectorIN4CGAL17SM_Halfedge_indexENS_9allocatorIS3_EEE16__destroy_vectorEEENS_28__exception_guard_exceptionsIT_EES9_, symObjAddr: 0x1E6A8, symBinAddr: 0x100025F4C, symSize: 0x40 }
  - { offsetInCU: 0x5BF78, offset: 0x69181, size: 0x8, addend: 0x0, symName: __ZNSt3__119__allocate_at_leastB8ue170006INS_9allocatorIN4CGAL17SM_Halfedge_indexEEEEENS_19__allocation_resultINS_16allocator_traitsIT_E7pointerEEERS7_m, symObjAddr: 0x1EA94, symBinAddr: 0x100026338, symSize: 0x40 }
  - { offsetInCU: 0x5BFC1, offset: 0x691CA, size: 0x8, addend: 0x0, symName: __ZNSt3__112__to_addressB8ue170006IN4CGAL17SM_Halfedge_indexEEEPT_S4_, symObjAddr: 0x1EDB8, symBinAddr: 0x10002665C, symSize: 0x14 }
  - { offsetInCU: 0x5BFF6, offset: 0x691FF, size: 0x8, addend: 0x0, symName: __ZNSt3__16fill_nB8ue170006INS_6vectorIbNS_9allocatorIbEEEEEEvNS_14__bit_iteratorIT_Lb0EXLi0EEEENS6_9size_typeEb, symObjAddr: 0x1F710, symBinAddr: 0x100026FB4, symSize: 0x94 }
  - { offsetInCU: 0x5C048, offset: 0x69251, size: 0x8, addend: 0x0, symName: __ZNSt3__16fill_nB8ue170006IPmmmEET_S2_T0_RKT1_, symObjAddr: 0x1FAF8, symBinAddr: 0x10002739C, symSize: 0x44 }
  - { offsetInCU: 0x5C0B3, offset: 0x692BC, size: 0x8, addend: 0x0, symName: __ZNSt3__18__fill_nB8ue170006IPmmmEET_S2_T0_RKT1_, symObjAddr: 0x1FB3C, symBinAddr: 0x1000273E0, symSize: 0x64 }
  - { offsetInCU: 0x5C11E, offset: 0x69327, size: 0x8, addend: 0x0, symName: __ZNSt3__121__convert_to_integralB8ue170006Em, symObjAddr: 0x1FBA0, symBinAddr: 0x100027444, symSize: 0x14 }
  - { offsetInCU: 0x5C14E, offset: 0x69357, size: 0x8, addend: 0x0, symName: __ZNSt3__16fill_nB8ue170006IPmmiEET_S2_T0_RKT1_, symObjAddr: 0x1FBE4, symBinAddr: 0x100027488, symSize: 0x44 }
  - { offsetInCU: 0x5C1B9, offset: 0x693C2, size: 0x8, addend: 0x0, symName: __ZNSt3__18__fill_nB8ue170006IPmmiEET_S2_T0_RKT1_, symObjAddr: 0x1FC28, symBinAddr: 0x1000274CC, symSize: 0x64 }
  - { offsetInCU: 0x5C224, offset: 0x6942D, size: 0x8, addend: 0x0, symName: __ZNSt3__19make_pairB8ue170006IRN4CGAL17SM_Halfedge_indexEbEENS_4pairINS_18__unwrap_ref_decayIT_E4typeENS5_IT0_E4typeEEEOS6_OS9_, symObjAddr: 0x204E8, symBinAddr: 0x100027D8C, symSize: 0x34 }
  - { offsetInCU: 0x5C347, offset: 0x69550, size: 0x8, addend: 0x0, symName: __ZNSt3__112__to_addressB8ue170006IN4CGAL2IO5ColorEEEPT_S5_, symObjAddr: 0x23A9C, symBinAddr: 0x10002B340, symSize: 0x14 }
  - { offsetInCU: 0x5C37C, offset: 0x69585, size: 0x8, addend: 0x0, symName: __ZNSt3__112__to_addressB8ue170006IN4CGAL7Point_2INS1_16Simple_cartesianIdEEEEEEPT_S7_, symObjAddr: 0x23F68, symBinAddr: 0x10002B80C, symSize: 0x14 }
  - { offsetInCU: 0x5C3B1, offset: 0x695BA, size: 0x8, addend: 0x0, symName: __ZNSt3__112__to_addressB8ue170006IN4CGAL8Vector_3INS1_16Simple_cartesianIdEEEEEEPT_S7_, symObjAddr: 0x24450, symBinAddr: 0x10002BCF4, symSize: 0x14 }
  - { offsetInCU: 0x5C3F5, offset: 0x695FE, size: 0x8, addend: 0x0, symName: __ZNSt3__18distanceB8ue170006IN4CGAL12Surface_meshINS1_7Point_3INS1_16Simple_cartesianIdEEEEE14Index_iteratorINS1_15SM_Vertex_indexEEEEENS_15iterator_traitsIT_E15difference_typeESC_SC_, symObjAddr: 0x25AF4, symBinAddr: 0x10002D398, symSize: 0x4C }
  - { offsetInCU: 0x5C43E, offset: 0x69647, size: 0x8, addend: 0x0, symName: __ZNSt3__110__distanceB8ue170006IN4CGAL12Surface_meshINS1_7Point_3INS1_16Simple_cartesianIdEEEEE14Index_iteratorINS1_15SM_Vertex_indexEEEEENS_15iterator_traitsIT_E15difference_typeESC_SC_NS_26random_access_iterator_tagE, symObjAddr: 0x25B40, symBinAddr: 0x10002D3E4, symSize: 0x38 }
  - { offsetInCU: 0x5C493, offset: 0x6969C, size: 0x8, addend: 0x0, symName: __ZNSt3__18distanceB8ue170006IN4CGAL12Surface_meshINS1_7Point_3INS1_16Simple_cartesianIdEEEEE14Index_iteratorINS1_17SM_Halfedge_indexEEEEENS_15iterator_traitsIT_E15difference_typeESC_SC_, symObjAddr: 0x26330, symBinAddr: 0x10002DBD4, symSize: 0x4C }
  - { offsetInCU: 0x5C4DC, offset: 0x696E5, size: 0x8, addend: 0x0, symName: __ZNSt3__110__distanceB8ue170006IN4CGAL12Surface_meshINS1_7Point_3INS1_16Simple_cartesianIdEEEEE14Index_iteratorINS1_17SM_Halfedge_indexEEEEENS_15iterator_traitsIT_E15difference_typeESC_SC_NS_26random_access_iterator_tagE, symObjAddr: 0x263C4, symBinAddr: 0x10002DC68, symSize: 0x38 }
  - { offsetInCU: 0x5C531, offset: 0x6973A, size: 0x8, addend: 0x0, symName: __ZNSt3__18distanceB8ue170006IN4CGAL12Surface_meshINS1_7Point_3INS1_16Simple_cartesianIdEEEEE14Index_iteratorINS1_13SM_Face_indexEEEEENS_15iterator_traitsIT_E15difference_typeESC_SC_, symObjAddr: 0x26874, symBinAddr: 0x10002E118, symSize: 0x4C }
  - { offsetInCU: 0x5C57A, offset: 0x69783, size: 0x8, addend: 0x0, symName: __ZNSt3__110__distanceB8ue170006IN4CGAL12Surface_meshINS1_7Point_3INS1_16Simple_cartesianIdEEEEE14Index_iteratorINS1_13SM_Face_indexEEEEENS_15iterator_traitsIT_E15difference_typeESC_SC_NS_26random_access_iterator_tagE, symObjAddr: 0x268C0, symBinAddr: 0x10002E164, symSize: 0x38 }
  - { offsetInCU: 0x5C5CF, offset: 0x697D8, size: 0x8, addend: 0x0, symName: __ZNSt3__1lsB8ue170006INS_11char_traitsIcEEEERNS_13basic_ostreamIcT_EES6_c, symObjAddr: 0x26D70, symBinAddr: 0x10002E614, symSize: 0x34 }
  - { offsetInCU: 0x5C765, offset: 0x6996E, size: 0x8, addend: 0x0, symName: __ZNSt3__19make_pairB8ue170006IN4CGAL12Surface_meshINS1_7Point_3INS1_16Simple_cartesianIdEEEEE12Property_mapINS1_15SM_Vertex_indexENS7_19Vertex_connectivityEEEbEENS_4pairINS_18__unwrap_ref_decayIT_E4typeENSD_IT0_E4typeEEEOSE_OSH_, symObjAddr: 0x2C3AC, symBinAddr: 0x100033C50, symSize: 0x40 }
  - { offsetInCU: 0x5C7B4, offset: 0x699BD, size: 0x8, addend: 0x0, symName: __ZNSt3__1eqB8ue170006INS_9allocatorIcEEEEbRKNS_12basic_stringIcNS_11char_traitsIcEET_EES9_, symObjAddr: 0x2C454, symBinAddr: 0x100033CF8, symSize: 0x148 }
  - { offsetInCU: 0x5C827, offset: 0x69A30, size: 0x8, addend: 0x0, symName: __ZNSt3__112__to_addressB8ue170006IN4CGAL12Surface_meshINS1_7Point_3INS1_16Simple_cartesianIdEEEEE19Vertex_connectivityEEEPT_SA_, symObjAddr: 0x2D1B0, symBinAddr: 0x100034A54, symSize: 0x14 }
  - { offsetInCU: 0x5C85C, offset: 0x69A65, size: 0x8, addend: 0x0, symName: __ZNSt3__119__allocate_at_leastB8ue170006INS_9allocatorIN4CGAL12Surface_meshINS2_7Point_3INS2_16Simple_cartesianIdEEEEE19Vertex_connectivityEEEEENS_19__allocation_resultINS_16allocator_traitsIT_E7pointerEEERSD_m, symObjAddr: 0x2D784, symBinAddr: 0x100035028, symSize: 0x40 }
  - { offsetInCU: 0x5C8A5, offset: 0x69AAE, size: 0x8, addend: 0x0, symName: __ZNSt3__142__uninitialized_allocator_move_if_noexceptB8ue170006INS_9allocatorIN4CGAL12Surface_meshINS2_7Point_3INS2_16Simple_cartesianIdEEEEE19Vertex_connectivityEEENS_16reverse_iteratorIPS9_EESD_S9_vEET1_RT_T0_SH_SE_, symObjAddr: 0x2D94C, symBinAddr: 0x1000351F0, symSize: 0x78 }
  - { offsetInCU: 0x5C922, offset: 0x69B2B, size: 0x8, addend: 0x0, symName: __ZNSt3__14swapB8ue170006IPN4CGAL12Surface_meshINS1_7Point_3INS1_16Simple_cartesianIdEEEEE19Vertex_connectivityEEENS_9enable_ifIXaasr21is_move_constructibleIT_EE5valuesr18is_move_assignableISB_EE5valueEvE4typeERSB_SE_, symObjAddr: 0x2DA10, symBinAddr: 0x1000352B4, symSize: 0x3C }
  - { offsetInCU: 0x5C97B, offset: 0x69B84, size: 0x8, addend: 0x0, symName: __ZNSt3__14moveB8ue170006INS_16reverse_iteratorIPN4CGAL12Surface_meshINS2_7Point_3INS2_16Simple_cartesianIdEEEEE19Vertex_connectivityEEESB_EET0_T_SD_SC_, symObjAddr: 0x2DB20, symBinAddr: 0x1000353C4, symSize: 0x78 }
  - { offsetInCU: 0x5C9DD, offset: 0x69BE6, size: 0x8, addend: 0x0, symName: __ZNSt3__16__moveB8ue170006INS_17_ClassicAlgPolicyENS_16reverse_iteratorIPN4CGAL12Surface_meshINS3_7Point_3INS3_16Simple_cartesianIdEEEEE19Vertex_connectivityEEESC_SC_EENS_4pairIT0_T2_EESE_T1_SF_, symObjAddr: 0x2DB98, symBinAddr: 0x10003543C, symSize: 0x64 }
  - { offsetInCU: 0x5CA51, offset: 0x69C5A, size: 0x8, addend: 0x0, symName: __ZNSt3__123__dispatch_copy_or_moveB8ue170006INS_17_ClassicAlgPolicyENS_11__move_loopIS1_EENS_14__move_trivialENS_16reverse_iteratorIPN4CGAL12Surface_meshINS6_7Point_3INS6_16Simple_cartesianIdEEEEE19Vertex_connectivityEEESF_SF_EENS_4pairIT2_T4_EESH_T3_SI_, symObjAddr: 0x2DBFC, symBinAddr: 0x1000354A0, symSize: 0x64 }
  - { offsetInCU: 0x5CAD7, offset: 0x69CE0, size: 0x8, addend: 0x0, symName: __ZNSt3__121__unwrap_and_dispatchB8ue170006INS_10__overloadINS_11__move_loopINS_17_ClassicAlgPolicyEEENS_14__move_trivialEEENS_16reverse_iteratorIPN4CGAL12Surface_meshINS8_7Point_3INS8_16Simple_cartesianIdEEEEE19Vertex_connectivityEEESH_SH_Li0EEENS_4pairIT0_T2_EESJ_T1_SK_, symObjAddr: 0x2DC60, symBinAddr: 0x100035504, symSize: 0x12C }
  - { offsetInCU: 0x5CB73, offset: 0x69D7C, size: 0x8, addend: 0x0, symName: __ZNSt3__114__unwrap_rangeB8ue170006INS_16reverse_iteratorIPN4CGAL12Surface_meshINS2_7Point_3INS2_16Simple_cartesianIdEEEEE19Vertex_connectivityEEESB_EENS_4pairIT0_SD_EET_SF_, symObjAddr: 0x2DD8C, symBinAddr: 0x100035630, symSize: 0x84 }
  - { offsetInCU: 0x5CC99, offset: 0x69EA2, size: 0x8, addend: 0x0, symName: __ZNSt3__113__unwrap_iterB8ue170006INS_16reverse_iteratorIPN4CGAL12Surface_meshINS2_7Point_3INS2_16Simple_cartesianIdEEEEE19Vertex_connectivityEEENS_18__unwrap_iter_implISB_Lb0EEELi0EEEDTclsrT0_8__unwrapclsr3stdE7declvalIT_EEEESF_, symObjAddr: 0x2DEB0, symBinAddr: 0x100035754, symSize: 0x44 }
  - { offsetInCU: 0x5CCE1, offset: 0x69EEA, size: 0x8, addend: 0x0, symName: __ZNSt3__19make_pairB8ue170006INS_16reverse_iteratorIPN4CGAL12Surface_meshINS2_7Point_3INS2_16Simple_cartesianIdEEEEE19Vertex_connectivityEEESB_EENS_4pairINS_18__unwrap_ref_decayIT_E4typeENSD_IT0_E4typeEEEOSE_OSH_, symObjAddr: 0x2DEF4, symBinAddr: 0x100035798, symSize: 0x38 }
  - { offsetInCU: 0x5CD30, offset: 0x69F39, size: 0x8, addend: 0x0, symName: __ZNSt3__114__rewrap_rangeB8ue170006INS_16reverse_iteratorIPN4CGAL12Surface_meshINS2_7Point_3INS2_16Simple_cartesianIdEEEEE19Vertex_connectivityEEESB_EET_SC_T0_, symObjAddr: 0x2DF2C, symBinAddr: 0x1000357D0, symSize: 0x5C }
  - { offsetInCU: 0x5CD82, offset: 0x69F8B, size: 0x8, addend: 0x0, symName: __ZNSt3__113__rewrap_iterB8ue170006INS_16reverse_iteratorIPN4CGAL12Surface_meshINS2_7Point_3INS2_16Simple_cartesianIdEEEEE19Vertex_connectivityEEESB_NS_18__unwrap_iter_implISB_Lb0EEEEET_SE_T0_, symObjAddr: 0x2DF88, symBinAddr: 0x10003582C, symSize: 0x74 }
  - { offsetInCU: 0x5CDDD, offset: 0x69FE6, size: 0x8, addend: 0x0, symName: __ZNSt3__1neB8ue170006IPN4CGAL12Surface_meshINS1_7Point_3INS1_16Simple_cartesianIdEEEEE19Vertex_connectivityES9_EEbRKNS_16reverse_iteratorIT_EERKNSA_IT0_EE, symObjAddr: 0x2DFFC, symBinAddr: 0x1000358A0, symSize: 0x48 }
  - { offsetInCU: 0x5CE9F, offset: 0x6A0A8, size: 0x8, addend: 0x0, symName: __ZNSt3__122__make_exception_guardB8ue170006INS_6vectorIN4CGAL12Surface_meshINS2_7Point_3INS2_16Simple_cartesianIdEEEEE19Vertex_connectivityENS_9allocatorIS9_EEE16__destroy_vectorEEENS_28__exception_guard_exceptionsIT_EESF_, symObjAddr: 0x2ED40, symBinAddr: 0x1000365E4, symSize: 0x40 }
  - { offsetInCU: 0x5CED4, offset: 0x6A0DD, size: 0x8, addend: 0x0, symName: __ZNSt3__130__uninitialized_allocator_copyB8ue170006INS_9allocatorIN4CGAL12Surface_meshINS2_7Point_3INS2_16Simple_cartesianIdEEEEE19Vertex_connectivityEEEPS9_SB_SB_EET2_RT_T0_T1_SC_, symObjAddr: 0x2EF58, symBinAddr: 0x1000367FC, symSize: 0x80 }
  - { offsetInCU: 0x5CF71, offset: 0x6A17A, size: 0x8, addend: 0x0, symName: __ZNSt3__114__unwrap_rangeB8ue170006IPN4CGAL12Surface_meshINS1_7Point_3INS1_16Simple_cartesianIdEEEEE19Vertex_connectivityES9_EENS_4pairIT0_SB_EET_SD_, symObjAddr: 0x2EFD8, symBinAddr: 0x10003687C, symSize: 0x60 }
  - { offsetInCU: 0x5CFC3, offset: 0x6A1CC, size: 0x8, addend: 0x0, symName: __ZNSt3__135__uninitialized_allocator_copy_implB8ue170006INS_9allocatorIN4CGAL12Surface_meshINS2_7Point_3INS2_16Simple_cartesianIdEEEEE19Vertex_connectivityEEES9_S9_S9_LPv0EEEPT2_RT_PT0_SH_SD_, symObjAddr: 0x2F038, symBinAddr: 0x1000368DC, symSize: 0x38 }
  - { offsetInCU: 0x5D044, offset: 0x6A24D, size: 0x8, addend: 0x0, symName: __ZNSt3__113__unwrap_iterB8ue170006IPN4CGAL12Surface_meshINS1_7Point_3INS1_16Simple_cartesianIdEEEEE19Vertex_connectivityENS_18__unwrap_iter_implIS9_Lb1EEELi0EEEDTclsrT0_8__unwrapclsr3stdE7declvalIT_EEEESD_, symObjAddr: 0x2F070, symBinAddr: 0x100036914, symSize: 0x24 }
  - { offsetInCU: 0x5D08C, offset: 0x6A295, size: 0x8, addend: 0x0, symName: __ZNSt3__113__rewrap_iterB8ue170006IPN4CGAL12Surface_meshINS1_7Point_3INS1_16Simple_cartesianIdEEEEE19Vertex_connectivityES9_NS_18__unwrap_iter_implIS9_Lb1EEEEET_SC_T0_, symObjAddr: 0x2F094, symBinAddr: 0x100036938, symSize: 0x3C }
  - { offsetInCU: 0x5D0E7, offset: 0x6A2F0, size: 0x8, addend: 0x0, symName: __ZNSt3__19make_pairB8ue170006IPN4CGAL12Surface_meshINS1_7Point_3INS1_16Simple_cartesianIdEEEEE19Vertex_connectivityES9_EENS_4pairINS_18__unwrap_ref_decayIT_E4typeENSB_IT0_E4typeEEEOSC_OSF_, symObjAddr: 0x2F0D0, symBinAddr: 0x100036974, symSize: 0x38 }
  - { offsetInCU: 0x5D239, offset: 0x6A442, size: 0x8, addend: 0x0, symName: __ZNSt3__14copyB8ue170006IPN4CGAL12Surface_meshINS1_7Point_3INS1_16Simple_cartesianIdEEEEE19Vertex_connectivityES9_EET0_T_SB_SA_, symObjAddr: 0x2F178, symBinAddr: 0x100036A1C, symSize: 0x40 }
  - { offsetInCU: 0x5D29B, offset: 0x6A4A4, size: 0x8, addend: 0x0, symName: __ZNSt3__16__copyB8ue170006INS_17_ClassicAlgPolicyEPN4CGAL12Surface_meshINS2_7Point_3INS2_16Simple_cartesianIdEEEEE19Vertex_connectivityESA_SA_EENS_4pairIT0_T2_EESC_T1_SD_, symObjAddr: 0x2F1B8, symBinAddr: 0x100036A5C, symSize: 0x44 }
  - { offsetInCU: 0x5D30F, offset: 0x6A518, size: 0x8, addend: 0x0, symName: __ZNSt3__123__dispatch_copy_or_moveB8ue170006INS_17_ClassicAlgPolicyENS_11__copy_loopIS1_EENS_14__copy_trivialEPN4CGAL12Surface_meshINS5_7Point_3INS5_16Simple_cartesianIdEEEEE19Vertex_connectivityESD_SD_EENS_4pairIT2_T4_EESF_T3_SG_, symObjAddr: 0x2F1FC, symBinAddr: 0x100036AA0, symSize: 0x44 }
  - { offsetInCU: 0x5D395, offset: 0x6A59E, size: 0x8, addend: 0x0, symName: __ZNSt3__121__unwrap_and_dispatchB8ue170006INS_10__overloadINS_11__copy_loopINS_17_ClassicAlgPolicyEEENS_14__copy_trivialEEEPN4CGAL12Surface_meshINS7_7Point_3INS7_16Simple_cartesianIdEEEEE19Vertex_connectivityESF_SF_Li0EEENS_4pairIT0_T2_EESH_T1_SI_, symObjAddr: 0x2F240, symBinAddr: 0x100036AE4, symSize: 0xB4 }
  - { offsetInCU: 0x5D42F, offset: 0x6A638, size: 0x8, addend: 0x0, symName: __ZNSt3__114__rewrap_rangeB8ue170006IPN4CGAL12Surface_meshINS1_7Point_3INS1_16Simple_cartesianIdEEEEE19Vertex_connectivityES9_EET_SA_T0_, symObjAddr: 0x2F33C, symBinAddr: 0x100036BE0, symSize: 0x2C }
  - { offsetInCU: 0x5D481, offset: 0x6A68A, size: 0x8, addend: 0x0, symName: __ZNSt3__119__copy_trivial_implB8ue170006IN4CGAL12Surface_meshINS1_7Point_3INS1_16Simple_cartesianIdEEEEE19Vertex_connectivityES8_EENS_4pairIPT_PT0_EESB_SB_SD_, symObjAddr: 0x2F368, symBinAddr: 0x100036C0C, symSize: 0x80 }
  - { offsetInCU: 0x5D4F3, offset: 0x6A6FC, size: 0x8, addend: 0x0, symName: __ZNSt3__119__constexpr_memmoveB8ue170006IN4CGAL12Surface_meshINS1_7Point_3INS1_16Simple_cartesianIdEEEEE19Vertex_connectivityES8_Li0EEEPT_SA_PT0_NS_15__element_countE, symObjAddr: 0x2F3E8, symBinAddr: 0x100036C8C, symSize: 0x64 }
  - { offsetInCU: 0x5D561, offset: 0x6A76A, size: 0x8, addend: 0x0, symName: __ZNSt3__19make_pairB8ue170006IRPN4CGAL12Surface_meshINS1_7Point_3INS1_16Simple_cartesianIdEEEEE19Vertex_connectivityES9_EENS_4pairINS_18__unwrap_ref_decayIT_E4typeENSC_IT0_E4typeEEEOSD_OSG_, symObjAddr: 0x2F44C, symBinAddr: 0x100036CF0, symSize: 0x38 }
  - { offsetInCU: 0x5D60C, offset: 0x6A815, size: 0x8, addend: 0x0, symName: __ZNSt3__116__swap_allocatorB8ue170006INS_9allocatorIN4CGAL12Surface_meshINS2_7Point_3INS2_16Simple_cartesianIdEEEEE19Vertex_connectivityEEEEEvRT_SC_NS_17integral_constantIbLb0EEE, symObjAddr: 0x2F5B0, symBinAddr: 0x100036E54, symSize: 0x14 }
  - { offsetInCU: 0x5D654, offset: 0x6A85D, size: 0x8, addend: 0x0, symName: __ZNSt3__14copyB8ue170006INS_11__wrap_iterIPKN4CGAL12Surface_meshINS2_7Point_3INS2_16Simple_cartesianIdEEEEE19Vertex_connectivityEEENS1_IPS9_EEEET0_T_SG_SF_, symObjAddr: 0x2F798, symBinAddr: 0x10003703C, symSize: 0x60 }
  - { offsetInCU: 0x5D6B6, offset: 0x6A8BF, size: 0x8, addend: 0x0, symName: __ZNSt3__16__copyB8ue170006INS_17_ClassicAlgPolicyENS_11__wrap_iterIPKN4CGAL12Surface_meshINS3_7Point_3INS3_16Simple_cartesianIdEEEEE19Vertex_connectivityEEESD_NS2_IPSA_EEEENS_4pairIT0_T2_EESH_T1_SI_, symObjAddr: 0x2F8C4, symBinAddr: 0x100037168, symSize: 0x5C }
  - { offsetInCU: 0x5D72A, offset: 0x6A933, size: 0x8, addend: 0x0, symName: __ZNSt3__123__dispatch_copy_or_moveB8ue170006INS_17_ClassicAlgPolicyENS_11__copy_loopIS1_EENS_14__copy_trivialENS_11__wrap_iterIPKN4CGAL12Surface_meshINS6_7Point_3INS6_16Simple_cartesianIdEEEEE19Vertex_connectivityEEESG_NS5_IPSD_EEEENS_4pairIT2_T4_EESK_T3_SL_, symObjAddr: 0x2F920, symBinAddr: 0x1000371C4, symSize: 0x5C }
  - { offsetInCU: 0x5D7B0, offset: 0x6A9B9, size: 0x8, addend: 0x0, symName: __ZNSt3__121__unwrap_and_dispatchB8ue170006INS_10__overloadINS_11__copy_loopINS_17_ClassicAlgPolicyEEENS_14__copy_trivialEEENS_11__wrap_iterIPKN4CGAL12Surface_meshINS8_7Point_3INS8_16Simple_cartesianIdEEEEE19Vertex_connectivityEEESI_NS7_IPSF_EELi0EEENS_4pairIT0_T2_EESM_T1_SN_, symObjAddr: 0x2F97C, symBinAddr: 0x100037220, symSize: 0xDC }
  - { offsetInCU: 0x5D84B, offset: 0x6AA54, size: 0x8, addend: 0x0, symName: __ZNSt3__114__unwrap_rangeB8ue170006INS_11__wrap_iterIPKN4CGAL12Surface_meshINS2_7Point_3INS2_16Simple_cartesianIdEEEEE19Vertex_connectivityEEESB_EENS_4pairIT0_SE_EET_SG_, symObjAddr: 0x2FA58, symBinAddr: 0x1000372FC, symSize: 0x70 }
  - { offsetInCU: 0x5D971, offset: 0x6AB7A, size: 0x8, addend: 0x0, symName: __ZNSt3__113__unwrap_iterB8ue170006INS_11__wrap_iterIPN4CGAL12Surface_meshINS2_7Point_3INS2_16Simple_cartesianIdEEEEE19Vertex_connectivityEEENS_18__unwrap_iter_implISB_Lb1EEELi0EEEDTclsrT0_8__unwrapclsr3stdE7declvalIT_EEEESF_, symObjAddr: 0x2FB10, symBinAddr: 0x1000373B4, symSize: 0x2C }
  - { offsetInCU: 0x5D9B9, offset: 0x6ABC2, size: 0x8, addend: 0x0, symName: __ZNSt3__19make_pairB8ue170006INS_11__wrap_iterIPKN4CGAL12Surface_meshINS2_7Point_3INS2_16Simple_cartesianIdEEEEE19Vertex_connectivityEEENS1_IPS9_EEEENS_4pairINS_18__unwrap_ref_decayIT_E4typeENSG_IT0_E4typeEEEOSH_OSK_, symObjAddr: 0x2FB3C, symBinAddr: 0x1000373E0, symSize: 0x38 }
  - { offsetInCU: 0x5DA08, offset: 0x6AC11, size: 0x8, addend: 0x0, symName: __ZNSt3__114__rewrap_rangeB8ue170006INS_11__wrap_iterIPKN4CGAL12Surface_meshINS2_7Point_3INS2_16Simple_cartesianIdEEEEE19Vertex_connectivityEEESB_EET_SD_T0_, symObjAddr: 0x2FB74, symBinAddr: 0x100037418, symSize: 0x3C }
  - { offsetInCU: 0x5DA5A, offset: 0x6AC63, size: 0x8, addend: 0x0, symName: __ZNSt3__113__rewrap_iterB8ue170006INS_11__wrap_iterIPN4CGAL12Surface_meshINS2_7Point_3INS2_16Simple_cartesianIdEEEEE19Vertex_connectivityEEESA_NS_18__unwrap_iter_implISB_Lb1EEEEET_SE_T0_, symObjAddr: 0x2FBB0, symBinAddr: 0x100037454, symSize: 0x4C }
  - { offsetInCU: 0x5DAB5, offset: 0x6ACBE, size: 0x8, addend: 0x0, symName: __ZNSt3__19make_pairB8ue170006IPKN4CGAL12Surface_meshINS1_7Point_3INS1_16Simple_cartesianIdEEEEE19Vertex_connectivityESA_EENS_4pairINS_18__unwrap_ref_decayIT_E4typeENSC_IT0_E4typeEEEOSD_OSG_, symObjAddr: 0x2FBFC, symBinAddr: 0x1000374A0, symSize: 0x38 }
  - { offsetInCU: 0x5DB04, offset: 0x6AD0D, size: 0x8, addend: 0x0, symName: __ZNSt3__113__unwrap_iterB8ue170006INS_11__wrap_iterIPKN4CGAL12Surface_meshINS2_7Point_3INS2_16Simple_cartesianIdEEEEE19Vertex_connectivityEEENS_18__unwrap_iter_implISC_Lb1EEELi0EEEDTclsrT0_8__unwrapclsr3stdE7declvalIT_EEEESG_, symObjAddr: 0x2FC34, symBinAddr: 0x1000374D8, symSize: 0x2C }
  - { offsetInCU: 0x5DC7B, offset: 0x6AE84, size: 0x8, addend: 0x0, symName: __ZNSt3__112__to_addressB8ue170006INS_11__wrap_iterIPKN4CGAL12Surface_meshINS2_7Point_3INS2_16Simple_cartesianIdEEEEE19Vertex_connectivityEEEvEEu7__decayIDTclsr19__to_address_helperIT_EE6__callclsr3stdE7declvalIRKSD_EEEEESF_, symObjAddr: 0x2FCF8, symBinAddr: 0x10003759C, symSize: 0x24 }
  - { offsetInCU: 0x5DD56, offset: 0x6AF5F, size: 0x8, addend: 0x0, symName: __ZNSt3__112__to_addressB8ue170006IKN4CGAL12Surface_meshINS1_7Point_3INS1_16Simple_cartesianIdEEEEE19Vertex_connectivityEEEPT_SB_, symObjAddr: 0x2FD78, symBinAddr: 0x10003761C, symSize: 0x14 }
  - { offsetInCU: 0x5DD8B, offset: 0x6AF94, size: 0x8, addend: 0x0, symName: __ZNSt3__119__copy_trivial_implB8ue170006IKN4CGAL12Surface_meshINS1_7Point_3INS1_16Simple_cartesianIdEEEEE19Vertex_connectivityES8_EENS_4pairIPT_PT0_EESC_SC_SE_, symObjAddr: 0x2FDA4, symBinAddr: 0x100037648, symSize: 0x80 }
  - { offsetInCU: 0x5DDFD, offset: 0x6B006, size: 0x8, addend: 0x0, symName: __ZNSt3__119__constexpr_memmoveB8ue170006IN4CGAL12Surface_meshINS1_7Point_3INS1_16Simple_cartesianIdEEEEE19Vertex_connectivityEKS8_Li0EEEPT_SB_PT0_NS_15__element_countE, symObjAddr: 0x2FE24, symBinAddr: 0x1000376C8, symSize: 0x64 }
  - { offsetInCU: 0x5DE6B, offset: 0x6B074, size: 0x8, addend: 0x0, symName: __ZNSt3__19make_pairB8ue170006IRPKN4CGAL12Surface_meshINS1_7Point_3INS1_16Simple_cartesianIdEEEEE19Vertex_connectivityEPS8_EENS_4pairINS_18__unwrap_ref_decayIT_E4typeENSE_IT0_E4typeEEEOSF_OSI_, symObjAddr: 0x2FE88, symBinAddr: 0x10003772C, symSize: 0x38 }
  - { offsetInCU: 0x5DF15, offset: 0x6B11E, size: 0x8, addend: 0x0, symName: __ZNSt3__112__to_addressB8ue170006INS_11__wrap_iterIPN4CGAL12Surface_meshINS2_7Point_3INS2_16Simple_cartesianIdEEEEE19Vertex_connectivityEEEvEEu7__decayIDTclsr19__to_address_helperIT_EE6__callclsr3stdE7declvalIRKSC_EEEEESE_, symObjAddr: 0x2FF58, symBinAddr: 0x1000377FC, symSize: 0x24 }
  - { offsetInCU: 0x5E0C4, offset: 0x6B2CD, size: 0x8, addend: 0x0, symName: __ZNSt3__113__rewrap_iterB8ue170006INS_11__wrap_iterIPKN4CGAL12Surface_meshINS2_7Point_3INS2_16Simple_cartesianIdEEEEE19Vertex_connectivityEEESB_NS_18__unwrap_iter_implISC_Lb1EEEEET_SF_T0_, symObjAddr: 0x30060, symBinAddr: 0x100037904, symSize: 0x4C }
  - { offsetInCU: 0x5E11F, offset: 0x6B328, size: 0x8, addend: 0x0, symName: __ZNSt3__18distanceB8ue170006IPN4CGAL12Surface_meshINS1_7Point_3INS1_16Simple_cartesianIdEEEEE19Vertex_connectivityEEENS_15iterator_traitsIT_E15difference_typeESB_SB_, symObjAddr: 0x30648, symBinAddr: 0x100037EEC, symSize: 0x2C }
  - { offsetInCU: 0x5E168, offset: 0x6B371, size: 0x8, addend: 0x0, symName: __ZNSt3__14nextB8ue170006IPN4CGAL12Surface_meshINS1_7Point_3INS1_16Simple_cartesianIdEEEEE19Vertex_connectivityEEENS_9enable_ifIXsr29__has_input_iterator_categoryIT_EE5valueESB_E4typeESB_NS_15iterator_traitsISB_E15difference_typeE, symObjAddr: 0x30674, symBinAddr: 0x100037F18, symSize: 0x34 }
  - { offsetInCU: 0x5E1B2, offset: 0x6B3BB, size: 0x8, addend: 0x0, symName: __ZNSt3__19__advanceB8ue170006IPN4CGAL12Surface_meshINS1_7Point_3INS1_16Simple_cartesianIdEEEEE19Vertex_connectivityEEEvRT_NS_15iterator_traitsISA_E15difference_typeENS_26random_access_iterator_tagE, symObjAddr: 0x30788, symBinAddr: 0x100038018, symSize: 0x28 }
  - { offsetInCU: 0x5E1FB, offset: 0x6B404, size: 0x8, addend: 0x0, symName: __ZNSt3__110__distanceB8ue170006IPN4CGAL12Surface_meshINS1_7Point_3INS1_16Simple_cartesianIdEEEEE19Vertex_connectivityEEENS_15iterator_traitsIT_E15difference_typeESB_SB_NS_26random_access_iterator_tagE, symObjAddr: 0x307F4, symBinAddr: 0x100038084, symSize: 0x28 }
  - { offsetInCU: 0x5E250, offset: 0x6B459, size: 0x8, addend: 0x0, symName: __ZNSt3__119__allocate_at_leastB8ue170006INS_9allocatorIPN4CGAL10Properties19Base_property_arrayEEEEENS_19__allocation_resultINS_16allocator_traitsIT_E7pointerEEERS9_m, symObjAddr: 0x30F64, symBinAddr: 0x1000387F4, symSize: 0x40 }
  - { offsetInCU: 0x5E299, offset: 0x6B4A2, size: 0x8, addend: 0x0, symName: __ZNSt3__142__uninitialized_allocator_move_if_noexceptB8ue170006INS_9allocatorIPN4CGAL10Properties19Base_property_arrayEEENS_16reverse_iteratorIPS5_EES9_S5_vEET1_RT_T0_SD_SA_, symObjAddr: 0x31118, symBinAddr: 0x1000389A8, symSize: 0x78 }
  - { offsetInCU: 0x5E316, offset: 0x6B51F, size: 0x8, addend: 0x0, symName: __ZNSt3__14swapB8ue170006IPPN4CGAL10Properties19Base_property_arrayEEENS_9enable_ifIXaasr21is_move_constructibleIT_EE5valuesr18is_move_assignableIS7_EE5valueEvE4typeERS7_SA_, symObjAddr: 0x311DC, symBinAddr: 0x100038A6C, symSize: 0x3C }
  - { offsetInCU: 0x5E36F, offset: 0x6B578, size: 0x8, addend: 0x0, symName: __ZNSt3__14moveB8ue170006INS_16reverse_iteratorIPPN4CGAL10Properties19Base_property_arrayEEES7_EET0_T_S9_S8_, symObjAddr: 0x312C4, symBinAddr: 0x100038B54, symSize: 0x78 }
  - { offsetInCU: 0x5E3D1, offset: 0x6B5DA, size: 0x8, addend: 0x0, symName: __ZNSt3__16__moveB8ue170006INS_17_ClassicAlgPolicyENS_16reverse_iteratorIPPN4CGAL10Properties19Base_property_arrayEEES8_S8_EENS_4pairIT0_T2_EESA_T1_SB_, symObjAddr: 0x3133C, symBinAddr: 0x100038BCC, symSize: 0x64 }
  - { offsetInCU: 0x5E445, offset: 0x6B64E, size: 0x8, addend: 0x0, symName: __ZNSt3__123__dispatch_copy_or_moveB8ue170006INS_17_ClassicAlgPolicyENS_11__move_loopIS1_EENS_14__move_trivialENS_16reverse_iteratorIPPN4CGAL10Properties19Base_property_arrayEEESB_SB_EENS_4pairIT2_T4_EESD_T3_SE_, symObjAddr: 0x313A0, symBinAddr: 0x100038C30, symSize: 0x64 }
  - { offsetInCU: 0x5E4CB, offset: 0x6B6D4, size: 0x8, addend: 0x0, symName: __ZNSt3__121__unwrap_and_dispatchB8ue170006INS_10__overloadINS_11__move_loopINS_17_ClassicAlgPolicyEEENS_14__move_trivialEEENS_16reverse_iteratorIPPN4CGAL10Properties19Base_property_arrayEEESD_SD_Li0EEENS_4pairIT0_T2_EESF_T1_SG_, symObjAddr: 0x31404, symBinAddr: 0x100038C94, symSize: 0x12C }
  - { offsetInCU: 0x5E567, offset: 0x6B770, size: 0x8, addend: 0x0, symName: __ZNSt3__114__unwrap_rangeB8ue170006INS_16reverse_iteratorIPPN4CGAL10Properties19Base_property_arrayEEES7_EENS_4pairIT0_S9_EET_SB_, symObjAddr: 0x31530, symBinAddr: 0x100038DC0, symSize: 0x84 }
  - { offsetInCU: 0x5E68D, offset: 0x6B896, size: 0x8, addend: 0x0, symName: __ZNSt3__113__unwrap_iterB8ue170006INS_16reverse_iteratorIPPN4CGAL10Properties19Base_property_arrayEEENS_18__unwrap_iter_implIS7_Lb0EEELi0EEEDTclsrT0_8__unwrapclsr3stdE7declvalIT_EEEESB_, symObjAddr: 0x31654, symBinAddr: 0x100038EE4, symSize: 0x44 }
  - { offsetInCU: 0x5E6D5, offset: 0x6B8DE, size: 0x8, addend: 0x0, symName: __ZNSt3__19make_pairB8ue170006INS_16reverse_iteratorIPPN4CGAL10Properties19Base_property_arrayEEES7_EENS_4pairINS_18__unwrap_ref_decayIT_E4typeENS9_IT0_E4typeEEEOSA_OSD_, symObjAddr: 0x31698, symBinAddr: 0x100038F28, symSize: 0x38 }
  - { offsetInCU: 0x5E724, offset: 0x6B92D, size: 0x8, addend: 0x0, symName: __ZNSt3__114__rewrap_rangeB8ue170006INS_16reverse_iteratorIPPN4CGAL10Properties19Base_property_arrayEEES7_EET_S8_T0_, symObjAddr: 0x316D0, symBinAddr: 0x100038F60, symSize: 0x5C }
  - { offsetInCU: 0x5E776, offset: 0x6B97F, size: 0x8, addend: 0x0, symName: __ZNSt3__113__rewrap_iterB8ue170006INS_16reverse_iteratorIPPN4CGAL10Properties19Base_property_arrayEEES7_NS_18__unwrap_iter_implIS7_Lb0EEEEET_SA_T0_, symObjAddr: 0x3172C, symBinAddr: 0x100038FBC, symSize: 0x74 }
  - { offsetInCU: 0x5E7D1, offset: 0x6B9DA, size: 0x8, addend: 0x0, symName: __ZNSt3__1neB8ue170006IPPN4CGAL10Properties19Base_property_arrayES5_EEbRKNS_16reverse_iteratorIT_EERKNS6_IT0_EE, symObjAddr: 0x317A0, symBinAddr: 0x100039030, symSize: 0x48 }
  - { offsetInCU: 0x5E893, offset: 0x6BA9C, size: 0x8, addend: 0x0, symName: __ZNSt3__18exchangeB8ue170006IPN4CGAL10Properties14Property_arrayINS1_12Surface_meshINS1_7Point_3INS1_16Simple_cartesianIdEEEEE19Vertex_connectivityEEEDnEET_RSD_OT0_, symObjAddr: 0x31C60, symBinAddr: 0x1000394F0, symSize: 0x2C }
  - { offsetInCU: 0x5E8F5, offset: 0x6BAFE, size: 0x8, addend: 0x0, symName: __ZNSt3__19make_pairB8ue170006IN4CGAL12Surface_meshINS1_7Point_3INS1_16Simple_cartesianIdEEEEE12Property_mapINS1_17SM_Halfedge_indexENS7_21Halfedge_connectivityEEEbEENS_4pairINS_18__unwrap_ref_decayIT_E4typeENSD_IT0_E4typeEEEOSE_OSH_, symObjAddr: 0x320A0, symBinAddr: 0x100039930, symSize: 0x40 }
  - { offsetInCU: 0x5E944, offset: 0x6BB4D, size: 0x8, addend: 0x0, symName: __ZNSt3__112__to_addressB8ue170006IN4CGAL12Surface_meshINS1_7Point_3INS1_16Simple_cartesianIdEEEEE21Halfedge_connectivityEEEPT_SA_, symObjAddr: 0x32C44, symBinAddr: 0x10003A4D4, symSize: 0x14 }
  - { offsetInCU: 0x5E979, offset: 0x6BB82, size: 0x8, addend: 0x0, symName: __ZNSt3__119__allocate_at_leastB8ue170006INS_9allocatorIN4CGAL12Surface_meshINS2_7Point_3INS2_16Simple_cartesianIdEEEEE21Halfedge_connectivityEEEEENS_19__allocation_resultINS_16allocator_traitsIT_E7pointerEEERSD_m, symObjAddr: 0x33218, symBinAddr: 0x10003AAA8, symSize: 0x40 }
  - { offsetInCU: 0x5E9C2, offset: 0x6BBCB, size: 0x8, addend: 0x0, symName: __ZNSt3__142__uninitialized_allocator_move_if_noexceptB8ue170006INS_9allocatorIN4CGAL12Surface_meshINS2_7Point_3INS2_16Simple_cartesianIdEEEEE21Halfedge_connectivityEEENS_16reverse_iteratorIPS9_EESD_S9_vEET1_RT_T0_SH_SE_, symObjAddr: 0x333E0, symBinAddr: 0x10003AC70, symSize: 0x78 }
  - { offsetInCU: 0x5EA3F, offset: 0x6BC48, size: 0x8, addend: 0x0, symName: __ZNSt3__14swapB8ue170006IPN4CGAL12Surface_meshINS1_7Point_3INS1_16Simple_cartesianIdEEEEE21Halfedge_connectivityEEENS_9enable_ifIXaasr21is_move_constructibleIT_EE5valuesr18is_move_assignableISB_EE5valueEvE4typeERSB_SE_, symObjAddr: 0x334A4, symBinAddr: 0x10003AD34, symSize: 0x3C }
  - { offsetInCU: 0x5EA98, offset: 0x6BCA1, size: 0x8, addend: 0x0, symName: __ZNSt3__14moveB8ue170006INS_16reverse_iteratorIPN4CGAL12Surface_meshINS2_7Point_3INS2_16Simple_cartesianIdEEEEE21Halfedge_connectivityEEESB_EET0_T_SD_SC_, symObjAddr: 0x335B4, symBinAddr: 0x10003AE44, symSize: 0x78 }
  - { offsetInCU: 0x5EAFA, offset: 0x6BD03, size: 0x8, addend: 0x0, symName: __ZNSt3__16__moveB8ue170006INS_17_ClassicAlgPolicyENS_16reverse_iteratorIPN4CGAL12Surface_meshINS3_7Point_3INS3_16Simple_cartesianIdEEEEE21Halfedge_connectivityEEESC_SC_EENS_4pairIT0_T2_EESE_T1_SF_, symObjAddr: 0x3362C, symBinAddr: 0x10003AEBC, symSize: 0x64 }
  - { offsetInCU: 0x5EB6E, offset: 0x6BD77, size: 0x8, addend: 0x0, symName: __ZNSt3__123__dispatch_copy_or_moveB8ue170006INS_17_ClassicAlgPolicyENS_11__move_loopIS1_EENS_14__move_trivialENS_16reverse_iteratorIPN4CGAL12Surface_meshINS6_7Point_3INS6_16Simple_cartesianIdEEEEE21Halfedge_connectivityEEESF_SF_EENS_4pairIT2_T4_EESH_T3_SI_, symObjAddr: 0x33690, symBinAddr: 0x10003AF20, symSize: 0x64 }
  - { offsetInCU: 0x5EBF4, offset: 0x6BDFD, size: 0x8, addend: 0x0, symName: __ZNSt3__121__unwrap_and_dispatchB8ue170006INS_10__overloadINS_11__move_loopINS_17_ClassicAlgPolicyEEENS_14__move_trivialEEENS_16reverse_iteratorIPN4CGAL12Surface_meshINS8_7Point_3INS8_16Simple_cartesianIdEEEEE21Halfedge_connectivityEEESH_SH_Li0EEENS_4pairIT0_T2_EESJ_T1_SK_, symObjAddr: 0x336F4, symBinAddr: 0x10003AF84, symSize: 0x12C }
  - { offsetInCU: 0x5EC90, offset: 0x6BE99, size: 0x8, addend: 0x0, symName: __ZNSt3__114__unwrap_rangeB8ue170006INS_16reverse_iteratorIPN4CGAL12Surface_meshINS2_7Point_3INS2_16Simple_cartesianIdEEEEE21Halfedge_connectivityEEESB_EENS_4pairIT0_SD_EET_SF_, symObjAddr: 0x33820, symBinAddr: 0x10003B0B0, symSize: 0x84 }
  - { offsetInCU: 0x5EDB6, offset: 0x6BFBF, size: 0x8, addend: 0x0, symName: __ZNSt3__113__unwrap_iterB8ue170006INS_16reverse_iteratorIPN4CGAL12Surface_meshINS2_7Point_3INS2_16Simple_cartesianIdEEEEE21Halfedge_connectivityEEENS_18__unwrap_iter_implISB_Lb0EEELi0EEEDTclsrT0_8__unwrapclsr3stdE7declvalIT_EEEESF_, symObjAddr: 0x33944, symBinAddr: 0x10003B1D4, symSize: 0x44 }
  - { offsetInCU: 0x5EDFE, offset: 0x6C007, size: 0x8, addend: 0x0, symName: __ZNSt3__19make_pairB8ue170006INS_16reverse_iteratorIPN4CGAL12Surface_meshINS2_7Point_3INS2_16Simple_cartesianIdEEEEE21Halfedge_connectivityEEESB_EENS_4pairINS_18__unwrap_ref_decayIT_E4typeENSD_IT0_E4typeEEEOSE_OSH_, symObjAddr: 0x33988, symBinAddr: 0x10003B218, symSize: 0x38 }
  - { offsetInCU: 0x5EE4D, offset: 0x6C056, size: 0x8, addend: 0x0, symName: __ZNSt3__114__rewrap_rangeB8ue170006INS_16reverse_iteratorIPN4CGAL12Surface_meshINS2_7Point_3INS2_16Simple_cartesianIdEEEEE21Halfedge_connectivityEEESB_EET_SC_T0_, symObjAddr: 0x339C0, symBinAddr: 0x10003B250, symSize: 0x5C }
  - { offsetInCU: 0x5EE9F, offset: 0x6C0A8, size: 0x8, addend: 0x0, symName: __ZNSt3__113__rewrap_iterB8ue170006INS_16reverse_iteratorIPN4CGAL12Surface_meshINS2_7Point_3INS2_16Simple_cartesianIdEEEEE21Halfedge_connectivityEEESB_NS_18__unwrap_iter_implISB_Lb0EEEEET_SE_T0_, symObjAddr: 0x33A1C, symBinAddr: 0x10003B2AC, symSize: 0x74 }
  - { offsetInCU: 0x5EEFA, offset: 0x6C103, size: 0x8, addend: 0x0, symName: __ZNSt3__1neB8ue170006IPN4CGAL12Surface_meshINS1_7Point_3INS1_16Simple_cartesianIdEEEEE21Halfedge_connectivityES9_EEbRKNS_16reverse_iteratorIT_EERKNSA_IT0_EE, symObjAddr: 0x33A90, symBinAddr: 0x10003B320, symSize: 0x48 }
  - { offsetInCU: 0x5EFBC, offset: 0x6C1C5, size: 0x8, addend: 0x0, symName: __ZNSt3__122__make_exception_guardB8ue170006INS_6vectorIN4CGAL12Surface_meshINS2_7Point_3INS2_16Simple_cartesianIdEEEEE21Halfedge_connectivityENS_9allocatorIS9_EEE16__destroy_vectorEEENS_28__exception_guard_exceptionsIT_EESF_, symObjAddr: 0x347D4, symBinAddr: 0x10003C064, symSize: 0x40 }
  - { offsetInCU: 0x5EFF1, offset: 0x6C1FA, size: 0x8, addend: 0x0, symName: __ZNSt3__130__uninitialized_allocator_copyB8ue170006INS_9allocatorIN4CGAL12Surface_meshINS2_7Point_3INS2_16Simple_cartesianIdEEEEE21Halfedge_connectivityEEEPS9_SB_SB_EET2_RT_T0_T1_SC_, symObjAddr: 0x349EC, symBinAddr: 0x10003C27C, symSize: 0x80 }
  - { offsetInCU: 0x5F08E, offset: 0x6C297, size: 0x8, addend: 0x0, symName: __ZNSt3__114__unwrap_rangeB8ue170006IPN4CGAL12Surface_meshINS1_7Point_3INS1_16Simple_cartesianIdEEEEE21Halfedge_connectivityES9_EENS_4pairIT0_SB_EET_SD_, symObjAddr: 0x34A6C, symBinAddr: 0x10003C2FC, symSize: 0x60 }
  - { offsetInCU: 0x5F0E0, offset: 0x6C2E9, size: 0x8, addend: 0x0, symName: __ZNSt3__135__uninitialized_allocator_copy_implB8ue170006INS_9allocatorIN4CGAL12Surface_meshINS2_7Point_3INS2_16Simple_cartesianIdEEEEE21Halfedge_connectivityEEES9_S9_S9_LPv0EEEPT2_RT_PT0_SH_SD_, symObjAddr: 0x34ACC, symBinAddr: 0x10003C35C, symSize: 0x38 }
  - { offsetInCU: 0x5F161, offset: 0x6C36A, size: 0x8, addend: 0x0, symName: __ZNSt3__113__unwrap_iterB8ue170006IPN4CGAL12Surface_meshINS1_7Point_3INS1_16Simple_cartesianIdEEEEE21Halfedge_connectivityENS_18__unwrap_iter_implIS9_Lb1EEELi0EEEDTclsrT0_8__unwrapclsr3stdE7declvalIT_EEEESD_, symObjAddr: 0x34B04, symBinAddr: 0x10003C394, symSize: 0x24 }
  - { offsetInCU: 0x5F1A9, offset: 0x6C3B2, size: 0x8, addend: 0x0, symName: __ZNSt3__113__rewrap_iterB8ue170006IPN4CGAL12Surface_meshINS1_7Point_3INS1_16Simple_cartesianIdEEEEE21Halfedge_connectivityES9_NS_18__unwrap_iter_implIS9_Lb1EEEEET_SC_T0_, symObjAddr: 0x34B28, symBinAddr: 0x10003C3B8, symSize: 0x3C }
  - { offsetInCU: 0x5F204, offset: 0x6C40D, size: 0x8, addend: 0x0, symName: __ZNSt3__19make_pairB8ue170006IPN4CGAL12Surface_meshINS1_7Point_3INS1_16Simple_cartesianIdEEEEE21Halfedge_connectivityES9_EENS_4pairINS_18__unwrap_ref_decayIT_E4typeENSB_IT0_E4typeEEEOSC_OSF_, symObjAddr: 0x34B64, symBinAddr: 0x10003C3F4, symSize: 0x38 }
  - { offsetInCU: 0x5F356, offset: 0x6C55F, size: 0x8, addend: 0x0, symName: __ZNSt3__14copyB8ue170006IPN4CGAL12Surface_meshINS1_7Point_3INS1_16Simple_cartesianIdEEEEE21Halfedge_connectivityES9_EET0_T_SB_SA_, symObjAddr: 0x34C0C, symBinAddr: 0x10003C49C, symSize: 0x40 }
  - { offsetInCU: 0x5F3B8, offset: 0x6C5C1, size: 0x8, addend: 0x0, symName: __ZNSt3__16__copyB8ue170006INS_17_ClassicAlgPolicyEPN4CGAL12Surface_meshINS2_7Point_3INS2_16Simple_cartesianIdEEEEE21Halfedge_connectivityESA_SA_EENS_4pairIT0_T2_EESC_T1_SD_, symObjAddr: 0x34C4C, symBinAddr: 0x10003C4DC, symSize: 0x44 }
  - { offsetInCU: 0x5F42C, offset: 0x6C635, size: 0x8, addend: 0x0, symName: __ZNSt3__123__dispatch_copy_or_moveB8ue170006INS_17_ClassicAlgPolicyENS_11__copy_loopIS1_EENS_14__copy_trivialEPN4CGAL12Surface_meshINS5_7Point_3INS5_16Simple_cartesianIdEEEEE21Halfedge_connectivityESD_SD_EENS_4pairIT2_T4_EESF_T3_SG_, symObjAddr: 0x34C90, symBinAddr: 0x10003C520, symSize: 0x44 }
  - { offsetInCU: 0x5F4B2, offset: 0x6C6BB, size: 0x8, addend: 0x0, symName: __ZNSt3__121__unwrap_and_dispatchB8ue170006INS_10__overloadINS_11__copy_loopINS_17_ClassicAlgPolicyEEENS_14__copy_trivialEEEPN4CGAL12Surface_meshINS7_7Point_3INS7_16Simple_cartesianIdEEEEE21Halfedge_connectivityESF_SF_Li0EEENS_4pairIT0_T2_EESH_T1_SI_, symObjAddr: 0x34CD4, symBinAddr: 0x10003C564, symSize: 0xB4 }
  - { offsetInCU: 0x5F54C, offset: 0x6C755, size: 0x8, addend: 0x0, symName: __ZNSt3__114__rewrap_rangeB8ue170006IPN4CGAL12Surface_meshINS1_7Point_3INS1_16Simple_cartesianIdEEEEE21Halfedge_connectivityES9_EET_SA_T0_, symObjAddr: 0x34DD0, symBinAddr: 0x10003C660, symSize: 0x2C }
  - { offsetInCU: 0x5F59E, offset: 0x6C7A7, size: 0x8, addend: 0x0, symName: __ZNSt3__119__copy_trivial_implB8ue170006IN4CGAL12Surface_meshINS1_7Point_3INS1_16Simple_cartesianIdEEEEE21Halfedge_connectivityES8_EENS_4pairIPT_PT0_EESB_SB_SD_, symObjAddr: 0x34DFC, symBinAddr: 0x10003C68C, symSize: 0x80 }
  - { offsetInCU: 0x5F610, offset: 0x6C819, size: 0x8, addend: 0x0, symName: __ZNSt3__119__constexpr_memmoveB8ue170006IN4CGAL12Surface_meshINS1_7Point_3INS1_16Simple_cartesianIdEEEEE21Halfedge_connectivityES8_Li0EEEPT_SA_PT0_NS_15__element_countE, symObjAddr: 0x34E7C, symBinAddr: 0x10003C70C, symSize: 0x64 }
  - { offsetInCU: 0x5F67E, offset: 0x6C887, size: 0x8, addend: 0x0, symName: __ZNSt3__19make_pairB8ue170006IRPN4CGAL12Surface_meshINS1_7Point_3INS1_16Simple_cartesianIdEEEEE21Halfedge_connectivityES9_EENS_4pairINS_18__unwrap_ref_decayIT_E4typeENSC_IT0_E4typeEEEOSD_OSG_, symObjAddr: 0x34EE0, symBinAddr: 0x10003C770, symSize: 0x38 }
  - { offsetInCU: 0x5F729, offset: 0x6C932, size: 0x8, addend: 0x0, symName: __ZNSt3__116__swap_allocatorB8ue170006INS_9allocatorIN4CGAL12Surface_meshINS2_7Point_3INS2_16Simple_cartesianIdEEEEE21Halfedge_connectivityEEEEEvRT_SC_NS_17integral_constantIbLb0EEE, symObjAddr: 0x35044, symBinAddr: 0x10003C8D4, symSize: 0x14 }
  - { offsetInCU: 0x5F771, offset: 0x6C97A, size: 0x8, addend: 0x0, symName: __ZNSt3__14copyB8ue170006INS_11__wrap_iterIPKN4CGAL12Surface_meshINS2_7Point_3INS2_16Simple_cartesianIdEEEEE21Halfedge_connectivityEEENS1_IPS9_EEEET0_T_SG_SF_, symObjAddr: 0x3522C, symBinAddr: 0x10003CABC, symSize: 0x60 }
  - { offsetInCU: 0x5F7D3, offset: 0x6C9DC, size: 0x8, addend: 0x0, symName: __ZNSt3__16__copyB8ue170006INS_17_ClassicAlgPolicyENS_11__wrap_iterIPKN4CGAL12Surface_meshINS3_7Point_3INS3_16Simple_cartesianIdEEEEE21Halfedge_connectivityEEESD_NS2_IPSA_EEEENS_4pairIT0_T2_EESH_T1_SI_, symObjAddr: 0x35358, symBinAddr: 0x10003CBE8, symSize: 0x5C }
  - { offsetInCU: 0x5F847, offset: 0x6CA50, size: 0x8, addend: 0x0, symName: __ZNSt3__123__dispatch_copy_or_moveB8ue170006INS_17_ClassicAlgPolicyENS_11__copy_loopIS1_EENS_14__copy_trivialENS_11__wrap_iterIPKN4CGAL12Surface_meshINS6_7Point_3INS6_16Simple_cartesianIdEEEEE21Halfedge_connectivityEEESG_NS5_IPSD_EEEENS_4pairIT2_T4_EESK_T3_SL_, symObjAddr: 0x353B4, symBinAddr: 0x10003CC44, symSize: 0x5C }
  - { offsetInCU: 0x5F8CD, offset: 0x6CAD6, size: 0x8, addend: 0x0, symName: __ZNSt3__121__unwrap_and_dispatchB8ue170006INS_10__overloadINS_11__copy_loopINS_17_ClassicAlgPolicyEEENS_14__copy_trivialEEENS_11__wrap_iterIPKN4CGAL12Surface_meshINS8_7Point_3INS8_16Simple_cartesianIdEEEEE21Halfedge_connectivityEEESI_NS7_IPSF_EELi0EEENS_4pairIT0_T2_EESM_T1_SN_, symObjAddr: 0x35410, symBinAddr: 0x10003CCA0, symSize: 0xDC }
  - { offsetInCU: 0x5F968, offset: 0x6CB71, size: 0x8, addend: 0x0, symName: __ZNSt3__114__unwrap_rangeB8ue170006INS_11__wrap_iterIPKN4CGAL12Surface_meshINS2_7Point_3INS2_16Simple_cartesianIdEEEEE21Halfedge_connectivityEEESB_EENS_4pairIT0_SE_EET_SG_, symObjAddr: 0x354EC, symBinAddr: 0x10003CD7C, symSize: 0x70 }
  - { offsetInCU: 0x5FA8E, offset: 0x6CC97, size: 0x8, addend: 0x0, symName: __ZNSt3__113__unwrap_iterB8ue170006INS_11__wrap_iterIPN4CGAL12Surface_meshINS2_7Point_3INS2_16Simple_cartesianIdEEEEE21Halfedge_connectivityEEENS_18__unwrap_iter_implISB_Lb1EEELi0EEEDTclsrT0_8__unwrapclsr3stdE7declvalIT_EEEESF_, symObjAddr: 0x355A4, symBinAddr: 0x10003CE34, symSize: 0x2C }
  - { offsetInCU: 0x5FAD6, offset: 0x6CCDF, size: 0x8, addend: 0x0, symName: __ZNSt3__19make_pairB8ue170006INS_11__wrap_iterIPKN4CGAL12Surface_meshINS2_7Point_3INS2_16Simple_cartesianIdEEEEE21Halfedge_connectivityEEENS1_IPS9_EEEENS_4pairINS_18__unwrap_ref_decayIT_E4typeENSG_IT0_E4typeEEEOSH_OSK_, symObjAddr: 0x355D0, symBinAddr: 0x10003CE60, symSize: 0x38 }
  - { offsetInCU: 0x5FB25, offset: 0x6CD2E, size: 0x8, addend: 0x0, symName: __ZNSt3__114__rewrap_rangeB8ue170006INS_11__wrap_iterIPKN4CGAL12Surface_meshINS2_7Point_3INS2_16Simple_cartesianIdEEEEE21Halfedge_connectivityEEESB_EET_SD_T0_, symObjAddr: 0x35608, symBinAddr: 0x10003CE98, symSize: 0x3C }
  - { offsetInCU: 0x5FB77, offset: 0x6CD80, size: 0x8, addend: 0x0, symName: __ZNSt3__113__rewrap_iterB8ue170006INS_11__wrap_iterIPN4CGAL12Surface_meshINS2_7Point_3INS2_16Simple_cartesianIdEEEEE21Halfedge_connectivityEEESA_NS_18__unwrap_iter_implISB_Lb1EEEEET_SE_T0_, symObjAddr: 0x35644, symBinAddr: 0x10003CED4, symSize: 0x4C }
  - { offsetInCU: 0x5FBD2, offset: 0x6CDDB, size: 0x8, addend: 0x0, symName: __ZNSt3__19make_pairB8ue170006IPKN4CGAL12Surface_meshINS1_7Point_3INS1_16Simple_cartesianIdEEEEE21Halfedge_connectivityESA_EENS_4pairINS_18__unwrap_ref_decayIT_E4typeENSC_IT0_E4typeEEEOSD_OSG_, symObjAddr: 0x35690, symBinAddr: 0x10003CF20, symSize: 0x38 }
  - { offsetInCU: 0x5FC21, offset: 0x6CE2A, size: 0x8, addend: 0x0, symName: __ZNSt3__113__unwrap_iterB8ue170006INS_11__wrap_iterIPKN4CGAL12Surface_meshINS2_7Point_3INS2_16Simple_cartesianIdEEEEE21Halfedge_connectivityEEENS_18__unwrap_iter_implISC_Lb1EEELi0EEEDTclsrT0_8__unwrapclsr3stdE7declvalIT_EEEESG_, symObjAddr: 0x356C8, symBinAddr: 0x10003CF58, symSize: 0x2C }
  - { offsetInCU: 0x5FD98, offset: 0x6CFA1, size: 0x8, addend: 0x0, symName: __ZNSt3__112__to_addressB8ue170006INS_11__wrap_iterIPKN4CGAL12Surface_meshINS2_7Point_3INS2_16Simple_cartesianIdEEEEE21Halfedge_connectivityEEEvEEu7__decayIDTclsr19__to_address_helperIT_EE6__callclsr3stdE7declvalIRKSD_EEEEESF_, symObjAddr: 0x3578C, symBinAddr: 0x10003D01C, symSize: 0x24 }
  - { offsetInCU: 0x5FE73, offset: 0x6D07C, size: 0x8, addend: 0x0, symName: __ZNSt3__112__to_addressB8ue170006IKN4CGAL12Surface_meshINS1_7Point_3INS1_16Simple_cartesianIdEEEEE21Halfedge_connectivityEEEPT_SB_, symObjAddr: 0x3580C, symBinAddr: 0x10003D09C, symSize: 0x14 }
  - { offsetInCU: 0x5FEA8, offset: 0x6D0B1, size: 0x8, addend: 0x0, symName: __ZNSt3__119__copy_trivial_implB8ue170006IKN4CGAL12Surface_meshINS1_7Point_3INS1_16Simple_cartesianIdEEEEE21Halfedge_connectivityES8_EENS_4pairIPT_PT0_EESC_SC_SE_, symObjAddr: 0x35838, symBinAddr: 0x10003D0C8, symSize: 0x80 }
  - { offsetInCU: 0x5FF1A, offset: 0x6D123, size: 0x8, addend: 0x0, symName: __ZNSt3__119__constexpr_memmoveB8ue170006IN4CGAL12Surface_meshINS1_7Point_3INS1_16Simple_cartesianIdEEEEE21Halfedge_connectivityEKS8_Li0EEEPT_SB_PT0_NS_15__element_countE, symObjAddr: 0x358B8, symBinAddr: 0x10003D148, symSize: 0x64 }
  - { offsetInCU: 0x5FF88, offset: 0x6D191, size: 0x8, addend: 0x0, symName: __ZNSt3__19make_pairB8ue170006IRPKN4CGAL12Surface_meshINS1_7Point_3INS1_16Simple_cartesianIdEEEEE21Halfedge_connectivityEPS8_EENS_4pairINS_18__unwrap_ref_decayIT_E4typeENSE_IT0_E4typeEEEOSF_OSI_, symObjAddr: 0x3591C, symBinAddr: 0x10003D1AC, symSize: 0x38 }
  - { offsetInCU: 0x60032, offset: 0x6D23B, size: 0x8, addend: 0x0, symName: __ZNSt3__112__to_addressB8ue170006INS_11__wrap_iterIPN4CGAL12Surface_meshINS2_7Point_3INS2_16Simple_cartesianIdEEEEE21Halfedge_connectivityEEEvEEu7__decayIDTclsr19__to_address_helperIT_EE6__callclsr3stdE7declvalIRKSC_EEEEESE_, symObjAddr: 0x359EC, symBinAddr: 0x10003D27C, symSize: 0x24 }
  - { offsetInCU: 0x601E1, offset: 0x6D3EA, size: 0x8, addend: 0x0, symName: __ZNSt3__113__rewrap_iterB8ue170006INS_11__wrap_iterIPKN4CGAL12Surface_meshINS2_7Point_3INS2_16Simple_cartesianIdEEEEE21Halfedge_connectivityEEESB_NS_18__unwrap_iter_implISC_Lb1EEEEET_SF_T0_, symObjAddr: 0x35AF4, symBinAddr: 0x10003D384, symSize: 0x4C }
  - { offsetInCU: 0x6023C, offset: 0x6D445, size: 0x8, addend: 0x0, symName: __ZNSt3__18distanceB8ue170006IPN4CGAL12Surface_meshINS1_7Point_3INS1_16Simple_cartesianIdEEEEE21Halfedge_connectivityEEENS_15iterator_traitsIT_E15difference_typeESB_SB_, symObjAddr: 0x360DC, symBinAddr: 0x10003D96C, symSize: 0x2C }
  - { offsetInCU: 0x60285, offset: 0x6D48E, size: 0x8, addend: 0x0, symName: __ZNSt3__14nextB8ue170006IPN4CGAL12Surface_meshINS1_7Point_3INS1_16Simple_cartesianIdEEEEE21Halfedge_connectivityEEENS_9enable_ifIXsr29__has_input_iterator_categoryIT_EE5valueESB_E4typeESB_NS_15iterator_traitsISB_E15difference_typeE, symObjAddr: 0x36108, symBinAddr: 0x10003D998, symSize: 0x34 }
  - { offsetInCU: 0x602CF, offset: 0x6D4D8, size: 0x8, addend: 0x0, symName: __ZNSt3__19__advanceB8ue170006IPN4CGAL12Surface_meshINS1_7Point_3INS1_16Simple_cartesianIdEEEEE21Halfedge_connectivityEEEvRT_NS_15iterator_traitsISA_E15difference_typeENS_26random_access_iterator_tagE, symObjAddr: 0x36208, symBinAddr: 0x10003DA98, symSize: 0x28 }
  - { offsetInCU: 0x60318, offset: 0x6D521, size: 0x8, addend: 0x0, symName: __ZNSt3__110__distanceB8ue170006IPN4CGAL12Surface_meshINS1_7Point_3INS1_16Simple_cartesianIdEEEEE21Halfedge_connectivityEEENS_15iterator_traitsIT_E15difference_typeESB_SB_NS_26random_access_iterator_tagE, symObjAddr: 0x36274, symBinAddr: 0x10003DB04, symSize: 0x28 }
  - { offsetInCU: 0x6036D, offset: 0x6D576, size: 0x8, addend: 0x0, symName: __ZNSt3__18exchangeB8ue170006IPN4CGAL10Properties14Property_arrayINS1_12Surface_meshINS1_7Point_3INS1_16Simple_cartesianIdEEEEE21Halfedge_connectivityEEEDnEET_RSD_OT0_, symObjAddr: 0x363CC, symBinAddr: 0x10003DC5C, symSize: 0x2C }
  - { offsetInCU: 0x603CF, offset: 0x6D5D8, size: 0x8, addend: 0x0, symName: __ZNSt3__19make_pairB8ue170006IN4CGAL12Surface_meshINS1_7Point_3INS1_16Simple_cartesianIdEEEEE12Property_mapINS1_13SM_Face_indexENS7_17Face_connectivityEEEbEENS_4pairINS_18__unwrap_ref_decayIT_E4typeENSD_IT0_E4typeEEEOSE_OSH_, symObjAddr: 0x36830, symBinAddr: 0x10003E0C0, symSize: 0x40 }
  - { offsetInCU: 0x6041E, offset: 0x6D627, size: 0x8, addend: 0x0, symName: __ZNSt3__112__to_addressB8ue170006IN4CGAL12Surface_meshINS1_7Point_3INS1_16Simple_cartesianIdEEEEE17Face_connectivityEEEPT_SA_, symObjAddr: 0x373D4, symBinAddr: 0x10003EC64, symSize: 0x14 }
  - { offsetInCU: 0x60453, offset: 0x6D65C, size: 0x8, addend: 0x0, symName: __ZNSt3__119__allocate_at_leastB8ue170006INS_9allocatorIN4CGAL12Surface_meshINS2_7Point_3INS2_16Simple_cartesianIdEEEEE17Face_connectivityEEEEENS_19__allocation_resultINS_16allocator_traitsIT_E7pointerEEERSD_m, symObjAddr: 0x379A8, symBinAddr: 0x10003F238, symSize: 0x40 }
  - { offsetInCU: 0x6049C, offset: 0x6D6A5, size: 0x8, addend: 0x0, symName: __ZNSt3__142__uninitialized_allocator_move_if_noexceptB8ue170006INS_9allocatorIN4CGAL12Surface_meshINS2_7Point_3INS2_16Simple_cartesianIdEEEEE17Face_connectivityEEENS_16reverse_iteratorIPS9_EESD_S9_vEET1_RT_T0_SH_SE_, symObjAddr: 0x37B70, symBinAddr: 0x10003F400, symSize: 0x78 }
  - { offsetInCU: 0x60519, offset: 0x6D722, size: 0x8, addend: 0x0, symName: __ZNSt3__14swapB8ue170006IPN4CGAL12Surface_meshINS1_7Point_3INS1_16Simple_cartesianIdEEEEE17Face_connectivityEEENS_9enable_ifIXaasr21is_move_constructibleIT_EE5valuesr18is_move_assignableISB_EE5valueEvE4typeERSB_SE_, symObjAddr: 0x37C34, symBinAddr: 0x10003F4C4, symSize: 0x3C }
  - { offsetInCU: 0x60572, offset: 0x6D77B, size: 0x8, addend: 0x0, symName: __ZNSt3__14moveB8ue170006INS_16reverse_iteratorIPN4CGAL12Surface_meshINS2_7Point_3INS2_16Simple_cartesianIdEEEEE17Face_connectivityEEESB_EET0_T_SD_SC_, symObjAddr: 0x37D44, symBinAddr: 0x10003F5D4, symSize: 0x78 }
  - { offsetInCU: 0x605D4, offset: 0x6D7DD, size: 0x8, addend: 0x0, symName: __ZNSt3__16__moveB8ue170006INS_17_ClassicAlgPolicyENS_16reverse_iteratorIPN4CGAL12Surface_meshINS3_7Point_3INS3_16Simple_cartesianIdEEEEE17Face_connectivityEEESC_SC_EENS_4pairIT0_T2_EESE_T1_SF_, symObjAddr: 0x37DBC, symBinAddr: 0x10003F64C, symSize: 0x64 }
  - { offsetInCU: 0x60648, offset: 0x6D851, size: 0x8, addend: 0x0, symName: __ZNSt3__123__dispatch_copy_or_moveB8ue170006INS_17_ClassicAlgPolicyENS_11__move_loopIS1_EENS_14__move_trivialENS_16reverse_iteratorIPN4CGAL12Surface_meshINS6_7Point_3INS6_16Simple_cartesianIdEEEEE17Face_connectivityEEESF_SF_EENS_4pairIT2_T4_EESH_T3_SI_, symObjAddr: 0x37E20, symBinAddr: 0x10003F6B0, symSize: 0x64 }
  - { offsetInCU: 0x606CE, offset: 0x6D8D7, size: 0x8, addend: 0x0, symName: __ZNSt3__121__unwrap_and_dispatchB8ue170006INS_10__overloadINS_11__move_loopINS_17_ClassicAlgPolicyEEENS_14__move_trivialEEENS_16reverse_iteratorIPN4CGAL12Surface_meshINS8_7Point_3INS8_16Simple_cartesianIdEEEEE17Face_connectivityEEESH_SH_Li0EEENS_4pairIT0_T2_EESJ_T1_SK_, symObjAddr: 0x37E84, symBinAddr: 0x10003F714, symSize: 0x12C }
  - { offsetInCU: 0x6076A, offset: 0x6D973, size: 0x8, addend: 0x0, symName: __ZNSt3__114__unwrap_rangeB8ue170006INS_16reverse_iteratorIPN4CGAL12Surface_meshINS2_7Point_3INS2_16Simple_cartesianIdEEEEE17Face_connectivityEEESB_EENS_4pairIT0_SD_EET_SF_, symObjAddr: 0x37FB0, symBinAddr: 0x10003F840, symSize: 0x84 }
  - { offsetInCU: 0x60890, offset: 0x6DA99, size: 0x8, addend: 0x0, symName: __ZNSt3__113__unwrap_iterB8ue170006INS_16reverse_iteratorIPN4CGAL12Surface_meshINS2_7Point_3INS2_16Simple_cartesianIdEEEEE17Face_connectivityEEENS_18__unwrap_iter_implISB_Lb0EEELi0EEEDTclsrT0_8__unwrapclsr3stdE7declvalIT_EEEESF_, symObjAddr: 0x380D4, symBinAddr: 0x10003F964, symSize: 0x44 }
  - { offsetInCU: 0x608D8, offset: 0x6DAE1, size: 0x8, addend: 0x0, symName: __ZNSt3__19make_pairB8ue170006INS_16reverse_iteratorIPN4CGAL12Surface_meshINS2_7Point_3INS2_16Simple_cartesianIdEEEEE17Face_connectivityEEESB_EENS_4pairINS_18__unwrap_ref_decayIT_E4typeENSD_IT0_E4typeEEEOSE_OSH_, symObjAddr: 0x38118, symBinAddr: 0x10003F9A8, symSize: 0x38 }
  - { offsetInCU: 0x60927, offset: 0x6DB30, size: 0x8, addend: 0x0, symName: __ZNSt3__114__rewrap_rangeB8ue170006INS_16reverse_iteratorIPN4CGAL12Surface_meshINS2_7Point_3INS2_16Simple_cartesianIdEEEEE17Face_connectivityEEESB_EET_SC_T0_, symObjAddr: 0x38150, symBinAddr: 0x10003F9E0, symSize: 0x5C }
  - { offsetInCU: 0x60979, offset: 0x6DB82, size: 0x8, addend: 0x0, symName: __ZNSt3__113__rewrap_iterB8ue170006INS_16reverse_iteratorIPN4CGAL12Surface_meshINS2_7Point_3INS2_16Simple_cartesianIdEEEEE17Face_connectivityEEESB_NS_18__unwrap_iter_implISB_Lb0EEEEET_SE_T0_, symObjAddr: 0x381AC, symBinAddr: 0x10003FA3C, symSize: 0x74 }
  - { offsetInCU: 0x609D4, offset: 0x6DBDD, size: 0x8, addend: 0x0, symName: __ZNSt3__1neB8ue170006IPN4CGAL12Surface_meshINS1_7Point_3INS1_16Simple_cartesianIdEEEEE17Face_connectivityES9_EEbRKNS_16reverse_iteratorIT_EERKNSA_IT0_EE, symObjAddr: 0x38220, symBinAddr: 0x10003FAB0, symSize: 0x48 }
  - { offsetInCU: 0x60A96, offset: 0x6DC9F, size: 0x8, addend: 0x0, symName: __ZNSt3__122__make_exception_guardB8ue170006INS_6vectorIN4CGAL12Surface_meshINS2_7Point_3INS2_16Simple_cartesianIdEEEEE17Face_connectivityENS_9allocatorIS9_EEE16__destroy_vectorEEENS_28__exception_guard_exceptionsIT_EESF_, symObjAddr: 0x38F64, symBinAddr: 0x1000407F4, symSize: 0x40 }
  - { offsetInCU: 0x60ACB, offset: 0x6DCD4, size: 0x8, addend: 0x0, symName: __ZNSt3__130__uninitialized_allocator_copyB8ue170006INS_9allocatorIN4CGAL12Surface_meshINS2_7Point_3INS2_16Simple_cartesianIdEEEEE17Face_connectivityEEEPS9_SB_SB_EET2_RT_T0_T1_SC_, symObjAddr: 0x3917C, symBinAddr: 0x100040A0C, symSize: 0x80 }
  - { offsetInCU: 0x60B68, offset: 0x6DD71, size: 0x8, addend: 0x0, symName: __ZNSt3__114__unwrap_rangeB8ue170006IPN4CGAL12Surface_meshINS1_7Point_3INS1_16Simple_cartesianIdEEEEE17Face_connectivityES9_EENS_4pairIT0_SB_EET_SD_, symObjAddr: 0x391FC, symBinAddr: 0x100040A8C, symSize: 0x60 }
  - { offsetInCU: 0x60BBA, offset: 0x6DDC3, size: 0x8, addend: 0x0, symName: __ZNSt3__135__uninitialized_allocator_copy_implB8ue170006INS_9allocatorIN4CGAL12Surface_meshINS2_7Point_3INS2_16Simple_cartesianIdEEEEE17Face_connectivityEEES9_S9_S9_LPv0EEEPT2_RT_PT0_SH_SD_, symObjAddr: 0x3925C, symBinAddr: 0x100040AEC, symSize: 0x38 }
  - { offsetInCU: 0x60C3B, offset: 0x6DE44, size: 0x8, addend: 0x0, symName: __ZNSt3__113__unwrap_iterB8ue170006IPN4CGAL12Surface_meshINS1_7Point_3INS1_16Simple_cartesianIdEEEEE17Face_connectivityENS_18__unwrap_iter_implIS9_Lb1EEELi0EEEDTclsrT0_8__unwrapclsr3stdE7declvalIT_EEEESD_, symObjAddr: 0x39294, symBinAddr: 0x100040B24, symSize: 0x24 }
  - { offsetInCU: 0x60C83, offset: 0x6DE8C, size: 0x8, addend: 0x0, symName: __ZNSt3__113__rewrap_iterB8ue170006IPN4CGAL12Surface_meshINS1_7Point_3INS1_16Simple_cartesianIdEEEEE17Face_connectivityES9_NS_18__unwrap_iter_implIS9_Lb1EEEEET_SC_T0_, symObjAddr: 0x392B8, symBinAddr: 0x100040B48, symSize: 0x3C }
  - { offsetInCU: 0x60CDE, offset: 0x6DEE7, size: 0x8, addend: 0x0, symName: __ZNSt3__19make_pairB8ue170006IPN4CGAL12Surface_meshINS1_7Point_3INS1_16Simple_cartesianIdEEEEE17Face_connectivityES9_EENS_4pairINS_18__unwrap_ref_decayIT_E4typeENSB_IT0_E4typeEEEOSC_OSF_, symObjAddr: 0x392F4, symBinAddr: 0x100040B84, symSize: 0x38 }
  - { offsetInCU: 0x60E30, offset: 0x6E039, size: 0x8, addend: 0x0, symName: __ZNSt3__14copyB8ue170006IPN4CGAL12Surface_meshINS1_7Point_3INS1_16Simple_cartesianIdEEEEE17Face_connectivityES9_EET0_T_SB_SA_, symObjAddr: 0x3939C, symBinAddr: 0x100040C2C, symSize: 0x40 }
  - { offsetInCU: 0x60E92, offset: 0x6E09B, size: 0x8, addend: 0x0, symName: __ZNSt3__16__copyB8ue170006INS_17_ClassicAlgPolicyEPN4CGAL12Surface_meshINS2_7Point_3INS2_16Simple_cartesianIdEEEEE17Face_connectivityESA_SA_EENS_4pairIT0_T2_EESC_T1_SD_, symObjAddr: 0x393DC, symBinAddr: 0x100040C6C, symSize: 0x44 }
  - { offsetInCU: 0x60F06, offset: 0x6E10F, size: 0x8, addend: 0x0, symName: __ZNSt3__123__dispatch_copy_or_moveB8ue170006INS_17_ClassicAlgPolicyENS_11__copy_loopIS1_EENS_14__copy_trivialEPN4CGAL12Surface_meshINS5_7Point_3INS5_16Simple_cartesianIdEEEEE17Face_connectivityESD_SD_EENS_4pairIT2_T4_EESF_T3_SG_, symObjAddr: 0x39420, symBinAddr: 0x100040CB0, symSize: 0x44 }
  - { offsetInCU: 0x60F8C, offset: 0x6E195, size: 0x8, addend: 0x0, symName: __ZNSt3__121__unwrap_and_dispatchB8ue170006INS_10__overloadINS_11__copy_loopINS_17_ClassicAlgPolicyEEENS_14__copy_trivialEEEPN4CGAL12Surface_meshINS7_7Point_3INS7_16Simple_cartesianIdEEEEE17Face_connectivityESF_SF_Li0EEENS_4pairIT0_T2_EESH_T1_SI_, symObjAddr: 0x39464, symBinAddr: 0x100040CF4, symSize: 0xB4 }
  - { offsetInCU: 0x61026, offset: 0x6E22F, size: 0x8, addend: 0x0, symName: __ZNSt3__114__rewrap_rangeB8ue170006IPN4CGAL12Surface_meshINS1_7Point_3INS1_16Simple_cartesianIdEEEEE17Face_connectivityES9_EET_SA_T0_, symObjAddr: 0x39560, symBinAddr: 0x100040DF0, symSize: 0x2C }
  - { offsetInCU: 0x61078, offset: 0x6E281, size: 0x8, addend: 0x0, symName: __ZNSt3__119__copy_trivial_implB8ue170006IN4CGAL12Surface_meshINS1_7Point_3INS1_16Simple_cartesianIdEEEEE17Face_connectivityES8_EENS_4pairIPT_PT0_EESB_SB_SD_, symObjAddr: 0x3958C, symBinAddr: 0x100040E1C, symSize: 0x80 }
  - { offsetInCU: 0x610EA, offset: 0x6E2F3, size: 0x8, addend: 0x0, symName: __ZNSt3__119__constexpr_memmoveB8ue170006IN4CGAL12Surface_meshINS1_7Point_3INS1_16Simple_cartesianIdEEEEE17Face_connectivityES8_Li0EEEPT_SA_PT0_NS_15__element_countE, symObjAddr: 0x3960C, symBinAddr: 0x100040E9C, symSize: 0x64 }
  - { offsetInCU: 0x61158, offset: 0x6E361, size: 0x8, addend: 0x0, symName: __ZNSt3__19make_pairB8ue170006IRPN4CGAL12Surface_meshINS1_7Point_3INS1_16Simple_cartesianIdEEEEE17Face_connectivityES9_EENS_4pairINS_18__unwrap_ref_decayIT_E4typeENSC_IT0_E4typeEEEOSD_OSG_, symObjAddr: 0x39670, symBinAddr: 0x100040F00, symSize: 0x38 }
  - { offsetInCU: 0x61203, offset: 0x6E40C, size: 0x8, addend: 0x0, symName: __ZNSt3__116__swap_allocatorB8ue170006INS_9allocatorIN4CGAL12Surface_meshINS2_7Point_3INS2_16Simple_cartesianIdEEEEE17Face_connectivityEEEEEvRT_SC_NS_17integral_constantIbLb0EEE, symObjAddr: 0x397D4, symBinAddr: 0x100041064, symSize: 0x14 }
  - { offsetInCU: 0x6124B, offset: 0x6E454, size: 0x8, addend: 0x0, symName: __ZNSt3__14copyB8ue170006INS_11__wrap_iterIPKN4CGAL12Surface_meshINS2_7Point_3INS2_16Simple_cartesianIdEEEEE17Face_connectivityEEENS1_IPS9_EEEET0_T_SG_SF_, symObjAddr: 0x399BC, symBinAddr: 0x10004124C, symSize: 0x60 }
  - { offsetInCU: 0x612AD, offset: 0x6E4B6, size: 0x8, addend: 0x0, symName: __ZNSt3__16__copyB8ue170006INS_17_ClassicAlgPolicyENS_11__wrap_iterIPKN4CGAL12Surface_meshINS3_7Point_3INS3_16Simple_cartesianIdEEEEE17Face_connectivityEEESD_NS2_IPSA_EEEENS_4pairIT0_T2_EESH_T1_SI_, symObjAddr: 0x39AE8, symBinAddr: 0x100041378, symSize: 0x5C }
  - { offsetInCU: 0x61321, offset: 0x6E52A, size: 0x8, addend: 0x0, symName: __ZNSt3__123__dispatch_copy_or_moveB8ue170006INS_17_ClassicAlgPolicyENS_11__copy_loopIS1_EENS_14__copy_trivialENS_11__wrap_iterIPKN4CGAL12Surface_meshINS6_7Point_3INS6_16Simple_cartesianIdEEEEE17Face_connectivityEEESG_NS5_IPSD_EEEENS_4pairIT2_T4_EESK_T3_SL_, symObjAddr: 0x39B44, symBinAddr: 0x1000413D4, symSize: 0x5C }
  - { offsetInCU: 0x613A7, offset: 0x6E5B0, size: 0x8, addend: 0x0, symName: __ZNSt3__121__unwrap_and_dispatchB8ue170006INS_10__overloadINS_11__copy_loopINS_17_ClassicAlgPolicyEEENS_14__copy_trivialEEENS_11__wrap_iterIPKN4CGAL12Surface_meshINS8_7Point_3INS8_16Simple_cartesianIdEEEEE17Face_connectivityEEESI_NS7_IPSF_EELi0EEENS_4pairIT0_T2_EESM_T1_SN_, symObjAddr: 0x39BA0, symBinAddr: 0x100041430, symSize: 0xDC }
  - { offsetInCU: 0x61442, offset: 0x6E64B, size: 0x8, addend: 0x0, symName: __ZNSt3__114__unwrap_rangeB8ue170006INS_11__wrap_iterIPKN4CGAL12Surface_meshINS2_7Point_3INS2_16Simple_cartesianIdEEEEE17Face_connectivityEEESB_EENS_4pairIT0_SE_EET_SG_, symObjAddr: 0x39C7C, symBinAddr: 0x10004150C, symSize: 0x70 }
  - { offsetInCU: 0x61568, offset: 0x6E771, size: 0x8, addend: 0x0, symName: __ZNSt3__113__unwrap_iterB8ue170006INS_11__wrap_iterIPN4CGAL12Surface_meshINS2_7Point_3INS2_16Simple_cartesianIdEEEEE17Face_connectivityEEENS_18__unwrap_iter_implISB_Lb1EEELi0EEEDTclsrT0_8__unwrapclsr3stdE7declvalIT_EEEESF_, symObjAddr: 0x39D34, symBinAddr: 0x1000415C4, symSize: 0x2C }
  - { offsetInCU: 0x615B0, offset: 0x6E7B9, size: 0x8, addend: 0x0, symName: __ZNSt3__19make_pairB8ue170006INS_11__wrap_iterIPKN4CGAL12Surface_meshINS2_7Point_3INS2_16Simple_cartesianIdEEEEE17Face_connectivityEEENS1_IPS9_EEEENS_4pairINS_18__unwrap_ref_decayIT_E4typeENSG_IT0_E4typeEEEOSH_OSK_, symObjAddr: 0x39D60, symBinAddr: 0x1000415F0, symSize: 0x38 }
  - { offsetInCU: 0x615FF, offset: 0x6E808, size: 0x8, addend: 0x0, symName: __ZNSt3__114__rewrap_rangeB8ue170006INS_11__wrap_iterIPKN4CGAL12Surface_meshINS2_7Point_3INS2_16Simple_cartesianIdEEEEE17Face_connectivityEEESB_EET_SD_T0_, symObjAddr: 0x39D98, symBinAddr: 0x100041628, symSize: 0x3C }
  - { offsetInCU: 0x61651, offset: 0x6E85A, size: 0x8, addend: 0x0, symName: __ZNSt3__113__rewrap_iterB8ue170006INS_11__wrap_iterIPN4CGAL12Surface_meshINS2_7Point_3INS2_16Simple_cartesianIdEEEEE17Face_connectivityEEESA_NS_18__unwrap_iter_implISB_Lb1EEEEET_SE_T0_, symObjAddr: 0x39DD4, symBinAddr: 0x100041664, symSize: 0x4C }
  - { offsetInCU: 0x616AC, offset: 0x6E8B5, size: 0x8, addend: 0x0, symName: __ZNSt3__19make_pairB8ue170006IPKN4CGAL12Surface_meshINS1_7Point_3INS1_16Simple_cartesianIdEEEEE17Face_connectivityESA_EENS_4pairINS_18__unwrap_ref_decayIT_E4typeENSC_IT0_E4typeEEEOSD_OSG_, symObjAddr: 0x39E20, symBinAddr: 0x1000416B0, symSize: 0x38 }
  - { offsetInCU: 0x616FB, offset: 0x6E904, size: 0x8, addend: 0x0, symName: __ZNSt3__113__unwrap_iterB8ue170006INS_11__wrap_iterIPKN4CGAL12Surface_meshINS2_7Point_3INS2_16Simple_cartesianIdEEEEE17Face_connectivityEEENS_18__unwrap_iter_implISC_Lb1EEELi0EEEDTclsrT0_8__unwrapclsr3stdE7declvalIT_EEEESG_, symObjAddr: 0x39E58, symBinAddr: 0x1000416E8, symSize: 0x2C }
  - { offsetInCU: 0x61872, offset: 0x6EA7B, size: 0x8, addend: 0x0, symName: __ZNSt3__112__to_addressB8ue170006INS_11__wrap_iterIPKN4CGAL12Surface_meshINS2_7Point_3INS2_16Simple_cartesianIdEEEEE17Face_connectivityEEEvEEu7__decayIDTclsr19__to_address_helperIT_EE6__callclsr3stdE7declvalIRKSD_EEEEESF_, symObjAddr: 0x39F1C, symBinAddr: 0x1000417AC, symSize: 0x24 }
  - { offsetInCU: 0x6194D, offset: 0x6EB56, size: 0x8, addend: 0x0, symName: __ZNSt3__112__to_addressB8ue170006IKN4CGAL12Surface_meshINS1_7Point_3INS1_16Simple_cartesianIdEEEEE17Face_connectivityEEEPT_SB_, symObjAddr: 0x39F9C, symBinAddr: 0x10004182C, symSize: 0x14 }
  - { offsetInCU: 0x61982, offset: 0x6EB8B, size: 0x8, addend: 0x0, symName: __ZNSt3__119__copy_trivial_implB8ue170006IKN4CGAL12Surface_meshINS1_7Point_3INS1_16Simple_cartesianIdEEEEE17Face_connectivityES8_EENS_4pairIPT_PT0_EESC_SC_SE_, symObjAddr: 0x39FC8, symBinAddr: 0x100041858, symSize: 0x80 }
  - { offsetInCU: 0x619F4, offset: 0x6EBFD, size: 0x8, addend: 0x0, symName: __ZNSt3__119__constexpr_memmoveB8ue170006IN4CGAL12Surface_meshINS1_7Point_3INS1_16Simple_cartesianIdEEEEE17Face_connectivityEKS8_Li0EEEPT_SB_PT0_NS_15__element_countE, symObjAddr: 0x3A048, symBinAddr: 0x1000418D8, symSize: 0x64 }
  - { offsetInCU: 0x61A62, offset: 0x6EC6B, size: 0x8, addend: 0x0, symName: __ZNSt3__19make_pairB8ue170006IRPKN4CGAL12Surface_meshINS1_7Point_3INS1_16Simple_cartesianIdEEEEE17Face_connectivityEPS8_EENS_4pairINS_18__unwrap_ref_decayIT_E4typeENSE_IT0_E4typeEEEOSF_OSI_, symObjAddr: 0x3A0AC, symBinAddr: 0x10004193C, symSize: 0x38 }
  - { offsetInCU: 0x61B0C, offset: 0x6ED15, size: 0x8, addend: 0x0, symName: __ZNSt3__112__to_addressB8ue170006INS_11__wrap_iterIPN4CGAL12Surface_meshINS2_7Point_3INS2_16Simple_cartesianIdEEEEE17Face_connectivityEEEvEEu7__decayIDTclsr19__to_address_helperIT_EE6__callclsr3stdE7declvalIRKSC_EEEEESE_, symObjAddr: 0x3A17C, symBinAddr: 0x100041A0C, symSize: 0x24 }
  - { offsetInCU: 0x61CBB, offset: 0x6EEC4, size: 0x8, addend: 0x0, symName: __ZNSt3__113__rewrap_iterB8ue170006INS_11__wrap_iterIPKN4CGAL12Surface_meshINS2_7Point_3INS2_16Simple_cartesianIdEEEEE17Face_connectivityEEESB_NS_18__unwrap_iter_implISC_Lb1EEEEET_SF_T0_, symObjAddr: 0x3A284, symBinAddr: 0x100041B14, symSize: 0x4C }
  - { offsetInCU: 0x61D16, offset: 0x6EF1F, size: 0x8, addend: 0x0, symName: __ZNSt3__18distanceB8ue170006IPN4CGAL12Surface_meshINS1_7Point_3INS1_16Simple_cartesianIdEEEEE17Face_connectivityEEENS_15iterator_traitsIT_E15difference_typeESB_SB_, symObjAddr: 0x3A86C, symBinAddr: 0x1000420FC, symSize: 0x2C }
  - { offsetInCU: 0x61D5F, offset: 0x6EF68, size: 0x8, addend: 0x0, symName: __ZNSt3__14nextB8ue170006IPN4CGAL12Surface_meshINS1_7Point_3INS1_16Simple_cartesianIdEEEEE17Face_connectivityEEENS_9enable_ifIXsr29__has_input_iterator_categoryIT_EE5valueESB_E4typeESB_NS_15iterator_traitsISB_E15difference_typeE, symObjAddr: 0x3A898, symBinAddr: 0x100042128, symSize: 0x34 }
  - { offsetInCU: 0x61DA9, offset: 0x6EFB2, size: 0x8, addend: 0x0, symName: __ZNSt3__19__advanceB8ue170006IPN4CGAL12Surface_meshINS1_7Point_3INS1_16Simple_cartesianIdEEEEE17Face_connectivityEEEvRT_NS_15iterator_traitsISA_E15difference_typeENS_26random_access_iterator_tagE, symObjAddr: 0x3A998, symBinAddr: 0x100042228, symSize: 0x28 }
  - { offsetInCU: 0x61DF2, offset: 0x6EFFB, size: 0x8, addend: 0x0, symName: __ZNSt3__110__distanceB8ue170006IPN4CGAL12Surface_meshINS1_7Point_3INS1_16Simple_cartesianIdEEEEE17Face_connectivityEEENS_15iterator_traitsIT_E15difference_typeESB_SB_NS_26random_access_iterator_tagE, symObjAddr: 0x3AA04, symBinAddr: 0x100042294, symSize: 0x28 }
  - { offsetInCU: 0x61E47, offset: 0x6F050, size: 0x8, addend: 0x0, symName: __ZNSt3__18exchangeB8ue170006IPN4CGAL10Properties14Property_arrayINS1_12Surface_meshINS1_7Point_3INS1_16Simple_cartesianIdEEEEE17Face_connectivityEEEDnEET_RSD_OT0_, symObjAddr: 0x3AB5C, symBinAddr: 0x1000423EC, symSize: 0x2C }
  - { offsetInCU: 0x61EA9, offset: 0x6F0B2, size: 0x8, addend: 0x0, symName: __ZNSt3__19make_pairB8ue170006IN4CGAL12Surface_meshINS1_7Point_3INS1_16Simple_cartesianIdEEEEE12Property_mapINS1_15SM_Vertex_indexES6_EEbEENS_4pairINS_18__unwrap_ref_decayIT_E4typeENSC_IT0_E4typeEEEOSD_OSG_, symObjAddr: 0x3AF44, symBinAddr: 0x1000427D4, symSize: 0x40 }
  - { offsetInCU: 0x61EF8, offset: 0x6F101, size: 0x8, addend: 0x0, symName: __ZNSt3__122__make_exception_guardB8ue170006INS_6vectorIN4CGAL7Point_3INS2_16Simple_cartesianIdEEEENS_9allocatorIS6_EEE16__destroy_vectorEEENS_28__exception_guard_exceptionsIT_EESC_, symObjAddr: 0x3BEF8, symBinAddr: 0x100043788, symSize: 0x40 }
  - { offsetInCU: 0x61F2D, offset: 0x6F136, size: 0x8, addend: 0x0, symName: __ZNSt3__130__uninitialized_allocator_copyB8ue170006INS_9allocatorIN4CGAL7Point_3INS2_16Simple_cartesianIdEEEEEEPS6_S8_S8_EET2_RT_T0_T1_S9_, symObjAddr: 0x3C118, symBinAddr: 0x1000439A8, symSize: 0x80 }
  - { offsetInCU: 0x61FCA, offset: 0x6F1D3, size: 0x8, addend: 0x0, symName: __ZNSt3__114__unwrap_rangeB8ue170006IPN4CGAL7Point_3INS1_16Simple_cartesianIdEEEES6_EENS_4pairIT0_S8_EET_SA_, symObjAddr: 0x3C198, symBinAddr: 0x100043A28, symSize: 0x60 }
  - { offsetInCU: 0x6201C, offset: 0x6F225, size: 0x8, addend: 0x0, symName: __ZNSt3__135__uninitialized_allocator_copy_implB8ue170006INS_9allocatorIN4CGAL7Point_3INS2_16Simple_cartesianIdEEEEEES6_S6_S6_LPv0EEEPT2_RT_PT0_SE_SA_, symObjAddr: 0x3C1F8, symBinAddr: 0x100043A88, symSize: 0x38 }
  - { offsetInCU: 0x6209D, offset: 0x6F2A6, size: 0x8, addend: 0x0, symName: __ZNSt3__113__unwrap_iterB8ue170006IPN4CGAL7Point_3INS1_16Simple_cartesianIdEEEENS_18__unwrap_iter_implIS6_Lb1EEELi0EEEDTclsrT0_8__unwrapclsr3stdE7declvalIT_EEEESA_, symObjAddr: 0x3C230, symBinAddr: 0x100043AC0, symSize: 0x24 }
  - { offsetInCU: 0x620E5, offset: 0x6F2EE, size: 0x8, addend: 0x0, symName: __ZNSt3__113__rewrap_iterB8ue170006IPN4CGAL7Point_3INS1_16Simple_cartesianIdEEEES6_NS_18__unwrap_iter_implIS6_Lb1EEEEET_S9_T0_, symObjAddr: 0x3C254, symBinAddr: 0x100043AE4, symSize: 0x3C }
  - { offsetInCU: 0x62140, offset: 0x6F349, size: 0x8, addend: 0x0, symName: __ZNSt3__19make_pairB8ue170006IPN4CGAL7Point_3INS1_16Simple_cartesianIdEEEES6_EENS_4pairINS_18__unwrap_ref_decayIT_E4typeENS8_IT0_E4typeEEEOS9_OSC_, symObjAddr: 0x3C290, symBinAddr: 0x100043B20, symSize: 0x38 }
  - { offsetInCU: 0x62292, offset: 0x6F49B, size: 0x8, addend: 0x0, symName: __ZNSt3__14copyB8ue170006IPN4CGAL7Point_3INS1_16Simple_cartesianIdEEEES6_EET0_T_S8_S7_, symObjAddr: 0x3C338, symBinAddr: 0x100043BC8, symSize: 0x40 }
  - { offsetInCU: 0x622F4, offset: 0x6F4FD, size: 0x8, addend: 0x0, symName: __ZNSt3__16__copyB8ue170006INS_17_ClassicAlgPolicyEPN4CGAL7Point_3INS2_16Simple_cartesianIdEEEES7_S7_EENS_4pairIT0_T2_EES9_T1_SA_, symObjAddr: 0x3C378, symBinAddr: 0x100043C08, symSize: 0x44 }
  - { offsetInCU: 0x62368, offset: 0x6F571, size: 0x8, addend: 0x0, symName: __ZNSt3__123__dispatch_copy_or_moveB8ue170006INS_17_ClassicAlgPolicyENS_11__copy_loopIS1_EENS_14__copy_trivialEPN4CGAL7Point_3INS5_16Simple_cartesianIdEEEESA_SA_EENS_4pairIT2_T4_EESC_T3_SD_, symObjAddr: 0x3C3BC, symBinAddr: 0x100043C4C, symSize: 0x44 }
  - { offsetInCU: 0x623EE, offset: 0x6F5F7, size: 0x8, addend: 0x0, symName: __ZNSt3__121__unwrap_and_dispatchB8ue170006INS_10__overloadINS_11__copy_loopINS_17_ClassicAlgPolicyEEENS_14__copy_trivialEEEPN4CGAL7Point_3INS7_16Simple_cartesianIdEEEESC_SC_Li0EEENS_4pairIT0_T2_EESE_T1_SF_, symObjAddr: 0x3C400, symBinAddr: 0x100043C90, symSize: 0xB4 }
  - { offsetInCU: 0x62488, offset: 0x6F691, size: 0x8, addend: 0x0, symName: __ZNSt3__114__rewrap_rangeB8ue170006IPN4CGAL7Point_3INS1_16Simple_cartesianIdEEEES6_EET_S7_T0_, symObjAddr: 0x3C4FC, symBinAddr: 0x100043D8C, symSize: 0x2C }
  - { offsetInCU: 0x624DA, offset: 0x6F6E3, size: 0x8, addend: 0x0, symName: __ZNSt3__119__copy_trivial_implB8ue170006IN4CGAL7Point_3INS1_16Simple_cartesianIdEEEES5_EENS_4pairIPT_PT0_EES8_S8_SA_, symObjAddr: 0x3C528, symBinAddr: 0x100043DB8, symSize: 0x88 }
  - { offsetInCU: 0x6254C, offset: 0x6F755, size: 0x8, addend: 0x0, symName: __ZNSt3__119__constexpr_memmoveB8ue170006IN4CGAL7Point_3INS1_16Simple_cartesianIdEEEES5_Li0EEEPT_S7_PT0_NS_15__element_countE, symObjAddr: 0x3C5B0, symBinAddr: 0x100043E40, symSize: 0x68 }
  - { offsetInCU: 0x625BA, offset: 0x6F7C3, size: 0x8, addend: 0x0, symName: __ZNSt3__19make_pairB8ue170006IRPN4CGAL7Point_3INS1_16Simple_cartesianIdEEEES6_EENS_4pairINS_18__unwrap_ref_decayIT_E4typeENS9_IT0_E4typeEEEOSA_OSD_, symObjAddr: 0x3C618, symBinAddr: 0x100043EA8, symSize: 0x38 }
  - { offsetInCU: 0x62665, offset: 0x6F86E, size: 0x8, addend: 0x0, symName: __ZNSt3__116__swap_allocatorB8ue170006INS_9allocatorIN4CGAL7Point_3INS2_16Simple_cartesianIdEEEEEEEEvRT_S9_NS_17integral_constantIbLb0EEE, symObjAddr: 0x3C784, symBinAddr: 0x100044014, symSize: 0x14 }
  - { offsetInCU: 0x626AD, offset: 0x6F8B6, size: 0x8, addend: 0x0, symName: __ZNSt3__14copyB8ue170006INS_11__wrap_iterIPKN4CGAL7Point_3INS2_16Simple_cartesianIdEEEEEENS1_IPS6_EEEET0_T_SD_SC_, symObjAddr: 0x3C798, symBinAddr: 0x100044028, symSize: 0x60 }
  - { offsetInCU: 0x6270F, offset: 0x6F918, size: 0x8, addend: 0x0, symName: __ZNSt3__16__copyB8ue170006INS_17_ClassicAlgPolicyENS_11__wrap_iterIPKN4CGAL7Point_3INS3_16Simple_cartesianIdEEEEEESA_NS2_IPS7_EEEENS_4pairIT0_T2_EESE_T1_SF_, symObjAddr: 0x3C8C4, symBinAddr: 0x100044154, symSize: 0x5C }
  - { offsetInCU: 0x62783, offset: 0x6F98C, size: 0x8, addend: 0x0, symName: __ZNSt3__123__dispatch_copy_or_moveB8ue170006INS_17_ClassicAlgPolicyENS_11__copy_loopIS1_EENS_14__copy_trivialENS_11__wrap_iterIPKN4CGAL7Point_3INS6_16Simple_cartesianIdEEEEEESD_NS5_IPSA_EEEENS_4pairIT2_T4_EESH_T3_SI_, symObjAddr: 0x3C920, symBinAddr: 0x1000441B0, symSize: 0x5C }
  - { offsetInCU: 0x62809, offset: 0x6FA12, size: 0x8, addend: 0x0, symName: __ZNSt3__121__unwrap_and_dispatchB8ue170006INS_10__overloadINS_11__copy_loopINS_17_ClassicAlgPolicyEEENS_14__copy_trivialEEENS_11__wrap_iterIPKN4CGAL7Point_3INS8_16Simple_cartesianIdEEEEEESF_NS7_IPSC_EELi0EEENS_4pairIT0_T2_EESJ_T1_SK_, symObjAddr: 0x3C97C, symBinAddr: 0x10004420C, symSize: 0xDC }
  - { offsetInCU: 0x628A4, offset: 0x6FAAD, size: 0x8, addend: 0x0, symName: __ZNSt3__114__unwrap_rangeB8ue170006INS_11__wrap_iterIPKN4CGAL7Point_3INS2_16Simple_cartesianIdEEEEEES8_EENS_4pairIT0_SB_EET_SD_, symObjAddr: 0x3CA58, symBinAddr: 0x1000442E8, symSize: 0x70 }
  - { offsetInCU: 0x629CA, offset: 0x6FBD3, size: 0x8, addend: 0x0, symName: __ZNSt3__113__unwrap_iterB8ue170006INS_11__wrap_iterIPN4CGAL7Point_3INS2_16Simple_cartesianIdEEEEEENS_18__unwrap_iter_implIS8_Lb1EEELi0EEEDTclsrT0_8__unwrapclsr3stdE7declvalIT_EEEESC_, symObjAddr: 0x3CB10, symBinAddr: 0x1000443A0, symSize: 0x2C }
  - { offsetInCU: 0x62A12, offset: 0x6FC1B, size: 0x8, addend: 0x0, symName: __ZNSt3__19make_pairB8ue170006INS_11__wrap_iterIPKN4CGAL7Point_3INS2_16Simple_cartesianIdEEEEEENS1_IPS6_EEEENS_4pairINS_18__unwrap_ref_decayIT_E4typeENSD_IT0_E4typeEEEOSE_OSH_, symObjAddr: 0x3CB3C, symBinAddr: 0x1000443CC, symSize: 0x38 }
  - { offsetInCU: 0x62A61, offset: 0x6FC6A, size: 0x8, addend: 0x0, symName: __ZNSt3__114__rewrap_rangeB8ue170006INS_11__wrap_iterIPKN4CGAL7Point_3INS2_16Simple_cartesianIdEEEEEES8_EET_SA_T0_, symObjAddr: 0x3CB74, symBinAddr: 0x100044404, symSize: 0x3C }
  - { offsetInCU: 0x62AB3, offset: 0x6FCBC, size: 0x8, addend: 0x0, symName: __ZNSt3__113__rewrap_iterB8ue170006INS_11__wrap_iterIPN4CGAL7Point_3INS2_16Simple_cartesianIdEEEEEES7_NS_18__unwrap_iter_implIS8_Lb1EEEEET_SB_T0_, symObjAddr: 0x3CBB0, symBinAddr: 0x100044440, symSize: 0x4C }
  - { offsetInCU: 0x62B0E, offset: 0x6FD17, size: 0x8, addend: 0x0, symName: __ZNSt3__19make_pairB8ue170006IPKN4CGAL7Point_3INS1_16Simple_cartesianIdEEEES7_EENS_4pairINS_18__unwrap_ref_decayIT_E4typeENS9_IT0_E4typeEEEOSA_OSD_, symObjAddr: 0x3CBFC, symBinAddr: 0x10004448C, symSize: 0x38 }
  - { offsetInCU: 0x62B5D, offset: 0x6FD66, size: 0x8, addend: 0x0, symName: __ZNSt3__113__unwrap_iterB8ue170006INS_11__wrap_iterIPKN4CGAL7Point_3INS2_16Simple_cartesianIdEEEEEENS_18__unwrap_iter_implIS9_Lb1EEELi0EEEDTclsrT0_8__unwrapclsr3stdE7declvalIT_EEEESD_, symObjAddr: 0x3CC34, symBinAddr: 0x1000444C4, symSize: 0x2C }
  - { offsetInCU: 0x62CD4, offset: 0x6FEDD, size: 0x8, addend: 0x0, symName: __ZNSt3__112__to_addressB8ue170006INS_11__wrap_iterIPKN4CGAL7Point_3INS2_16Simple_cartesianIdEEEEEEvEEu7__decayIDTclsr19__to_address_helperIT_EE6__callclsr3stdE7declvalIRKSA_EEEEESC_, symObjAddr: 0x3CCF8, symBinAddr: 0x100044588, symSize: 0x24 }
  - { offsetInCU: 0x62DAF, offset: 0x6FFB8, size: 0x8, addend: 0x0, symName: __ZNSt3__112__to_addressB8ue170006IKN4CGAL7Point_3INS1_16Simple_cartesianIdEEEEEEPT_S8_, symObjAddr: 0x3CD78, symBinAddr: 0x100044608, symSize: 0x14 }
  - { offsetInCU: 0x62DE4, offset: 0x6FFED, size: 0x8, addend: 0x0, symName: __ZNSt3__119__copy_trivial_implB8ue170006IKN4CGAL7Point_3INS1_16Simple_cartesianIdEEEES5_EENS_4pairIPT_PT0_EES9_S9_SB_, symObjAddr: 0x3CDA4, symBinAddr: 0x100044634, symSize: 0x88 }
  - { offsetInCU: 0x62E56, offset: 0x7005F, size: 0x8, addend: 0x0, symName: __ZNSt3__119__constexpr_memmoveB8ue170006IN4CGAL7Point_3INS1_16Simple_cartesianIdEEEEKS5_Li0EEEPT_S8_PT0_NS_15__element_countE, symObjAddr: 0x3CE2C, symBinAddr: 0x1000446BC, symSize: 0x68 }
  - { offsetInCU: 0x62EC4, offset: 0x700CD, size: 0x8, addend: 0x0, symName: __ZNSt3__19make_pairB8ue170006IRPKN4CGAL7Point_3INS1_16Simple_cartesianIdEEEEPS5_EENS_4pairINS_18__unwrap_ref_decayIT_E4typeENSB_IT0_E4typeEEEOSC_OSF_, symObjAddr: 0x3CE94, symBinAddr: 0x100044724, symSize: 0x38 }
  - { offsetInCU: 0x62F6E, offset: 0x70177, size: 0x8, addend: 0x0, symName: __ZNSt3__112__to_addressB8ue170006INS_11__wrap_iterIPN4CGAL7Point_3INS2_16Simple_cartesianIdEEEEEEvEEu7__decayIDTclsr19__to_address_helperIT_EE6__callclsr3stdE7declvalIRKS9_EEEEESB_, symObjAddr: 0x3CF64, symBinAddr: 0x1000447F4, symSize: 0x24 }
  - { offsetInCU: 0x6311D, offset: 0x70326, size: 0x8, addend: 0x0, symName: __ZNSt3__113__rewrap_iterB8ue170006INS_11__wrap_iterIPKN4CGAL7Point_3INS2_16Simple_cartesianIdEEEEEES8_NS_18__unwrap_iter_implIS9_Lb1EEEEET_SC_T0_, symObjAddr: 0x3D06C, symBinAddr: 0x1000448FC, symSize: 0x4C }
  - { offsetInCU: 0x63178, offset: 0x70381, size: 0x8, addend: 0x0, symName: __ZNSt3__18distanceB8ue170006IPN4CGAL7Point_3INS1_16Simple_cartesianIdEEEEEENS_15iterator_traitsIT_E15difference_typeES8_S8_, symObjAddr: 0x3D66C, symBinAddr: 0x100044EFC, symSize: 0x2C }
  - { offsetInCU: 0x631C1, offset: 0x703CA, size: 0x8, addend: 0x0, symName: __ZNSt3__14nextB8ue170006IPN4CGAL7Point_3INS1_16Simple_cartesianIdEEEEEENS_9enable_ifIXsr29__has_input_iterator_categoryIT_EE5valueES8_E4typeES8_NS_15iterator_traitsIS8_E15difference_typeE, symObjAddr: 0x3D698, symBinAddr: 0x100044F28, symSize: 0x34 }
  - { offsetInCU: 0x6320B, offset: 0x70414, size: 0x8, addend: 0x0, symName: __ZNSt3__19__advanceB8ue170006IPN4CGAL7Point_3INS1_16Simple_cartesianIdEEEEEEvRT_NS_15iterator_traitsIS7_E15difference_typeENS_26random_access_iterator_tagE, symObjAddr: 0x3D798, symBinAddr: 0x100045028, symSize: 0x30 }
  - { offsetInCU: 0x63254, offset: 0x7045D, size: 0x8, addend: 0x0, symName: __ZNSt3__110__distanceB8ue170006IPN4CGAL7Point_3INS1_16Simple_cartesianIdEEEEEENS_15iterator_traitsIT_E15difference_typeES8_S8_NS_26random_access_iterator_tagE, symObjAddr: 0x3D80C, symBinAddr: 0x10004509C, symSize: 0x28 }
  - { offsetInCU: 0x632A9, offset: 0x704B2, size: 0x8, addend: 0x0, symName: __ZNSt3__19make_pairB8ue170006IN4CGAL12Surface_meshINS1_7Point_3INS1_16Simple_cartesianIdEEEEE12Property_mapINS1_15SM_Vertex_indexEbEEbEENS_4pairINS_18__unwrap_ref_decayIT_E4typeENSC_IT0_E4typeEEEOSD_OSG_, symObjAddr: 0x3DC08, symBinAddr: 0x100045498, symSize: 0x40 }
  - { offsetInCU: 0x632F8, offset: 0x70501, size: 0x8, addend: 0x0, symName: __ZNSt3__16__copyB8ue170006INS_17_ClassicAlgPolicyENS_14__bit_iteratorINS_6vectorIbNS_9allocatorIbEEEELb0ELm0EEES7_S7_EENS_4pairIT0_T2_EES9_T1_SA_, symObjAddr: 0x3E998, symBinAddr: 0x100046228, symSize: 0x88 }
  - { offsetInCU: 0x6336F, offset: 0x70578, size: 0x8, addend: 0x0, symName: __ZNSt3__123__dispatch_copy_or_moveB8ue170006INS_17_ClassicAlgPolicyENS_11__copy_loopIS1_EENS_14__copy_trivialENS_14__bit_iteratorINS_6vectorIbNS_9allocatorIbEEEELb0ELm0EEESA_SA_EENS_4pairIT2_T4_EESC_T3_SD_, symObjAddr: 0x3EA20, symBinAddr: 0x1000462B0, symSize: 0x88 }
  - { offsetInCU: 0x633F8, offset: 0x70601, size: 0x8, addend: 0x0, symName: __ZNSt3__121__unwrap_and_dispatchB8ue170006INS_10__overloadINS_11__copy_loopINS_17_ClassicAlgPolicyEEENS_14__copy_trivialEEENS_14__bit_iteratorINS_6vectorIbNS_9allocatorIbEEEELb0ELm0EEESC_SC_Li0EEENS_4pairIT0_T2_EESE_T1_SF_, symObjAddr: 0x3EAA8, symBinAddr: 0x100046338, symSize: 0x15C }
  - { offsetInCU: 0x63497, offset: 0x706A0, size: 0x8, addend: 0x0, symName: __ZNSt3__114__unwrap_rangeB8ue170006INS_14__bit_iteratorINS_6vectorIbNS_9allocatorIbEEEELb0ELm0EEES6_EENS_4pairIT0_S8_EET_SA_, symObjAddr: 0x3EC04, symBinAddr: 0x100046494, symSize: 0x8C }
  - { offsetInCU: 0x63656, offset: 0x7085F, size: 0x8, addend: 0x0, symName: __ZNSt3__113__unwrap_iterB8ue170006INS_14__bit_iteratorINS_6vectorIbNS_9allocatorIbEEEELb0ELm0EEENS_18__unwrap_iter_implIS6_Lb0EEELi0EEEDTclsrT0_8__unwrapclsr3stdE7declvalIT_EEEESA_, symObjAddr: 0x3ED48, symBinAddr: 0x1000465D8, symSize: 0x44 }
  - { offsetInCU: 0x6369F, offset: 0x708A8, size: 0x8, addend: 0x0, symName: __ZNSt3__19make_pairB8ue170006INS_14__bit_iteratorINS_6vectorIbNS_9allocatorIbEEEELb0ELm0EEES6_EENS_4pairINS_18__unwrap_ref_decayIT_E4typeENS8_IT0_E4typeEEEOS9_OSC_, symObjAddr: 0x3ED8C, symBinAddr: 0x10004661C, symSize: 0x40 }
  - { offsetInCU: 0x636EE, offset: 0x708F7, size: 0x8, addend: 0x0, symName: __ZNSt3__114__rewrap_rangeB8ue170006INS_14__bit_iteratorINS_6vectorIbNS_9allocatorIbEEEELb0ELm0EEES6_EET_S7_T0_, symObjAddr: 0x3EDCC, symBinAddr: 0x10004665C, symSize: 0x6C }
  - { offsetInCU: 0x63742, offset: 0x7094B, size: 0x8, addend: 0x0, symName: __ZNSt3__113__rewrap_iterB8ue170006INS_14__bit_iteratorINS_6vectorIbNS_9allocatorIbEEEELb0ELm0EEES6_NS_18__unwrap_iter_implIS6_Lb0EEEEET_S9_T0_, symObjAddr: 0x3EE38, symBinAddr: 0x1000466C8, symSize: 0x74 }
  - { offsetInCU: 0x6379F, offset: 0x709A8, size: 0x8, addend: 0x0, symName: __ZNSt3__1neB8ue170006ERKNS_14__bit_iteratorINS_6vectorIbNS_9allocatorIbEEEELb0ELm0EEES7_, symObjAddr: 0x3EEAC, symBinAddr: 0x10004673C, symSize: 0x34 }
  - { offsetInCU: 0x637DC, offset: 0x709E5, size: 0x8, addend: 0x0, symName: __ZNSt3__1eqB8ue170006ERKNS_14__bit_iteratorINS_6vectorIbNS_9allocatorIbEEEELb0ELm0EEES7_, symObjAddr: 0x3EFC0, symBinAddr: 0x100046850, symSize: 0x64 }
  - { offsetInCU: 0x63867, offset: 0x70A70, size: 0x8, addend: 0x0, symName: __ZNSt3__14swapB8ue170006ImEENS_9enable_ifIXaasr21is_move_constructibleIT_EE5valuesr18is_move_assignableIS2_EE5valueEvE4typeERS2_S5_, symObjAddr: 0x3F11C, symBinAddr: 0x1000469AC, symSize: 0x3C }
  - { offsetInCU: 0x638C1, offset: 0x70ACA, size: 0x8, addend: 0x0, symName: __ZNSt3__116__swap_allocatorB8ue170006INS_9allocatorImEEEEvRT_S4_NS_17integral_constantIbLb0EEE, symObjAddr: 0x3F158, symBinAddr: 0x1000469E8, symSize: 0x14 }
  - { offsetInCU: 0x63909, offset: 0x70B12, size: 0x8, addend: 0x0, symName: __ZNSt3__14copyB8ue170006INS_6vectorIbNS_9allocatorIbEEEELb1EEENS_14__bit_iteratorIT_Lb0EXLi0EEEENS5_IS6_XT0_EXLi0EEEES8_S7_, symObjAddr: 0x3F4B4, symBinAddr: 0x100046D44, symSize: 0xD4 }
  - { offsetInCU: 0x63969, offset: 0x70B72, size: 0x8, addend: 0x0, symName: __ZNSt3__1miB8ue170006ERKNS_14__bit_iteratorINS_6vectorIbNS_9allocatorIbEEEELb1ELm0EEES7_, symObjAddr: 0x3FDB8, symBinAddr: 0x100047648, symSize: 0x48 }
  - { offsetInCU: 0x639A6, offset: 0x70BAF, size: 0x8, addend: 0x0, symName: __ZNSt3__13minB8ue170006IlEERKT_S3_S3_, symObjAddr: 0x3FE00, symBinAddr: 0x100047690, symSize: 0x2C }
  - { offsetInCU: 0x639EF, offset: 0x70BF8, size: 0x8, addend: 0x0, symName: __ZNSt3__112__to_addressB8ue170006IKmEEPT_S3_, symObjAddr: 0x3FE70, symBinAddr: 0x100047700, symSize: 0x14 }
  - { offsetInCU: 0x63A24, offset: 0x70C2D, size: 0x8, addend: 0x0, symName: __ZNSt3__13minB8ue170006IlNS_6__lessIvvEEEERKT_S5_S5_T0_, symObjAddr: 0x3FE84, symBinAddr: 0x100047714, symSize: 0x54 }
  - { offsetInCU: 0x63A86, offset: 0x70C8F, size: 0x8, addend: 0x0, symName: __ZNSt3__14copyB8ue170006IPKmPmEET0_T_S5_S4_, symObjAddr: 0x3FF0C, symBinAddr: 0x10004779C, symSize: 0x40 }
  - { offsetInCU: 0x63AE8, offset: 0x70CF1, size: 0x8, addend: 0x0, symName: __ZNSt3__16__copyB8ue170006INS_17_ClassicAlgPolicyEPKmS3_PmEENS_4pairIT0_T2_EES6_T1_S7_, symObjAddr: 0x3FF4C, symBinAddr: 0x1000477DC, symSize: 0x44 }
  - { offsetInCU: 0x63B5C, offset: 0x70D65, size: 0x8, addend: 0x0, symName: __ZNSt3__123__dispatch_copy_or_moveB8ue170006INS_17_ClassicAlgPolicyENS_11__copy_loopIS1_EENS_14__copy_trivialEPKmS6_PmEENS_4pairIT2_T4_EES9_T3_SA_, symObjAddr: 0x3FF90, symBinAddr: 0x100047820, symSize: 0x44 }
  - { offsetInCU: 0x63BE2, offset: 0x70DEB, size: 0x8, addend: 0x0, symName: __ZNSt3__121__unwrap_and_dispatchB8ue170006INS_10__overloadINS_11__copy_loopINS_17_ClassicAlgPolicyEEENS_14__copy_trivialEEEPKmS8_PmLi0EEENS_4pairIT0_T2_EESB_T1_SC_, symObjAddr: 0x3FFD4, symBinAddr: 0x100047864, symSize: 0xB4 }
  - { offsetInCU: 0x63C7C, offset: 0x70E85, size: 0x8, addend: 0x0, symName: __ZNSt3__114__unwrap_rangeB8ue170006IPKmS2_EENS_4pairIT0_S4_EET_S6_, symObjAddr: 0x40088, symBinAddr: 0x100047918, symSize: 0x60 }
  - { offsetInCU: 0x63DD1, offset: 0x70FDA, size: 0x8, addend: 0x0, symName: __ZNSt3__113__unwrap_iterB8ue170006IPmNS_18__unwrap_iter_implIS1_Lb1EEELi0EEEDTclsrT0_8__unwrapclsr3stdE7declvalIT_EEEES5_, symObjAddr: 0x40130, symBinAddr: 0x1000479C0, symSize: 0x24 }
  - { offsetInCU: 0x63E19, offset: 0x71022, size: 0x8, addend: 0x0, symName: __ZNSt3__19make_pairB8ue170006IPKmPmEENS_4pairINS_18__unwrap_ref_decayIT_E4typeENS5_IT0_E4typeEEEOS6_OS9_, symObjAddr: 0x40154, symBinAddr: 0x1000479E4, symSize: 0x38 }
  - { offsetInCU: 0x63E68, offset: 0x71071, size: 0x8, addend: 0x0, symName: __ZNSt3__114__rewrap_rangeB8ue170006IPKmS2_EET_S3_T0_, symObjAddr: 0x4018C, symBinAddr: 0x100047A1C, symSize: 0x2C }
  - { offsetInCU: 0x63EBA, offset: 0x710C3, size: 0x8, addend: 0x0, symName: __ZNSt3__113__rewrap_iterB8ue170006IPmS1_NS_18__unwrap_iter_implIS1_Lb1EEEEET_S4_T0_, symObjAddr: 0x401B8, symBinAddr: 0x100047A48, symSize: 0x3C }
  - { offsetInCU: 0x63F15, offset: 0x7111E, size: 0x8, addend: 0x0, symName: __ZNSt3__19make_pairB8ue170006IPKmS2_EENS_4pairINS_18__unwrap_ref_decayIT_E4typeENS4_IT0_E4typeEEEOS5_OS8_, symObjAddr: 0x401F4, symBinAddr: 0x100047A84, symSize: 0x38 }
  - { offsetInCU: 0x63F64, offset: 0x7116D, size: 0x8, addend: 0x0, symName: __ZNSt3__113__unwrap_iterB8ue170006IPKmNS_18__unwrap_iter_implIS2_Lb1EEELi0EEEDTclsrT0_8__unwrapclsr3stdE7declvalIT_EEEES6_, symObjAddr: 0x4022C, symBinAddr: 0x100047ABC, symSize: 0x24 }
  - { offsetInCU: 0x640DB, offset: 0x712E4, size: 0x8, addend: 0x0, symName: __ZNSt3__119__copy_trivial_implB8ue170006IKmmEENS_4pairIPT_PT0_EES4_S4_S6_, symObjAddr: 0x402E4, symBinAddr: 0x100047B74, symSize: 0x80 }
  - { offsetInCU: 0x6414D, offset: 0x71356, size: 0x8, addend: 0x0, symName: __ZNSt3__119__constexpr_memmoveB8ue170006ImKmLi0EEEPT_S3_PT0_NS_15__element_countE, symObjAddr: 0x40364, symBinAddr: 0x100047BF4, symSize: 0x64 }
  - { offsetInCU: 0x641BB, offset: 0x713C4, size: 0x8, addend: 0x0, symName: __ZNSt3__19make_pairB8ue170006IRPKmPmEENS_4pairINS_18__unwrap_ref_decayIT_E4typeENS6_IT0_E4typeEEEOS7_OSA_, symObjAddr: 0x403C8, symBinAddr: 0x100047C58, symSize: 0x38 }
  - { offsetInCU: 0x64265, offset: 0x7146E, size: 0x8, addend: 0x0, symName: __ZNSt3__113__rewrap_iterB8ue170006IPKmS2_NS_18__unwrap_iter_implIS2_Lb1EEEEET_S5_T0_, symObjAddr: 0x40504, symBinAddr: 0x100047D94, symSize: 0x3C }
  - { offsetInCU: 0x642C0, offset: 0x714C9, size: 0x8, addend: 0x0, symName: __ZNSt3__16__copyB8ue170006INS_17_ClassicAlgPolicyENS_14__bit_iteratorINS_6vectorIbNS_9allocatorIbEEEELb1ELm0EEES7_NS2_IS6_Lb0ELm0EEEEENS_4pairIT0_T2_EESA_T1_SB_, symObjAddr: 0x40958, symBinAddr: 0x1000481E8, symSize: 0x7C }
  - { offsetInCU: 0x64335, offset: 0x7153E, size: 0x8, addend: 0x0, symName: __ZNSt3__123__dispatch_copy_or_moveB8ue170006INS_17_ClassicAlgPolicyENS_11__copy_loopIS1_EENS_14__copy_trivialENS_14__bit_iteratorINS_6vectorIbNS_9allocatorIbEEEELb1ELm0EEESA_NS5_IS9_Lb0ELm0EEEEENS_4pairIT2_T4_EESD_T3_SE_, symObjAddr: 0x409D4, symBinAddr: 0x100048264, symSize: 0x7C }
  - { offsetInCU: 0x643BC, offset: 0x715C5, size: 0x8, addend: 0x0, symName: __ZNSt3__121__unwrap_and_dispatchB8ue170006INS_10__overloadINS_11__copy_loopINS_17_ClassicAlgPolicyEEENS_14__copy_trivialEEENS_14__bit_iteratorINS_6vectorIbNS_9allocatorIbEEEELb1ELm0EEESC_NS7_ISB_Lb0ELm0EEELi0EEENS_4pairIT0_T2_EESF_T1_SG_, symObjAddr: 0x40A50, symBinAddr: 0x1000482E0, symSize: 0x150 }
  - { offsetInCU: 0x64459, offset: 0x71662, size: 0x8, addend: 0x0, symName: __ZNSt3__114__unwrap_rangeB8ue170006INS_14__bit_iteratorINS_6vectorIbNS_9allocatorIbEEEELb1ELm0EEES6_EENS_4pairIT0_S8_EET_SA_, symObjAddr: 0x40BA0, symBinAddr: 0x100048430, symSize: 0x84 }
  - { offsetInCU: 0x6457F, offset: 0x71788, size: 0x8, addend: 0x0, symName: __ZNSt3__19make_pairB8ue170006INS_14__bit_iteratorINS_6vectorIbNS_9allocatorIbEEEELb1ELm0EEENS1_IS5_Lb0ELm0EEEEENS_4pairINS_18__unwrap_ref_decayIT_E4typeENS9_IT0_E4typeEEEOSA_OSD_, symObjAddr: 0x40CE8, symBinAddr: 0x100048578, symSize: 0x40 }
  - { offsetInCU: 0x645CE, offset: 0x717D7, size: 0x8, addend: 0x0, symName: __ZNSt3__114__rewrap_rangeB8ue170006INS_14__bit_iteratorINS_6vectorIbNS_9allocatorIbEEEELb1ELm0EEES6_EET_S7_T0_, symObjAddr: 0x40D28, symBinAddr: 0x1000485B8, symSize: 0x5C }
  - { offsetInCU: 0x64620, offset: 0x71829, size: 0x8, addend: 0x0, symName: __ZNSt3__19make_pairB8ue170006INS_14__bit_iteratorINS_6vectorIbNS_9allocatorIbEEEELb1ELm0EEES6_EENS_4pairINS_18__unwrap_ref_decayIT_E4typeENS8_IT0_E4typeEEEOS9_OSC_, symObjAddr: 0x40D84, symBinAddr: 0x100048614, symSize: 0x38 }
  - { offsetInCU: 0x6466F, offset: 0x71878, size: 0x8, addend: 0x0, symName: __ZNSt3__113__unwrap_iterB8ue170006INS_14__bit_iteratorINS_6vectorIbNS_9allocatorIbEEEELb1ELm0EEENS_18__unwrap_iter_implIS6_Lb0EEELi0EEEDTclsrT0_8__unwrapclsr3stdE7declvalIT_EEEESA_, symObjAddr: 0x40DBC, symBinAddr: 0x10004864C, symSize: 0x44 }
  - { offsetInCU: 0x647D9, offset: 0x719E2, size: 0x8, addend: 0x0, symName: __ZNSt3__1neB8ue170006ERKNS_14__bit_iteratorINS_6vectorIbNS_9allocatorIbEEEELb1ELm0EEES7_, symObjAddr: 0x40E94, symBinAddr: 0x100048724, symSize: 0x34 }
  - { offsetInCU: 0x64816, offset: 0x71A1F, size: 0x8, addend: 0x0, symName: __ZNSt3__1eqB8ue170006ERKNS_14__bit_iteratorINS_6vectorIbNS_9allocatorIbEEEELb1ELm0EEES7_, symObjAddr: 0x40F94, symBinAddr: 0x100048824, symSize: 0x64 }
  - { offsetInCU: 0x64853, offset: 0x71A5C, size: 0x8, addend: 0x0, symName: __ZNSt3__113__rewrap_iterB8ue170006INS_14__bit_iteratorINS_6vectorIbNS_9allocatorIbEEEELb1ELm0EEES6_NS_18__unwrap_iter_implIS6_Lb0EEEEET_S9_T0_, symObjAddr: 0x410E4, symBinAddr: 0x100048974, symSize: 0x74 }
  - { offsetInCU: 0x648AE, offset: 0x71AB7, size: 0x8, addend: 0x0, symName: __ZNSt3__14copyB8ue170006IPmS1_EET0_T_S3_S2_, symObjAddr: 0x41680, symBinAddr: 0x100048F10, symSize: 0x40 }
  - { offsetInCU: 0x64910, offset: 0x71B19, size: 0x8, addend: 0x0, symName: __ZNSt3__16__copyB8ue170006INS_17_ClassicAlgPolicyEPmS2_S2_EENS_4pairIT0_T2_EES4_T1_S5_, symObjAddr: 0x416D4, symBinAddr: 0x100048F64, symSize: 0x44 }
  - { offsetInCU: 0x64984, offset: 0x71B8D, size: 0x8, addend: 0x0, symName: __ZNSt3__123__dispatch_copy_or_moveB8ue170006INS_17_ClassicAlgPolicyENS_11__copy_loopIS1_EENS_14__copy_trivialEPmS5_S5_EENS_4pairIT2_T4_EES7_T3_S8_, symObjAddr: 0x41718, symBinAddr: 0x100048FA8, symSize: 0x44 }
  - { offsetInCU: 0x64A0A, offset: 0x71C13, size: 0x8, addend: 0x0, symName: __ZNSt3__121__unwrap_and_dispatchB8ue170006INS_10__overloadINS_11__copy_loopINS_17_ClassicAlgPolicyEEENS_14__copy_trivialEEEPmS7_S7_Li0EEENS_4pairIT0_T2_EES9_T1_SA_, symObjAddr: 0x4175C, symBinAddr: 0x100048FEC, symSize: 0xB4 }
  - { offsetInCU: 0x64AA4, offset: 0x71CAD, size: 0x8, addend: 0x0, symName: __ZNSt3__114__unwrap_rangeB8ue170006IPmS1_EENS_4pairIT0_S3_EET_S5_, symObjAddr: 0x41810, symBinAddr: 0x1000490A0, symSize: 0x60 }
  - { offsetInCU: 0x64BF9, offset: 0x71E02, size: 0x8, addend: 0x0, symName: __ZNSt3__19make_pairB8ue170006IPmS1_EENS_4pairINS_18__unwrap_ref_decayIT_E4typeENS3_IT0_E4typeEEEOS4_OS7_, symObjAddr: 0x418B8, symBinAddr: 0x100049148, symSize: 0x38 }
  - { offsetInCU: 0x64C48, offset: 0x71E51, size: 0x8, addend: 0x0, symName: __ZNSt3__114__rewrap_rangeB8ue170006IPmS1_EET_S2_T0_, symObjAddr: 0x418F0, symBinAddr: 0x100049180, symSize: 0x2C }
  - { offsetInCU: 0x64C9A, offset: 0x71EA3, size: 0x8, addend: 0x0, symName: __ZNSt3__119__copy_trivial_implB8ue170006ImmEENS_4pairIPT_PT0_EES3_S3_S5_, symObjAddr: 0x4191C, symBinAddr: 0x1000491AC, symSize: 0x80 }
  - { offsetInCU: 0x64D0C, offset: 0x71F15, size: 0x8, addend: 0x0, symName: __ZNSt3__119__constexpr_memmoveB8ue170006ImmLi0EEEPT_S2_PT0_NS_15__element_countE, symObjAddr: 0x4199C, symBinAddr: 0x10004922C, symSize: 0x64 }
  - { offsetInCU: 0x64D7A, offset: 0x71F83, size: 0x8, addend: 0x0, symName: __ZNSt3__19make_pairB8ue170006IRPmS1_EENS_4pairINS_18__unwrap_ref_decayIT_E4typeENS4_IT0_E4typeEEEOS5_OS8_, symObjAddr: 0x41A00, symBinAddr: 0x100049290, symSize: 0x38 }
  - { offsetInCU: 0x64DC9, offset: 0x71FD2, size: 0x8, addend: 0x0, symName: __ZNSt3__18exchangeB8ue170006IPN4CGAL10Properties14Property_arrayIbEEDnEET_RS6_OT0_, symObjAddr: 0x41C48, symBinAddr: 0x1000494D8, symSize: 0x2C }
  - { offsetInCU: 0x64E2B, offset: 0x72034, size: 0x8, addend: 0x0, symName: __ZNSt3__19make_pairB8ue170006IN4CGAL12Surface_meshINS1_7Point_3INS1_16Simple_cartesianIdEEEEE12Property_mapINS1_13SM_Edge_indexEbEEbEENS_4pairINS_18__unwrap_ref_decayIT_E4typeENSC_IT0_E4typeEEEOSD_OSG_, symObjAddr: 0x42010, symBinAddr: 0x1000498A0, symSize: 0x40 }
  - { offsetInCU: 0x64E7A, offset: 0x72083, size: 0x8, addend: 0x0, symName: __ZNSt3__19make_pairB8ue170006IN4CGAL12Surface_meshINS1_7Point_3INS1_16Simple_cartesianIdEEEEE12Property_mapINS1_13SM_Face_indexEbEEbEENS_4pairINS_18__unwrap_ref_decayIT_E4typeENSC_IT0_E4typeEEEOSD_OSG_, symObjAddr: 0x42514, symBinAddr: 0x100049DA4, symSize: 0x40 }
  - { offsetInCU: 0x64EFC, offset: 0x72105, size: 0x8, addend: 0x0, symName: __ZNSt3__17launderB8ue170006INS_4pairIKN4CGAL15SM_Vertex_indexES3_EEEEPT_S7_, symObjAddr: 0x4973C, symBinAddr: 0x100050FCC, symSize: 0x24 }
  - { offsetInCU: 0x64F33, offset: 0x7213C, size: 0x8, addend: 0x0, symName: __ZNSt3__19__launderB8ue170006INS_4pairIKN4CGAL15SM_Vertex_indexES3_EEEEPT_S7_, symObjAddr: 0x49760, symBinAddr: 0x100050FF0, symSize: 0x14 }
  - { offsetInCU: 0x64FA1, offset: 0x721AA, size: 0x8, addend: 0x0, symName: __ZNSt3__116forward_as_tupleB8ue170006IJRKN4CGAL15SM_Vertex_indexEEEENS_5tupleIJDpOT_EEES8_, symObjAddr: 0x4991C, symBinAddr: 0x1000511AC, symSize: 0x2C }
  - { offsetInCU: 0x64FDA, offset: 0x721E3, size: 0x8, addend: 0x0, symName: __ZNSt3__116forward_as_tupleB8ue170006IJEEENS_5tupleIJDpOT_EEES4_, symObjAddr: 0x49948, symBinAddr: 0x1000511D8, symSize: 0x4 }
  - { offsetInCU: 0x64FFE, offset: 0x72207, size: 0x8, addend: 0x0, symName: __ZNSt3__17launderB8ue170006IKNS_4pairIKN4CGAL15SM_Vertex_indexES3_EEEEPT_S8_, symObjAddr: 0x49F30, symBinAddr: 0x1000517C0, symSize: 0x24 }
  - { offsetInCU: 0x65035, offset: 0x7223E, size: 0x8, addend: 0x0, symName: __ZNSt3__19__launderB8ue170006IKNS_4pairIKN4CGAL15SM_Vertex_indexES3_EEEEPT_S8_, symObjAddr: 0x49F54, symBinAddr: 0x1000517E4, symSize: 0x14 }
  - { offsetInCU: 0x65096, offset: 0x7229F, size: 0x8, addend: 0x0, symName: __ZNSt3__13getB8ue170006ILm0EJRKN4CGAL15SM_Vertex_indexEEEERNS_13tuple_elementIXT_ENS_5tupleIJDpT0_EEEE4typeERS9_, symObjAddr: 0x4A394, symBinAddr: 0x100051C24, symSize: 0x24 }
  - { offsetInCU: 0x650D9, offset: 0x722E2, size: 0x8, addend: 0x0, symName: __ZNSt3__127__tree_balance_after_insertB8ue170006IPNS_16__tree_node_baseIPvEEEEvT_S5_, symObjAddr: 0x4A444, symBinAddr: 0x100051CD4, symSize: 0x32C }
  - { offsetInCU: 0x65155, offset: 0x7235E, size: 0x8, addend: 0x0, symName: __ZNSt3__120__tree_is_left_childB8ue170006IPNS_16__tree_node_baseIPvEEEEbT_, symObjAddr: 0x4A7B0, symBinAddr: 0x100052040, symSize: 0x2C }
  - { offsetInCU: 0x6518A, offset: 0x72393, size: 0x8, addend: 0x0, symName: __ZNSt3__118__tree_left_rotateB8ue170006IPNS_16__tree_node_baseIPvEEEEvT_, symObjAddr: 0x4A7DC, symBinAddr: 0x10005206C, symSize: 0xD8 }
  - { offsetInCU: 0x651CC, offset: 0x723D5, size: 0x8, addend: 0x0, symName: __ZNSt3__119__tree_right_rotateB8ue170006IPNS_16__tree_node_baseIPvEEEEvT_, symObjAddr: 0x4A8B4, symBinAddr: 0x100052144, symSize: 0xCC }
  - { offsetInCU: 0x65269, offset: 0x72472, size: 0x8, addend: 0x0, symName: __ZNSt3__142__uninitialized_allocator_move_if_noexceptB8ue170006INS_9allocatorIN4CGAL15SM_Vertex_indexEEENS_16reverse_iteratorIPS3_EES7_S3_vEET1_RT_T0_SB_S8_, symObjAddr: 0x4BF9C, symBinAddr: 0x10005382C, symSize: 0x78 }
  - { offsetInCU: 0x652E6, offset: 0x724EF, size: 0x8, addend: 0x0, symName: __ZNSt3__14swapB8ue170006IPN4CGAL15SM_Vertex_indexEEENS_9enable_ifIXaasr21is_move_constructibleIT_EE5valuesr18is_move_assignableIS5_EE5valueEvE4typeERS5_S8_, symObjAddr: 0x4C060, symBinAddr: 0x1000538F0, symSize: 0x3C }
  - { offsetInCU: 0x6533F, offset: 0x72548, size: 0x8, addend: 0x0, symName: __ZNSt3__14moveB8ue170006INS_16reverse_iteratorIPN4CGAL15SM_Vertex_indexEEES5_EET0_T_S7_S6_, symObjAddr: 0x4C09C, symBinAddr: 0x10005392C, symSize: 0x78 }
  - { offsetInCU: 0x653A1, offset: 0x725AA, size: 0x8, addend: 0x0, symName: __ZNSt3__16__moveB8ue170006INS_17_ClassicAlgPolicyENS_16reverse_iteratorIPN4CGAL15SM_Vertex_indexEEES6_S6_EENS_4pairIT0_T2_EES8_T1_S9_, symObjAddr: 0x4C114, symBinAddr: 0x1000539A4, symSize: 0x64 }
  - { offsetInCU: 0x65415, offset: 0x7261E, size: 0x8, addend: 0x0, symName: __ZNSt3__123__dispatch_copy_or_moveB8ue170006INS_17_ClassicAlgPolicyENS_11__move_loopIS1_EENS_14__move_trivialENS_16reverse_iteratorIPN4CGAL15SM_Vertex_indexEEES9_S9_EENS_4pairIT2_T4_EESB_T3_SC_, symObjAddr: 0x4C178, symBinAddr: 0x100053A08, symSize: 0x64 }
  - { offsetInCU: 0x6549B, offset: 0x726A4, size: 0x8, addend: 0x0, symName: __ZNSt3__121__unwrap_and_dispatchB8ue170006INS_10__overloadINS_11__move_loopINS_17_ClassicAlgPolicyEEENS_14__move_trivialEEENS_16reverse_iteratorIPN4CGAL15SM_Vertex_indexEEESB_SB_Li0EEENS_4pairIT0_T2_EESD_T1_SE_, symObjAddr: 0x4C1DC, symBinAddr: 0x100053A6C, symSize: 0x12C }
  - { offsetInCU: 0x65537, offset: 0x72740, size: 0x8, addend: 0x0, symName: __ZNSt3__114__unwrap_rangeB8ue170006INS_16reverse_iteratorIPN4CGAL15SM_Vertex_indexEEES5_EENS_4pairIT0_S7_EET_S9_, symObjAddr: 0x4C308, symBinAddr: 0x100053B98, symSize: 0x84 }
  - { offsetInCU: 0x6565D, offset: 0x72866, size: 0x8, addend: 0x0, symName: __ZNSt3__113__unwrap_iterB8ue170006INS_16reverse_iteratorIPN4CGAL15SM_Vertex_indexEEENS_18__unwrap_iter_implIS5_Lb0EEELi0EEEDTclsrT0_8__unwrapclsr3stdE7declvalIT_EEEES9_, symObjAddr: 0x4C42C, symBinAddr: 0x100053CBC, symSize: 0x44 }
  - { offsetInCU: 0x656A5, offset: 0x728AE, size: 0x8, addend: 0x0, symName: __ZNSt3__19make_pairB8ue170006INS_16reverse_iteratorIPN4CGAL15SM_Vertex_indexEEES5_EENS_4pairINS_18__unwrap_ref_decayIT_E4typeENS7_IT0_E4typeEEEOS8_OSB_, symObjAddr: 0x4C470, symBinAddr: 0x100053D00, symSize: 0x38 }
  - { offsetInCU: 0x656F4, offset: 0x728FD, size: 0x8, addend: 0x0, symName: __ZNSt3__114__rewrap_rangeB8ue170006INS_16reverse_iteratorIPN4CGAL15SM_Vertex_indexEEES5_EET_S6_T0_, symObjAddr: 0x4C4A8, symBinAddr: 0x100053D38, symSize: 0x5C }
  - { offsetInCU: 0x65746, offset: 0x7294F, size: 0x8, addend: 0x0, symName: __ZNSt3__113__rewrap_iterB8ue170006INS_16reverse_iteratorIPN4CGAL15SM_Vertex_indexEEES5_NS_18__unwrap_iter_implIS5_Lb0EEEEET_S8_T0_, symObjAddr: 0x4C504, symBinAddr: 0x100053D94, symSize: 0x74 }
  - { offsetInCU: 0x657A1, offset: 0x729AA, size: 0x8, addend: 0x0, symName: __ZNSt3__1neB8ue170006IPN4CGAL15SM_Vertex_indexES3_EEbRKNS_16reverse_iteratorIT_EERKNS4_IT0_EE, symObjAddr: 0x4C578, symBinAddr: 0x100053E08, symSize: 0x48 }
  - { offsetInCU: 0x6583B, offset: 0x72A44, size: 0x8, addend: 0x0, symName: __ZNSt3__122__make_exception_guardB8ue170006INS_6vectorINS_12basic_stringIcNS_11char_traitsIcEENS_9allocatorIcEEEENS5_IS7_EEE16__destroy_vectorEEENS_28__exception_guard_exceptionsIT_EESC_, symObjAddr: 0x4CA64, symBinAddr: 0x1000542F4, symSize: 0x40 }
  - { offsetInCU: 0x65870, offset: 0x72A79, size: 0x8, addend: 0x0, symName: __ZNSt3__119__allocate_at_leastB8ue170006INS_9allocatorINS_12basic_stringIcNS_11char_traitsIcEENS1_IcEEEEEEEENS_19__allocation_resultINS_16allocator_traitsIT_E7pointerEEERSA_m, symObjAddr: 0x4CE74, symBinAddr: 0x100054704, symSize: 0x40 }
  - { offsetInCU: 0x658B9, offset: 0x72AC2, size: 0x8, addend: 0x0, symName: __ZNSt3__112__to_addressB8ue170006INS_12basic_stringIcNS_11char_traitsIcEENS_9allocatorIcEEEEEEPT_S8_, symObjAddr: 0x4D1BC, symBinAddr: 0x100054A4C, symSize: 0x14 }
  - { offsetInCU: 0x658EE, offset: 0x72AF7, size: 0x8, addend: 0x0, symName: __ZNSt3__130__uninitialized_allocator_copyB8ue170006INS_9allocatorINS_12basic_stringIcNS_11char_traitsIcEENS1_IcEEEEEEPKS6_S9_PS6_EET2_RT_T0_T1_SB_, symObjAddr: 0x4D26C, symBinAddr: 0x100054AFC, symSize: 0x80 }
  - { offsetInCU: 0x6598B, offset: 0x72B94, size: 0x8, addend: 0x0, symName: __ZNSt3__114__unwrap_rangeB8ue170006IPKNS_12basic_stringIcNS_11char_traitsIcEENS_9allocatorIcEEEES8_EENS_4pairIT0_SA_EET_SC_, symObjAddr: 0x4D364, symBinAddr: 0x100054BF4, symSize: 0x60 }
  - { offsetInCU: 0x659DD, offset: 0x72BE6, size: 0x8, addend: 0x0, symName: __ZNSt3__135__uninitialized_allocator_copy_implB8ue170006INS_9allocatorINS_12basic_stringIcNS_11char_traitsIcEENS1_IcEEEEEEPKS6_S9_PS6_EET2_RT_T0_T1_SB_, symObjAddr: 0x4D3C4, symBinAddr: 0x100054C54, symSize: 0xF4 }
  - { offsetInCU: 0x65A7B, offset: 0x72C84, size: 0x8, addend: 0x0, symName: __ZNSt3__113__unwrap_iterB8ue170006IPNS_12basic_stringIcNS_11char_traitsIcEENS_9allocatorIcEEEENS_18__unwrap_iter_implIS7_Lb1EEELi0EEEDTclsrT0_8__unwrapclsr3stdE7declvalIT_EEEESB_, symObjAddr: 0x4D4B8, symBinAddr: 0x100054D48, symSize: 0x24 }
  - { offsetInCU: 0x65AC3, offset: 0x72CCC, size: 0x8, addend: 0x0, symName: __ZNSt3__113__rewrap_iterB8ue170006IPNS_12basic_stringIcNS_11char_traitsIcEENS_9allocatorIcEEEES7_NS_18__unwrap_iter_implIS7_Lb1EEEEET_SA_T0_, symObjAddr: 0x4D4DC, symBinAddr: 0x100054D6C, symSize: 0x3C }
  - { offsetInCU: 0x65B1E, offset: 0x72D27, size: 0x8, addend: 0x0, symName: __ZNSt3__19make_pairB8ue170006IPKNS_12basic_stringIcNS_11char_traitsIcEENS_9allocatorIcEEEES8_EENS_4pairINS_18__unwrap_ref_decayIT_E4typeENSA_IT0_E4typeEEEOSB_OSE_, symObjAddr: 0x4D518, symBinAddr: 0x100054DA8, symSize: 0x38 }
  - { offsetInCU: 0x65B6D, offset: 0x72D76, size: 0x8, addend: 0x0, symName: __ZNSt3__113__unwrap_iterB8ue170006IPKNS_12basic_stringIcNS_11char_traitsIcEENS_9allocatorIcEEEENS_18__unwrap_iter_implIS8_Lb1EEELi0EEEDTclsrT0_8__unwrapclsr3stdE7declvalIT_EEEESC_, symObjAddr: 0x4D550, symBinAddr: 0x100054DE0, symSize: 0x24 }
  - { offsetInCU: 0x65CE4, offset: 0x72EED, size: 0x8, addend: 0x0, symName: __ZNSt3__112__to_addressB8ue170006IKNS_12basic_stringIcNS_11char_traitsIcEENS_9allocatorIcEEEEEEPT_S9_, symObjAddr: 0x4D608, symBinAddr: 0x100054E98, symSize: 0x14 }
  - { offsetInCU: 0x65D19, offset: 0x72F22, size: 0x8, addend: 0x0, symName: __ZNSt3__122__make_exception_guardB8ue170006INS_29_AllocatorDestroyRangeReverseINS_9allocatorINS_12basic_stringIcNS_11char_traitsIcEENS2_IcEEEEEEPS7_EEEENS_28__exception_guard_exceptionsIT_EESC_, symObjAddr: 0x4D61C, symBinAddr: 0x100054EAC, symSize: 0x4C }
  - { offsetInCU: 0x65D4F, offset: 0x72F58, size: 0x8, addend: 0x0, symName: __ZNSt3__119__allocator_destroyB8ue170006INS_9allocatorINS_12basic_stringIcNS_11char_traitsIcEENS1_IcEEEEEENS_16reverse_iteratorIPS6_EESA_EEvRT_T0_T1_, symObjAddr: 0x4D8AC, symBinAddr: 0x10005513C, symSize: 0x70 }
  - { offsetInCU: 0x65DB2, offset: 0x72FBB, size: 0x8, addend: 0x0, symName: __ZNSt3__1neB8ue170006IPNS_12basic_stringIcNS_11char_traitsIcEENS_9allocatorIcEEEES7_EEbRKNS_16reverse_iteratorIT_EERKNS8_IT0_EE, symObjAddr: 0x4D950, symBinAddr: 0x1000551E0, symSize: 0x48 }
  - { offsetInCU: 0x65DFE, offset: 0x73007, size: 0x8, addend: 0x0, symName: __ZNSt3__112__to_addressB8ue170006INS_16reverse_iteratorIPNS_12basic_stringIcNS_11char_traitsIcEENS_9allocatorIcEEEEEEvEEu7__decayIDTclsr19__to_address_helperIT_EE6__callclsr3stdE7declvalIRKSA_EEEEESC_, symObjAddr: 0x4D9C4, symBinAddr: 0x100055254, symSize: 0x24 }
  - { offsetInCU: 0x65EB8, offset: 0x730C1, size: 0x8, addend: 0x0, symName: __ZNSt3__119__allocate_at_leastB8ue170006INS_9allocatorIN4CGAL12Surface_meshINS2_7Point_3INS2_16Simple_cartesianIdEEEEEEEEEENS_19__allocation_resultINS_16allocator_traitsIT_E7pointerEEERSC_m, symObjAddr: 0x4E6CC, symBinAddr: 0x100055F5C, symSize: 0x40 }
  - { offsetInCU: 0x65F01, offset: 0x7310A, size: 0x8, addend: 0x0, symName: __ZNSt3__142__uninitialized_allocator_move_if_noexceptB8ue170006INS_9allocatorIN4CGAL12Surface_meshINS2_7Point_3INS2_16Simple_cartesianIdEEEEEEEENS_16reverse_iteratorIPS8_EESC_SC_EET2_RT_T0_T1_SD_, symObjAddr: 0x4E884, symBinAddr: 0x100056114, symSize: 0x12C }
  - { offsetInCU: 0x65FA1, offset: 0x731AA, size: 0x8, addend: 0x0, symName: __ZNSt3__14swapB8ue170006IPN4CGAL12Surface_meshINS1_7Point_3INS1_16Simple_cartesianIdEEEEEEEENS_9enable_ifIXaasr21is_move_constructibleIT_EE5valuesr18is_move_assignableISA_EE5valueEvE4typeERSA_SD_, symObjAddr: 0x4E9FC, symBinAddr: 0x10005628C, symSize: 0x3C }
  - { offsetInCU: 0x65FFA, offset: 0x73203, size: 0x8, addend: 0x0, symName: __ZNSt3__122__make_exception_guardB8ue170006INS_29_AllocatorDestroyRangeReverseINS_9allocatorIN4CGAL12Surface_meshINS3_7Point_3INS3_16Simple_cartesianIdEEEEEEEENS_16reverse_iteratorIPS9_EEEEEENS_28__exception_guard_exceptionsIT_EESG_, symObjAddr: 0x4EB00, symBinAddr: 0x100056390, symSize: 0x4C }
  - { offsetInCU: 0x66030, offset: 0x73239, size: 0x8, addend: 0x0, symName: __ZNSt3__1neB8ue170006IPN4CGAL12Surface_meshINS1_7Point_3INS1_16Simple_cartesianIdEEEEEES8_EEbRKNS_16reverse_iteratorIT_EERKNS9_IT0_EE, symObjAddr: 0x4EB90, symBinAddr: 0x100056420, symSize: 0x48 }
  - { offsetInCU: 0x6607C, offset: 0x73285, size: 0x8, addend: 0x0, symName: __ZNSt3__112__to_addressB8ue170006INS_16reverse_iteratorIPN4CGAL12Surface_meshINS2_7Point_3INS2_16Simple_cartesianIdEEEEEEEEvEEu7__decayIDTclsr19__to_address_helperIT_EE6__callclsr3stdE7declvalIRKSB_EEEEESD_, symObjAddr: 0x4EBD8, symBinAddr: 0x100056468, symSize: 0x24 }
  - { offsetInCU: 0x660DB, offset: 0x732E4, size: 0x8, addend: 0x0, symName: __ZNSt3__119__allocator_destroyB8ue170006INS_9allocatorIN4CGAL12Surface_meshINS2_7Point_3INS2_16Simple_cartesianIdEEEEEEEENS_16reverse_iteratorINSA_IPS8_EEEESD_EEvRT_T0_T1_, symObjAddr: 0x4EE88, symBinAddr: 0x100056718, symSize: 0x70 }
  - { offsetInCU: 0x66140, offset: 0x73349, size: 0x8, addend: 0x0, symName: __ZNSt3__1neB8ue170006INS_16reverse_iteratorIPN4CGAL12Surface_meshINS2_7Point_3INS2_16Simple_cartesianIdEEEEEEEESA_EEbRKNS1_IT_EERKNS1_IT0_EE, symObjAddr: 0x4EF34, symBinAddr: 0x1000567C4, symSize: 0x60 }
  - { offsetInCU: 0x6618C, offset: 0x73395, size: 0x8, addend: 0x0, symName: __ZNSt3__112__to_addressB8ue170006INS_16reverse_iteratorINS1_IPN4CGAL12Surface_meshINS2_7Point_3INS2_16Simple_cartesianIdEEEEEEEEEEvEEu7__decayIDTclsr19__to_address_helperIT_EE6__callclsr3stdE7declvalIRKSC_EEEEESE_, symObjAddr: 0x4EF94, symBinAddr: 0x100056824, symSize: 0x24 }
  - { offsetInCU: 0x661F0, offset: 0x733F9, size: 0x8, addend: 0x0, symName: __ZNSt3__14copyB8ue170006IPKN4CGAL15SM_Vertex_indexENS_11__wrap_iterIPS2_EEEET0_T_S9_S8_, symObjAddr: 0x52254, symBinAddr: 0x100059AE4, symSize: 0x50 }
  - { offsetInCU: 0x66252, offset: 0x7345B, size: 0x8, addend: 0x0, symName: __ZNSt3__18distanceB8ue170006IPKN4CGAL15SM_Vertex_indexEEENS_15iterator_traitsIT_E15difference_typeES6_S6_, symObjAddr: 0x52318, symBinAddr: 0x100059BA8, symSize: 0x2C }
  - { offsetInCU: 0x6629B, offset: 0x734A4, size: 0x8, addend: 0x0, symName: __ZNSt3__110__distanceB8ue170006IPKN4CGAL15SM_Vertex_indexEEENS_15iterator_traitsIT_E15difference_typeES6_S6_NS_26random_access_iterator_tagE, symObjAddr: 0x523FC, symBinAddr: 0x100059C8C, symSize: 0x28 }
  - { offsetInCU: 0x662F0, offset: 0x734F9, size: 0x8, addend: 0x0, symName: __ZNSt3__130__uninitialized_allocator_copyB8ue170006INS_9allocatorIN4CGAL15SM_Vertex_indexEEEPKS3_S6_PS3_EET2_RT_T0_T1_S8_, symObjAddr: 0x524B0, symBinAddr: 0x100059D40, symSize: 0x80 }
  - { offsetInCU: 0x6638D, offset: 0x73596, size: 0x8, addend: 0x0, symName: __ZNSt3__16__copyB8ue170006INS_17_ClassicAlgPolicyEPKN4CGAL15SM_Vertex_indexES5_NS_11__wrap_iterIPS3_EEEENS_4pairIT0_T2_EESA_T1_SB_, symObjAddr: 0x52530, symBinAddr: 0x100059DC0, symSize: 0x4C }
  - { offsetInCU: 0x66401, offset: 0x7360A, size: 0x8, addend: 0x0, symName: __ZNSt3__123__dispatch_copy_or_moveB8ue170006INS_17_ClassicAlgPolicyENS_11__copy_loopIS1_EENS_14__copy_trivialEPKN4CGAL15SM_Vertex_indexES8_NS_11__wrap_iterIPS6_EEEENS_4pairIT2_T4_EESD_T3_SE_, symObjAddr: 0x5257C, symBinAddr: 0x100059E0C, symSize: 0x4C }
  - { offsetInCU: 0x66487, offset: 0x73690, size: 0x8, addend: 0x0, symName: __ZNSt3__121__unwrap_and_dispatchB8ue170006INS_10__overloadINS_11__copy_loopINS_17_ClassicAlgPolicyEEENS_14__copy_trivialEEEPKN4CGAL15SM_Vertex_indexESA_NS_11__wrap_iterIPS8_EELi0EEENS_4pairIT0_T2_EESF_T1_SG_, symObjAddr: 0x525C8, symBinAddr: 0x100059E58, symSize: 0xC4 }
  - { offsetInCU: 0x66522, offset: 0x7372B, size: 0x8, addend: 0x0, symName: __ZNSt3__19make_pairB8ue170006IPKN4CGAL15SM_Vertex_indexENS_11__wrap_iterIPS2_EEEENS_4pairINS_18__unwrap_ref_decayIT_E4typeENS9_IT0_E4typeEEEOSA_OSD_, symObjAddr: 0x5268C, symBinAddr: 0x100059F1C, symSize: 0x38 }
  - { offsetInCU: 0x66645, offset: 0x7384E, size: 0x8, addend: 0x0, symName: __ZNSt3__112__to_addressB8ue170006I5CoralEEPT_S3_, symObjAddr: 0x52C14, symBinAddr: 0x10005A4A4, symSize: 0x14 }
  - { offsetInCU: 0x6667A, offset: 0x73883, size: 0x8, addend: 0x0, symName: __ZNSt3__119__allocate_at_leastB8ue170006INS_9allocatorI5CoralEEEENS_19__allocation_resultINS_16allocator_traitsIT_E7pointerEEERS6_m, symObjAddr: 0x534F4, symBinAddr: 0x10005AD84, symSize: 0x40 }
  - { offsetInCU: 0x666C3, offset: 0x738CC, size: 0x8, addend: 0x0, symName: __ZNSt3__142__uninitialized_allocator_move_if_noexceptB8ue170006INS_9allocatorI5CoralEENS_16reverse_iteratorIPS2_EES6_S2_vEET1_RT_T0_SA_S7_, symObjAddr: 0x536AC, symBinAddr: 0x10005AF3C, symSize: 0x78 }
  - { offsetInCU: 0x66740, offset: 0x73949, size: 0x8, addend: 0x0, symName: __ZNSt3__14swapB8ue170006IP5CoralEENS_9enable_ifIXaasr21is_move_constructibleIT_EE5valuesr18is_move_assignableIS4_EE5valueEvE4typeERS4_S7_, symObjAddr: 0x53770, symBinAddr: 0x10005B000, symSize: 0x3C }
  - { offsetInCU: 0x66799, offset: 0x739A2, size: 0x8, addend: 0x0, symName: __ZNSt3__14moveB8ue170006INS_16reverse_iteratorIP5CoralEES4_EET0_T_S6_S5_, symObjAddr: 0x53874, symBinAddr: 0x10005B104, symSize: 0x78 }
  - { offsetInCU: 0x667FB, offset: 0x73A04, size: 0x8, addend: 0x0, symName: __ZNSt3__16__moveB8ue170006INS_17_ClassicAlgPolicyENS_16reverse_iteratorIP5CoralEES5_S5_EENS_4pairIT0_T2_EES7_T1_S8_, symObjAddr: 0x538EC, symBinAddr: 0x10005B17C, symSize: 0x64 }
  - { offsetInCU: 0x6686F, offset: 0x73A78, size: 0x8, addend: 0x0, symName: __ZNSt3__123__dispatch_copy_or_moveB8ue170006INS_17_ClassicAlgPolicyENS_11__move_loopIS1_EENS_14__move_trivialENS_16reverse_iteratorIP5CoralEES8_S8_EENS_4pairIT2_T4_EESA_T3_SB_, symObjAddr: 0x53950, symBinAddr: 0x10005B1E0, symSize: 0x64 }
  - { offsetInCU: 0x668F5, offset: 0x73AFE, size: 0x8, addend: 0x0, symName: __ZNSt3__121__unwrap_and_dispatchB8ue170006INS_10__overloadINS_11__move_loopINS_17_ClassicAlgPolicyEEENS_14__move_trivialEEENS_16reverse_iteratorIP5CoralEESA_SA_Li0EEENS_4pairIT0_T2_EESC_T1_SD_, symObjAddr: 0x539B4, symBinAddr: 0x10005B244, symSize: 0x12C }
  - { offsetInCU: 0x66991, offset: 0x73B9A, size: 0x8, addend: 0x0, symName: __ZNSt3__114__unwrap_rangeB8ue170006INS_16reverse_iteratorIP5CoralEES4_EENS_4pairIT0_S6_EET_S8_, symObjAddr: 0x53AE0, symBinAddr: 0x10005B370, symSize: 0x84 }
  - { offsetInCU: 0x66AB7, offset: 0x73CC0, size: 0x8, addend: 0x0, symName: __ZNSt3__113__unwrap_iterB8ue170006INS_16reverse_iteratorIP5CoralEENS_18__unwrap_iter_implIS4_Lb0EEELi0EEEDTclsrT0_8__unwrapclsr3stdE7declvalIT_EEEES8_, symObjAddr: 0x53C00, symBinAddr: 0x10005B490, symSize: 0x44 }
  - { offsetInCU: 0x66AFF, offset: 0x73D08, size: 0x8, addend: 0x0, symName: __ZNSt3__19make_pairB8ue170006INS_16reverse_iteratorIP5CoralEES4_EENS_4pairINS_18__unwrap_ref_decayIT_E4typeENS6_IT0_E4typeEEEOS7_OSA_, symObjAddr: 0x53C44, symBinAddr: 0x10005B4D4, symSize: 0x38 }
  - { offsetInCU: 0x66B4E, offset: 0x73D57, size: 0x8, addend: 0x0, symName: __ZNSt3__114__rewrap_rangeB8ue170006INS_16reverse_iteratorIP5CoralEES4_EET_S5_T0_, symObjAddr: 0x53C7C, symBinAddr: 0x10005B50C, symSize: 0x5C }
  - { offsetInCU: 0x66BA0, offset: 0x73DA9, size: 0x8, addend: 0x0, symName: __ZNSt3__113__rewrap_iterB8ue170006INS_16reverse_iteratorIP5CoralEES4_NS_18__unwrap_iter_implIS4_Lb0EEEEET_S7_T0_, symObjAddr: 0x53CD8, symBinAddr: 0x10005B568, symSize: 0x74 }
  - { offsetInCU: 0x66BFB, offset: 0x73E04, size: 0x8, addend: 0x0, symName: __ZNSt3__1neB8ue170006IP5CoralS2_EEbRKNS_16reverse_iteratorIT_EERKNS3_IT0_EE, symObjAddr: 0x53D4C, symBinAddr: 0x10005B5DC, symSize: 0x48 }
  - { offsetInCU: 0x67D8F, offset: 0x74F98, size: 0x8, addend: 0x0, symName: _coralMeshes, symObjAddr: 0x2E2450, symBinAddr: 0x1000680E0, symSize: 0x0 }
  - { offsetInCU: 0x6A459, offset: 0x77662, size: 0x8, addend: 0x0, symName: _noiseFrequencies, symObjAddr: 0x2E2468, symBinAddr: 0x1000680F8, symSize: 0x0 }
  - { offsetInCU: 0x6A573, offset: 0x7777C, size: 0x8, addend: 0x0, symName: _noiseAmplitudes, symObjAddr: 0x2E2480, symBinAddr: 0x100068110, symSize: 0x0 }
  - { offsetInCU: 0x6A596, offset: 0x7779F, size: 0x8, addend: 0x0, symName: _pn, symObjAddr: 0x2E2498, symBinAddr: 0x100068128, symSize: 0x0 }
  - { offsetInCU: 0x6A79F, offset: 0x779A8, size: 0x8, addend: 0x0, symName: __ZN4CGAL2IO6Static8get_modeEv, symObjAddr: 0x105E4, symBinAddr: 0x100017F24, symSize: 0xAC }
  - { offsetInCU: 0x6A7BE, offset: 0x779C7, size: 0x8, addend: 0x0, symName: __ZZN4CGAL2IO6Static8get_modeEvE4mode, symObjAddr: 0x574A8, symBinAddr: 0x100068050, symSize: 0x0 }
  - { offsetInCU: 0x6A87B, offset: 0x77A84, size: 0x8, addend: 0x0, symName: __ZNK5boost17integral_constantIbLb1EEcvRKN4mpl_5bool_ILb1EEEEv, symObjAddr: 0x25BF0, symBinAddr: 0x10002D494, symSize: 0x1C }
  - { offsetInCU: 0x6A89E, offset: 0x77AA7, size: 0x8, addend: 0x0, symName: __ZZNK5boost17integral_constantIbLb1EEcvRKN4mpl_5bool_ILb1EEEEvE4data, symObjAddr: 0x57027, symBinAddr: 0x100061134, symSize: 0x0 }
  - { offsetInCU: 0x6A8B4, offset: 0x77ABD, size: 0x8, addend: 0x0, symName: __ZZNK5boost17integral_constantIbLb1EEcvRKN4mpl_5bool_ILb1EEEEvE5pdata, symObjAddr: 0x574B8, symBinAddr: 0x100068060, symSize: 0x0 }
  - { offsetInCU: 0x6B11C, offset: 0x78325, size: 0x8, addend: 0x0, symName: __ZNSt3__16vectorIN4CGAL7Point_3INS1_16Simple_cartesianIdEEEENS_9allocatorIS5_EEE26__swap_out_circular_bufferERNS_14__split_bufferIS5_RS7_EE, symObjAddr: 0x11EA4, symBinAddr: 0x1000197E4, symSize: 0x110 }
  - { offsetInCU: 0x6B15D, offset: 0x78366, size: 0x8, addend: 0x0, symName: __ZNSt3__16vectorINS0_ImNS_9allocatorImEEEENS1_IS3_EEE26__swap_out_circular_bufferERNS_14__split_bufferIS3_RS4_EE, symObjAddr: 0x136C4, symBinAddr: 0x10001AF84, symSize: 0x110 }
  - { offsetInCU: 0x6B1F3, offset: 0x783FC, size: 0x8, addend: 0x0, symName: __ZNSt3__16vectorImNS_9allocatorImEEE26__swap_out_circular_bufferERNS_14__split_bufferImRS2_EE, symObjAddr: 0x1546C, symBinAddr: 0x10001CD2C, symSize: 0x110 }
  - { offsetInCU: 0x6BC81, offset: 0x78E8A, size: 0x8, addend: 0x0, symName: __ZN4CGAL10Properties18Property_containerINS_12Surface_meshINS_7Point_3INS_16Simple_cartesianIdEEEEEENS_15SM_Vertex_indexEE3addINS7_19Vertex_connectivityEEENSt3__14pairINS9_13Get_pmap_typeIT_E4typeEbEERKNSC_12basic_stringIcNSC_11char_traitsIcEENSC_9allocatorIcEEEESF_, symObjAddr: 0x2BF04, symBinAddr: 0x1000337A8, symSize: 0x184 }
  - { offsetInCU: 0x6BD23, offset: 0x78F2C, size: 0x8, addend: 0x0, symName: __ZNK4CGAL10Properties18Property_containerINS_12Surface_meshINS_7Point_3INS_16Simple_cartesianIdEEEEEENS_15SM_Vertex_indexEE3getINS7_19Vertex_connectivityEEENSt3__14pairINS9_13Get_pmap_typeIT_E4typeEbEERKNSC_12basic_stringIcNSC_11char_traitsIcEENSC_9allocatorIcEEEEm, symObjAddr: 0x2C1C8, symBinAddr: 0x100033A6C, symSize: 0x134 }
  - { offsetInCU: 0x6BD95, offset: 0x78F9E, size: 0x8, addend: 0x0, symName: __ZNSt3__16vectorIN4CGAL12Surface_meshINS1_7Point_3INS1_16Simple_cartesianIdEEEEE19Vertex_connectivityENS_9allocatorIS8_EEE26__swap_out_circular_bufferERNS_14__split_bufferIS8_RSA_EE, symObjAddr: 0x2D4A0, symBinAddr: 0x100034D44, symSize: 0x110 }
  - { offsetInCU: 0x6BE08, offset: 0x79011, size: 0x8, addend: 0x0, symName: __ZNSt3__16vectorIPN4CGAL10Properties19Base_property_arrayENS_9allocatorIS4_EEE26__swap_out_circular_bufferERNS_14__split_bufferIS4_RS6_EE, symObjAddr: 0x30C04, symBinAddr: 0x100038494, symSize: 0x110 }
  - { offsetInCU: 0x6BE7B, offset: 0x79084, size: 0x8, addend: 0x0, symName: __ZN4CGAL10Properties18Property_containerINS_12Surface_meshINS_7Point_3INS_16Simple_cartesianIdEEEEEENS_17SM_Halfedge_indexEE3addINS7_21Halfedge_connectivityEEENSt3__14pairINS9_13Get_pmap_typeIT_E4typeEbEERKNSC_12basic_stringIcNSC_11char_traitsIcEENSC_9allocatorIcEEEESF_, symObjAddr: 0x31D84, symBinAddr: 0x100039614, symSize: 0x184 }
  - { offsetInCU: 0x6BF1D, offset: 0x79126, size: 0x8, addend: 0x0, symName: __ZNK4CGAL10Properties18Property_containerINS_12Surface_meshINS_7Point_3INS_16Simple_cartesianIdEEEEEENS_17SM_Halfedge_indexEE3getINS7_21Halfedge_connectivityEEENSt3__14pairINS9_13Get_pmap_typeIT_E4typeEbEERKNSC_12basic_stringIcNSC_11char_traitsIcEENSC_9allocatorIcEEEEm, symObjAddr: 0x31F28, symBinAddr: 0x1000397B8, symSize: 0x134 }
  - { offsetInCU: 0x6BF8F, offset: 0x79198, size: 0x8, addend: 0x0, symName: __ZNSt3__16vectorIN4CGAL12Surface_meshINS1_7Point_3INS1_16Simple_cartesianIdEEEEE21Halfedge_connectivityENS_9allocatorIS8_EEE26__swap_out_circular_bufferERNS_14__split_bufferIS8_RSA_EE, symObjAddr: 0x32F34, symBinAddr: 0x10003A7C4, symSize: 0x110 }
  - { offsetInCU: 0x6C020, offset: 0x79229, size: 0x8, addend: 0x0, symName: __ZN4CGAL10Properties18Property_containerINS_12Surface_meshINS_7Point_3INS_16Simple_cartesianIdEEEEEENS_13SM_Face_indexEE3addINS7_17Face_connectivityEEENSt3__14pairINS9_13Get_pmap_typeIT_E4typeEbEERKNSC_12basic_stringIcNSC_11char_traitsIcEENSC_9allocatorIcEEEESF_, symObjAddr: 0x36514, symBinAddr: 0x10003DDA4, symSize: 0x184 }
  - { offsetInCU: 0x6C0C2, offset: 0x792CB, size: 0x8, addend: 0x0, symName: __ZNK4CGAL10Properties18Property_containerINS_12Surface_meshINS_7Point_3INS_16Simple_cartesianIdEEEEEENS_13SM_Face_indexEE3getINS7_17Face_connectivityEEENSt3__14pairINS9_13Get_pmap_typeIT_E4typeEbEERKNSC_12basic_stringIcNSC_11char_traitsIcEENSC_9allocatorIcEEEEm, symObjAddr: 0x366B8, symBinAddr: 0x10003DF48, symSize: 0x134 }
  - { offsetInCU: 0x6C134, offset: 0x7933D, size: 0x8, addend: 0x0, symName: __ZNSt3__16vectorIN4CGAL12Surface_meshINS1_7Point_3INS1_16Simple_cartesianIdEEEEE17Face_connectivityENS_9allocatorIS8_EEE26__swap_out_circular_bufferERNS_14__split_bufferIS8_RSA_EE, symObjAddr: 0x376C4, symBinAddr: 0x10003EF54, symSize: 0x110 }
  - { offsetInCU: 0x6C1C0, offset: 0x793C9, size: 0x8, addend: 0x0, symName: __ZN4CGAL10Properties18Property_containerINS_12Surface_meshINS_7Point_3INS_16Simple_cartesianIdEEEEEENS_15SM_Vertex_indexEE3addIS6_EENSt3__14pairINS9_13Get_pmap_typeIT_E4typeEbEERKNSB_12basic_stringIcNSB_11char_traitsIcEENSB_9allocatorIcEEEESE_, symObjAddr: 0x3AC30, symBinAddr: 0x1000424C0, symSize: 0x194 }
  - { offsetInCU: 0x6C262, offset: 0x7946B, size: 0x8, addend: 0x0, symName: __ZNK4CGAL10Properties18Property_containerINS_12Surface_meshINS_7Point_3INS_16Simple_cartesianIdEEEEEENS_15SM_Vertex_indexEE3getIS6_EENSt3__14pairINS9_13Get_pmap_typeIT_E4typeEbEERKNSB_12basic_stringIcNSB_11char_traitsIcEENSB_9allocatorIcEEEEm, symObjAddr: 0x3ADC4, symBinAddr: 0x100042654, symSize: 0x134 }
  - { offsetInCU: 0x6C306, offset: 0x7950F, size: 0x8, addend: 0x0, symName: __ZN4CGAL10Properties18Property_containerINS_12Surface_meshINS_7Point_3INS_16Simple_cartesianIdEEEEEENS_15SM_Vertex_indexEE3addIbEENSt3__14pairINS9_13Get_pmap_typeIT_E4typeEbEERKNSB_12basic_stringIcNSB_11char_traitsIcEENSB_9allocatorIcEEEESE_, symObjAddr: 0x3D910, symBinAddr: 0x1000451A0, symSize: 0x17C }
  - { offsetInCU: 0x6C3A8, offset: 0x795B1, size: 0x8, addend: 0x0, symName: __ZNK4CGAL10Properties18Property_containerINS_12Surface_meshINS_7Point_3INS_16Simple_cartesianIdEEEEEENS_15SM_Vertex_indexEE3getIbEENSt3__14pairINS9_13Get_pmap_typeIT_E4typeEbEERKNSB_12basic_stringIcNSB_11char_traitsIcEENSB_9allocatorIcEEEEm, symObjAddr: 0x3DA8C, symBinAddr: 0x10004531C, symSize: 0x134 }
  - { offsetInCU: 0x6C438, offset: 0x79641, size: 0x8, addend: 0x0, symName: __ZN4CGAL10Properties18Property_containerINS_12Surface_meshINS_7Point_3INS_16Simple_cartesianIdEEEEEENS_13SM_Edge_indexEE3addIbEENSt3__14pairINS9_13Get_pmap_typeIT_E4typeEbEERKNSB_12basic_stringIcNSB_11char_traitsIcEENSB_9allocatorIcEEEESE_, symObjAddr: 0x41D40, symBinAddr: 0x1000495D0, symSize: 0x17C }
  - { offsetInCU: 0x6C4DA, offset: 0x796E3, size: 0x8, addend: 0x0, symName: __ZNK4CGAL10Properties18Property_containerINS_12Surface_meshINS_7Point_3INS_16Simple_cartesianIdEEEEEENS_13SM_Edge_indexEE3getIbEENSt3__14pairINS9_13Get_pmap_typeIT_E4typeEbEERKNSB_12basic_stringIcNSB_11char_traitsIcEENSB_9allocatorIcEEEEm, symObjAddr: 0x41EDC, symBinAddr: 0x10004976C, symSize: 0x134 }
  - { offsetInCU: 0x6C560, offset: 0x79769, size: 0x8, addend: 0x0, symName: __ZN4CGAL10Properties18Property_containerINS_12Surface_meshINS_7Point_3INS_16Simple_cartesianIdEEEEEENS_13SM_Face_indexEE3addIbEENSt3__14pairINS9_13Get_pmap_typeIT_E4typeEbEERKNSB_12basic_stringIcNSB_11char_traitsIcEENSB_9allocatorIcEEEESE_, symObjAddr: 0x42264, symBinAddr: 0x100049AF4, symSize: 0x17C }
  - { offsetInCU: 0x6C602, offset: 0x7980B, size: 0x8, addend: 0x0, symName: __ZNK4CGAL10Properties18Property_containerINS_12Surface_meshINS_7Point_3INS_16Simple_cartesianIdEEEEEENS_13SM_Face_indexEE3getIbEENSt3__14pairINS9_13Get_pmap_typeIT_E4typeEbEERKNSB_12basic_stringIcNSB_11char_traitsIcEENSB_9allocatorIcEEEEm, symObjAddr: 0x423E0, symBinAddr: 0x100049C70, symSize: 0x134 }
  - { offsetInCU: 0x6CC2C, offset: 0x79E35, size: 0x8, addend: 0x0, symName: __ZNSt3__16vectorIN4CGAL15SM_Vertex_indexENS_9allocatorIS2_EEE26__swap_out_circular_bufferERNS_14__split_bufferIS2_RS4_EE, symObjAddr: 0x4BC34, symBinAddr: 0x1000534C4, symSize: 0x110 }
  - { offsetInCU: 0x6CCE0, offset: 0x79EE9, size: 0x8, addend: 0x0, symName: __ZNSt3__16vectorIN4CGAL12Surface_meshINS1_7Point_3INS1_16Simple_cartesianIdEEEEEENS_9allocatorIS7_EEE26__swap_out_circular_bufferERNS_14__split_bufferIS7_RS9_EE, symObjAddr: 0x4E354, symBinAddr: 0x100055BE4, symSize: 0x110 }
  - { offsetInCU: 0x6CD76, offset: 0x79F7F, size: 0x8, addend: 0x0, symName: __ZNSt3__16vectorI5CoralNS_9allocatorIS1_EEE26__swap_out_circular_bufferERNS_14__split_bufferIS1_RS3_EE, symObjAddr: 0x53184, symBinAddr: 0x10005AA14, symSize: 0x110 }
  - { offsetInCU: 0x6D4C2, offset: 0x7A6CB, size: 0x8, addend: 0x0, symName: __Z7isspacei, symObjAddr: 0x10E04, symBinAddr: 0x100018744, symSize: 0x28 }
  - { offsetInCU: 0x6ED32, offset: 0x7BF3B, size: 0x8, addend: 0x0, symName: __ZN5boost11optional_ns15in_place_init_tC1ENS1_8init_tagE, symObjAddr: 0xB8, symBinAddr: 0x1000082D8, symSize: 0x2C }
  - { offsetInCU: 0x6ED65, offset: 0x7BF6E, size: 0x8, addend: 0x0, symName: __ZN5boost11optional_ns18in_place_init_if_tC1ENS1_8init_tagE, symObjAddr: 0xE4, symBinAddr: 0x100008304, symSize: 0x2C }
  - { offsetInCU: 0x6ED98, offset: 0x7BFA1, size: 0x8, addend: 0x0, symName: __ZNSt3__16vectorIN4CGAL12Surface_meshINS1_7Point_3INS1_16Simple_cartesianIdEEEEEENS_9allocatorIS7_EEEC1B8ue170006Ev, symObjAddr: 0x17C, symBinAddr: 0x10000839C, symSize: 0x2C }
  - { offsetInCU: 0x6EDC1, offset: 0x7BFCA, size: 0x8, addend: 0x0, symName: __ZNSt3__16vectorIN4CGAL12Surface_meshINS1_7Point_3INS1_16Simple_cartesianIdEEEEEENS_9allocatorIS7_EEED1B8ue170006Ev, symObjAddr: 0x1A8, symBinAddr: 0x1000083C8, symSize: 0x2C }
  - { offsetInCU: 0x6EDEA, offset: 0x7BFF3, size: 0x8, addend: 0x0, symName: __ZNSt3__16vectorIfNS_9allocatorIfEEEC1B8ue170006ESt16initializer_listIfE, symObjAddr: 0x1D4, symBinAddr: 0x1000083F4, symSize: 0x3C }
  - { offsetInCU: 0x6EE24, offset: 0x7C02D, size: 0x8, addend: 0x0, symName: __ZNSt3__16vectorIfNS_9allocatorIfEEED1B8ue170006Ev, symObjAddr: 0x210, symBinAddr: 0x100008430, symSize: 0x2C }
  - { offsetInCU: 0x6EE4D, offset: 0x7C056, size: 0x8, addend: 0x0, symName: __ZN11PerlinNoiseD1Ev, symObjAddr: 0x23C, symBinAddr: 0x10000845C, symSize: 0x2C }
  - { offsetInCU: 0x6EE76, offset: 0x7C07F, size: 0x8, addend: 0x0, symName: __Z22calculateTerrainHeightdd, symObjAddr: 0x268, symBinAddr: 0x100008488, symSize: 0xF8 }
  - { offsetInCU: 0x6EEDB, offset: 0x7C0E4, size: 0x8, addend: 0x0, symName: __ZNKSt3__16vectorIfNS_9allocatorIfEEE4sizeB8ue170006Ev, symObjAddr: 0x360, symBinAddr: 0x100008580, symSize: 0x28 }
  - { offsetInCU: 0x6EF00, offset: 0x7C109, size: 0x8, addend: 0x0, symName: __ZNSt3__16vectorIfNS_9allocatorIfEEEixB8ue170006Em, symObjAddr: 0x388, symBinAddr: 0x1000085A8, symSize: 0x24 }
  - { offsetInCU: 0x6EF35, offset: 0x7C13E, size: 0x8, addend: 0x0, symName: __Z7readOBJRKNSt3__112basic_stringIcNS_11char_traitsIcEENS_9allocatorIcEEEERN4CGAL12Surface_meshINS8_7Point_3INS8_16Simple_cartesianIdEEEEEE, symObjAddr: 0x3AC, symBinAddr: 0x1000085CC, symSize: 0x1A8 }
  - { offsetInCU: 0x6F00D, offset: 0x7C216, size: 0x8, addend: 0x0, symName: __ZNSt3__114basic_ifstreamIcNS_11char_traitsIcEEEC1ERKNS_12basic_stringIcS2_NS_9allocatorIcEEEEj, symObjAddr: 0x554, symBinAddr: 0x100008774, symSize: 0x16C }
  - { offsetInCU: 0x6F05A, offset: 0x7C263, size: 0x8, addend: 0x0, symName: __ZNKSt3__19basic_iosIcNS_11char_traitsIcEEEntB8ue170006Ev, symObjAddr: 0x6C0, symBinAddr: 0x1000088E0, symSize: 0x28 }
  - { offsetInCU: 0x6F07F, offset: 0x7C288, size: 0x8, addend: 0x0, symName: __ZNSt3__113basic_ostreamIcNS_11char_traitsIcEEElsB8ue170006EPFRS3_S4_E, symObjAddr: 0x820, symBinAddr: 0x100008A40, symSize: 0x2C }
  - { offsetInCU: 0x6F0B7, offset: 0x7C2C0, size: 0x8, addend: 0x0, symName: __ZNSt3__114basic_ifstreamIcNS_11char_traitsIcEEED1Ev, symObjAddr: 0x8A4, symBinAddr: 0x100008AC4, symSize: 0x40 }
  - { offsetInCU: 0x6F0E3, offset: 0x7C2EC, size: 0x8, addend: 0x0, symName: __Z8writeOBJRKNSt3__112basic_stringIcNS_11char_traitsIcEENS_9allocatorIcEEEERKN4CGAL12Surface_meshINS8_7Point_3INS8_16Simple_cartesianIdEEEEEE, symObjAddr: 0x8E4, symBinAddr: 0x100008B04, symSize: 0x1A8 }
  - { offsetInCU: 0x6F148, offset: 0x7C351, size: 0x8, addend: 0x0, symName: __ZNSt3__114basic_ofstreamIcNS_11char_traitsIcEEEC1ERKNS_12basic_stringIcS2_NS_9allocatorIcEEEEj, symObjAddr: 0xA8C, symBinAddr: 0x100008CAC, symSize: 0x16C }
  - { offsetInCU: 0x6F19A, offset: 0x7C3A3, size: 0x8, addend: 0x0, symName: __ZNSt3__114basic_ofstreamIcNS_11char_traitsIcEEED1Ev, symObjAddr: 0xC44, symBinAddr: 0x100008E64, symSize: 0x40 }
  - { offsetInCU: 0x6F1C6, offset: 0x7C3CF, size: 0x8, addend: 0x0, symName: __Z13combineMeshesRKNSt3__16vectorI5CoralNS_9allocatorIS1_EEEERKN4CGAL12Surface_meshINS7_7Point_3INS7_16Simple_cartesianIdEEEEEE, symObjAddr: 0xC84, symBinAddr: 0x100008EA4, symSize: 0x720 }
  - { offsetInCU: 0x6F424, offset: 0x7C62D, size: 0x8, addend: 0x0, symName: __ZN4CGAL12Surface_meshINS_7Point_3INS_16Simple_cartesianIdEEEEEC1Ev, symObjAddr: 0x13A4, symBinAddr: 0x1000095C4, symSize: 0x2C }
  - { offsetInCU: 0x6F44F, offset: 0x7C658, size: 0x8, addend: 0x0, symName: __ZNKSt3__16vectorI5CoralNS_9allocatorIS1_EEE5beginB8ue170006Ev, symObjAddr: 0x13D0, symBinAddr: 0x1000095F0, symSize: 0x30 }
  - { offsetInCU: 0x6F475, offset: 0x7C67E, size: 0x8, addend: 0x0, symName: __ZNKSt3__16vectorI5CoralNS_9allocatorIS1_EEE3endB8ue170006Ev, symObjAddr: 0x1400, symBinAddr: 0x100009620, symSize: 0x30 }
  - { offsetInCU: 0x6F49B, offset: 0x7C6A4, size: 0x8, addend: 0x0, symName: __ZNKSt3__111__wrap_iterIPK5CoralEdeB8ue170006Ev, symObjAddr: 0x1464, symBinAddr: 0x100009684, symSize: 0x18 }
  - { offsetInCU: 0x6F4C0, offset: 0x7C6C9, size: 0x8, addend: 0x0, symName: __ZNSt3__16vectorIN4CGAL12Surface_meshINS1_7Point_3INS1_16Simple_cartesianIdEEEEEENS_9allocatorIS7_EEEixB8ue170006Em, symObjAddr: 0x147C, symBinAddr: 0x10000969C, symSize: 0x2C }
  - { offsetInCU: 0x6F4F6, offset: 0x7C6FF, size: 0x8, addend: 0x0, symName: __ZN4CGAL12Surface_meshINS_7Point_3INS_16Simple_cartesianIdEEEEEC1ERKS5_, symObjAddr: 0x14A8, symBinAddr: 0x1000096C8, symSize: 0x34 }
  - { offsetInCU: 0x6F52E, offset: 0x7C737, size: 0x8, addend: 0x0, symName: __ZN4CGAL20Aff_transformation_3INS_16Simple_cartesianIdEEEC1ERKNS_23Identity_transformationE, symObjAddr: 0x14DC, symBinAddr: 0x1000096FC, symSize: 0x34 }
  - { offsetInCU: 0x6F565, offset: 0x7C76E, size: 0x8, addend: 0x0, symName: __ZN4CGAL20Aff_transformation_3INS_16Simple_cartesianIdEEEC1ERKdS5_S5_S5_S5_S5_S5_S5_S5_S5_, symObjAddr: 0x1510, symBinAddr: 0x100009730, symSize: 0x98 }
  - { offsetInCU: 0x6F625, offset: 0x7C82E, size: 0x8, addend: 0x0, symName: __ZN4CGAL20Aff_transformation_3INS_16Simple_cartesianIdEEEaSEOS3_, symObjAddr: 0x15A8, symBinAddr: 0x1000097C8, symSize: 0x34 }
  - { offsetInCU: 0x6F655, offset: 0x7C85E, size: 0x8, addend: 0x0, symName: __ZN4CGAL20Aff_transformation_3INS_16Simple_cartesianIdEEED1Ev, symObjAddr: 0x15DC, symBinAddr: 0x1000097FC, symSize: 0x2C }
  - { offsetInCU: 0x6F67F, offset: 0x7C888, size: 0x8, addend: 0x0, symName: __ZNK4CGAL7Point_3INS_16Simple_cartesianIdEEE1xEv, symObjAddr: 0x1608, symBinAddr: 0x100009828, symSize: 0x28 }
  - { offsetInCU: 0x6F6A4, offset: 0x7C8AD, size: 0x8, addend: 0x0, symName: __ZNK4CGAL7Point_3INS_16Simple_cartesianIdEEE1yEv, symObjAddr: 0x1630, symBinAddr: 0x100009850, symSize: 0x28 }
  - { offsetInCU: 0x6F6C9, offset: 0x7C8D2, size: 0x8, addend: 0x0, symName: __ZNK4CGAL7Point_3INS_16Simple_cartesianIdEEE1zEv, symObjAddr: 0x1658, symBinAddr: 0x100009878, symSize: 0x28 }
  - { offsetInCU: 0x6F6EE, offset: 0x7C8F7, size: 0x8, addend: 0x0, symName: __ZN4CGAL8Vector_3INS_16Simple_cartesianIdEEEC1IdddEERKT_RKT0_RKT1_, symObjAddr: 0x1680, symBinAddr: 0x1000098A0, symSize: 0x44 }
  - { offsetInCU: 0x6F75C, offset: 0x7C965, size: 0x8, addend: 0x0, symName: __ZN4CGAL20Aff_transformation_3INS_16Simple_cartesianIdEEEC1ENS_11TranslationERKNS_8Vector_3IS2_EE, symObjAddr: 0x16C4, symBinAddr: 0x1000098E4, symSize: 0x34 }
  - { offsetInCU: 0x6F7A1, offset: 0x7C9AA, size: 0x8, addend: 0x0, symName: __ZNK4CGAL12Surface_meshINS_7Point_3INS_16Simple_cartesianIdEEEEE8verticesEv, symObjAddr: 0x16F8, symBinAddr: 0x100009918, symSize: 0x68 }
  - { offsetInCU: 0x6F7C6, offset: 0x7C9CF, size: 0x8, addend: 0x0, symName: __ZNK4CGAL14Iterator_rangeINS_12Surface_meshINS_7Point_3INS_16Simple_cartesianIdEEEEE14Index_iteratorINS_15SM_Vertex_indexEEEE5beginEv, symObjAddr: 0x1760, symBinAddr: 0x100009980, symSize: 0x24 }
  - { offsetInCU: 0x6F7EB, offset: 0x7C9F4, size: 0x8, addend: 0x0, symName: __ZNK4CGAL14Iterator_rangeINS_12Surface_meshINS_7Point_3INS_16Simple_cartesianIdEEEEE14Index_iteratorINS_15SM_Vertex_indexEEEE3endEv, symObjAddr: 0x1784, symBinAddr: 0x1000099A4, symSize: 0x24 }
  - { offsetInCU: 0x6F810, offset: 0x7CA19, size: 0x8, addend: 0x0, symName: __ZNK5boost9iterators6detail20iterator_facade_baseIN4CGAL12Surface_meshINS3_7Point_3INS3_16Simple_cartesianIdEEEEE14Index_iteratorINS3_15SM_Vertex_indexEEESB_NSt3__126random_access_iterator_tagESB_lLb0ELb0EEdeEv, symObjAddr: 0x17F4, symBinAddr: 0x100009A14, symSize: 0x30 }
  - { offsetInCU: 0x6F835, offset: 0x7CA3E, size: 0x8, addend: 0x0, symName: __ZNK4CGAL20Aff_transformationC3INS_16Simple_cartesianIdEEEclERKNS_7Point_3IS2_EE, symObjAddr: 0x1824, symBinAddr: 0x100009A44, symSize: 0x44 }
  - { offsetInCU: 0x6F868, offset: 0x7CA71, size: 0x8, addend: 0x0, symName: __ZN4CGAL12Surface_meshINS_7Point_3INS_16Simple_cartesianIdEEEEE5pointENS_15SM_Vertex_indexE, symObjAddr: 0x1868, symBinAddr: 0x100009A88, symSize: 0x34 }
  - { offsetInCU: 0x6F89C, offset: 0x7CAA5, size: 0x8, addend: 0x0, symName: __ZN5boost9iterators6detail20iterator_facade_baseIN4CGAL12Surface_meshINS3_7Point_3INS3_16Simple_cartesianIdEEEEE14Index_iteratorINS3_15SM_Vertex_indexEEESB_NSt3__126random_access_iterator_tagESB_lLb0ELb0EEppEv, symObjAddr: 0x189C, symBinAddr: 0x100009ABC, symSize: 0x34 }
  - { offsetInCU: 0x6F8C1, offset: 0x7CACA, size: 0x8, addend: 0x0, symName: __ZNSt3__13mapIN4CGAL15SM_Vertex_indexES2_NS_4lessIS2_EENS_9allocatorINS_4pairIKS2_S2_EEEEEC1B8ue170006Ev, symObjAddr: 0x18D0, symBinAddr: 0x100009AF0, symSize: 0x2C }
  - { offsetInCU: 0x6F8EA, offset: 0x7CAF3, size: 0x8, addend: 0x0, symName: __ZN4CGAL12Surface_meshINS_7Point_3INS_16Simple_cartesianIdEEEEE10add_vertexERKS4_, symObjAddr: 0x18FC, symBinAddr: 0x100009B1C, symSize: 0x60 }
  - { offsetInCU: 0x6F92D, offset: 0x7CB36, size: 0x8, addend: 0x0, symName: __ZNSt3__13mapIN4CGAL15SM_Vertex_indexES2_NS_4lessIS2_EENS_9allocatorINS_4pairIKS2_S2_EEEEEixERS7_, symObjAddr: 0x195C, symBinAddr: 0x100009B7C, symSize: 0x80 }
  - { offsetInCU: 0x6F962, offset: 0x7CB6B, size: 0x8, addend: 0x0, symName: __ZNK4CGAL12Surface_meshINS_7Point_3INS_16Simple_cartesianIdEEEEE5facesEv, symObjAddr: 0x19DC, symBinAddr: 0x100009BFC, symSize: 0x68 }
  - { offsetInCU: 0x6F987, offset: 0x7CB90, size: 0x8, addend: 0x0, symName: __ZNK4CGAL14Iterator_rangeINS_12Surface_meshINS_7Point_3INS_16Simple_cartesianIdEEEEE14Index_iteratorINS_13SM_Face_indexEEEE5beginEv, symObjAddr: 0x1A44, symBinAddr: 0x100009C64, symSize: 0x24 }
  - { offsetInCU: 0x6F9AC, offset: 0x7CBB5, size: 0x8, addend: 0x0, symName: __ZNK4CGAL14Iterator_rangeINS_12Surface_meshINS_7Point_3INS_16Simple_cartesianIdEEEEE14Index_iteratorINS_13SM_Face_indexEEEE3endEv, symObjAddr: 0x1A68, symBinAddr: 0x100009C88, symSize: 0x24 }
  - { offsetInCU: 0x6F9D1, offset: 0x7CBDA, size: 0x8, addend: 0x0, symName: __ZNK5boost9iterators6detail20iterator_facade_baseIN4CGAL12Surface_meshINS3_7Point_3INS3_16Simple_cartesianIdEEEEE14Index_iteratorINS3_13SM_Face_indexEEESB_NSt3__126random_access_iterator_tagESB_lLb0ELb0EEdeEv, symObjAddr: 0x1AD8, symBinAddr: 0x100009CF8, symSize: 0x30 }
  - { offsetInCU: 0x6F9F6, offset: 0x7CBFF, size: 0x8, addend: 0x0, symName: __ZNSt3__16vectorIN4CGAL15SM_Vertex_indexENS_9allocatorIS2_EEEC1B8ue170006Ev, symObjAddr: 0x1B08, symBinAddr: 0x100009D28, symSize: 0x2C }
  - { offsetInCU: 0x6FA1F, offset: 0x7CC28, size: 0x8, addend: 0x0, symName: __ZNK4CGAL12Surface_meshINS_7Point_3INS_16Simple_cartesianIdEEEEE8halfedgeENS_13SM_Face_indexE, symObjAddr: 0x1BB4, symBinAddr: 0x100009DD4, symSize: 0x40 }
  - { offsetInCU: 0x6FA53, offset: 0x7CC5C, size: 0x8, addend: 0x0, symName: __ZNK4CGAL14Iterator_rangeINS_27Vertex_around_face_iteratorINS_12Surface_meshINS_7Point_3INS_16Simple_cartesianIdEEEEEEEEE5beginEv, symObjAddr: 0x1BF4, symBinAddr: 0x100009E14, symSize: 0x24 }
  - { offsetInCU: 0x6FA78, offset: 0x7CC81, size: 0x8, addend: 0x0, symName: __ZNK4CGAL14Iterator_rangeINS_27Vertex_around_face_iteratorINS_12Surface_meshINS_7Point_3INS_16Simple_cartesianIdEEEEEEEEE3endEv, symObjAddr: 0x1C18, symBinAddr: 0x100009E38, symSize: 0x24 }
  - { offsetInCU: 0x6FA9D, offset: 0x7CCA6, size: 0x8, addend: 0x0, symName: __ZNK5boost9iterators6detail20iterator_facade_baseIN4CGAL27Vertex_around_face_iteratorINS3_12Surface_meshINS3_7Point_3INS3_16Simple_cartesianIdEEEEEEEENS3_15SM_Vertex_indexENSt3__126bidirectional_iterator_tagESC_lLb0ELb0EEdeEv, symObjAddr: 0x1C88, symBinAddr: 0x100009EA8, symSize: 0x30 }
  - { offsetInCU: 0x6FAC2, offset: 0x7CCCB, size: 0x8, addend: 0x0, symName: __ZNSt3__16vectorIN4CGAL15SM_Vertex_indexENS_9allocatorIS2_EEE9push_backB8ue170006ERKS2_, symObjAddr: 0x1CB8, symBinAddr: 0x100009ED8, symSize: 0x6C }
  - { offsetInCU: 0x6FAF7, offset: 0x7CD00, size: 0x8, addend: 0x0, symName: __ZN5boost9iterators6detail20iterator_facade_baseIN4CGAL27Vertex_around_face_iteratorINS3_12Surface_meshINS3_7Point_3INS3_16Simple_cartesianIdEEEEEEEENS3_15SM_Vertex_indexENSt3__126bidirectional_iterator_tagESC_lLb0ELb0EEppEv, symObjAddr: 0x1D24, symBinAddr: 0x100009F44, symSize: 0x34 }
  - { offsetInCU: 0x6FB1C, offset: 0x7CD25, size: 0x8, addend: 0x0, symName: __ZN4CGAL12Surface_meshINS_7Point_3INS_16Simple_cartesianIdEEEEE8add_faceINSt3__16vectorINS_15SM_Vertex_indexENS7_9allocatorIS9_EEEEEENS_13SM_Face_indexERKT_, symObjAddr: 0x1D58, symBinAddr: 0x100009F78, symSize: 0x34 }
  - { offsetInCU: 0x6FB5A, offset: 0x7CD63, size: 0x8, addend: 0x0, symName: __ZNSt3__16vectorIN4CGAL15SM_Vertex_indexENS_9allocatorIS2_EEED1B8ue170006Ev, symObjAddr: 0x1D8C, symBinAddr: 0x100009FAC, symSize: 0x2C }
  - { offsetInCU: 0x6FB83, offset: 0x7CD8C, size: 0x8, addend: 0x0, symName: __ZN5boost9iterators6detail20iterator_facade_baseIN4CGAL12Surface_meshINS3_7Point_3INS3_16Simple_cartesianIdEEEEE14Index_iteratorINS3_13SM_Face_indexEEESB_NSt3__126random_access_iterator_tagESB_lLb0ELb0EEppEv, symObjAddr: 0x1DB8, symBinAddr: 0x100009FD8, symSize: 0x34 }
  - { offsetInCU: 0x6FBA8, offset: 0x7CDB1, size: 0x8, addend: 0x0, symName: __ZNSt3__13mapIN4CGAL15SM_Vertex_indexES2_NS_4lessIS2_EENS_9allocatorINS_4pairIKS2_S2_EEEEED1B8ue170006Ev, symObjAddr: 0x1DEC, symBinAddr: 0x10000A00C, symSize: 0x2C }
  - { offsetInCU: 0x6FBD1, offset: 0x7CDDA, size: 0x8, addend: 0x0, symName: __ZN4CGAL12Surface_meshINS_7Point_3INS_16Simple_cartesianIdEEEEED1Ev, symObjAddr: 0x1E18, symBinAddr: 0x10000A038, symSize: 0x2C }
  - { offsetInCU: 0x6FBFD, offset: 0x7CE06, size: 0x8, addend: 0x0, symName: __ZNSt3__111__wrap_iterIPK5CoralEppB8ue170006Ev, symObjAddr: 0x1E44, symBinAddr: 0x10000A064, symSize: 0x20 }
  - { offsetInCU: 0x6FC22, offset: 0x7CE2B, size: 0x8, addend: 0x0, symName: _main, symObjAddr: 0x1E64, symBinAddr: 0x10000A084, symSize: 0x9B4 }
  - { offsetInCU: 0x6FE4E, offset: 0x7D057, size: 0x8, addend: 0x0, symName: __ZNSt3__112basic_stringIcNS_11char_traitsIcEENS_9allocatorIcEEEC1B8ue170006ILi0EEEPKc, symObjAddr: 0x2818, symBinAddr: 0x10000AA38, symSize: 0x34 }
  - { offsetInCU: 0x6FE8C, offset: 0x7D095, size: 0x8, addend: 0x0, symName: __ZNSt3__16vectorINS_12basic_stringIcNS_11char_traitsIcEENS_9allocatorIcEEEENS4_IS6_EEEC1B8ue170006ESt16initializer_listIS6_E, symObjAddr: 0x284C, symBinAddr: 0x10000AA6C, symSize: 0x3C }
  - { offsetInCU: 0x6FEC6, offset: 0x7D0CF, size: 0x8, addend: 0x0, symName: __ZNSt3__16vectorINS_12basic_stringIcNS_11char_traitsIcEENS_9allocatorIcEEEENS4_IS6_EEE5beginB8ue170006Ev, symObjAddr: 0x2888, symBinAddr: 0x10000AAA8, symSize: 0x30 }
  - { offsetInCU: 0x6FEEC, offset: 0x7D0F5, size: 0x8, addend: 0x0, symName: __ZNSt3__16vectorINS_12basic_stringIcNS_11char_traitsIcEENS_9allocatorIcEEEENS4_IS6_EEE3endB8ue170006Ev, symObjAddr: 0x28B8, symBinAddr: 0x10000AAD8, symSize: 0x30 }
  - { offsetInCU: 0x6FF12, offset: 0x7D11B, size: 0x8, addend: 0x0, symName: __ZNKSt3__111__wrap_iterIPNS_12basic_stringIcNS_11char_traitsIcEENS_9allocatorIcEEEEEdeB8ue170006Ev, symObjAddr: 0x291C, symBinAddr: 0x10000AB3C, symSize: 0x18 }
  - { offsetInCU: 0x6FF37, offset: 0x7D140, size: 0x8, addend: 0x0, symName: __ZNSt3__16vectorIN4CGAL12Surface_meshINS1_7Point_3INS1_16Simple_cartesianIdEEEEEENS_9allocatorIS7_EEE9push_backB8ue170006ERKS7_, symObjAddr: 0x2934, symBinAddr: 0x10000AB54, symSize: 0x6C }
  - { offsetInCU: 0x6FF6C, offset: 0x7D175, size: 0x8, addend: 0x0, symName: __ZNSt3__111__wrap_iterIPNS_12basic_stringIcNS_11char_traitsIcEENS_9allocatorIcEEEEEppB8ue170006Ev, symObjAddr: 0x29A0, symBinAddr: 0x10000ABC0, symSize: 0x20 }
  - { offsetInCU: 0x6FF91, offset: 0x7D19A, size: 0x8, addend: 0x0, symName: __ZNSt3__16vectorINS_12basic_stringIcNS_11char_traitsIcEENS_9allocatorIcEEEENS4_IS6_EEED1B8ue170006Ev, symObjAddr: 0x29C0, symBinAddr: 0x10000ABE0, symSize: 0x2C }
  - { offsetInCU: 0x6FFBA, offset: 0x7D1C3, size: 0x8, addend: 0x0, symName: __ZNSt3__16vectorIN4CGAL15SM_Vertex_indexENS_9allocatorIS2_EEE9push_backB8ue170006EOS2_, symObjAddr: 0x29EC, symBinAddr: 0x10000AC0C, symSize: 0x6C }
  - { offsetInCU: 0x6FFEF, offset: 0x7D1F8, size: 0x8, addend: 0x0, symName: __ZN4CGAL7Point_3INS_16Simple_cartesianIdEEEC1IdddEERKT_RKT0_RKT1_, symObjAddr: 0x2A58, symBinAddr: 0x10000AC78, symSize: 0x44 }
  - { offsetInCU: 0x7005D, offset: 0x7D266, size: 0x8, addend: 0x0, symName: __ZNSt3__16vectorIN4CGAL15SM_Vertex_indexENS_9allocatorIS2_EEEixB8ue170006Em, symObjAddr: 0x2A9C, symBinAddr: 0x10000ACBC, symSize: 0x24 }
  - { offsetInCU: 0x70093, offset: 0x7D29C, size: 0x8, addend: 0x0, symName: __ZN4CGAL12Surface_meshINS_7Point_3INS_16Simple_cartesianIdEEEEE8add_faceENS_15SM_Vertex_indexES6_S6_, symObjAddr: 0x2AC0, symBinAddr: 0x10000ACE0, symSize: 0x60 }
  - { offsetInCU: 0x700F4, offset: 0x7D2FD, size: 0x8, addend: 0x0, symName: __ZNK4CGAL12Surface_meshINS_7Point_3INS_16Simple_cartesianIdEEEEE18number_of_verticesEv, symObjAddr: 0x2B20, symBinAddr: 0x10000AD40, symSize: 0x44 }
  - { offsetInCU: 0x70119, offset: 0x7D322, size: 0x8, addend: 0x0, symName: __ZNSt3__16vectorI5CoralNS_9allocatorIS1_EEEC1B8ue170006Ev, symObjAddr: 0x2B64, symBinAddr: 0x10000AD84, symSize: 0x2C }
  - { offsetInCU: 0x70142, offset: 0x7D34B, size: 0x8, addend: 0x0, symName: __ZNKSt3__16vectorIN4CGAL12Surface_meshINS1_7Point_3INS1_16Simple_cartesianIdEEEEEENS_9allocatorIS7_EEE4sizeB8ue170006Ev, symObjAddr: 0x2B90, symBinAddr: 0x10000ADB0, symSize: 0x28 }
  - { offsetInCU: 0x70167, offset: 0x7D370, size: 0x8, addend: 0x0, symName: __ZNSt3__16vectorI5CoralNS_9allocatorIS1_EEE9push_backB8ue170006EOS1_, symObjAddr: 0x2BB8, symBinAddr: 0x10000ADD8, symSize: 0x6C }
  - { offsetInCU: 0x7019C, offset: 0x7D3A5, size: 0x8, addend: 0x0, symName: __ZN5CoralC1ERKN4CGAL7Point_3INS0_16Simple_cartesianIdEEEEdi, symObjAddr: 0x2C24, symBinAddr: 0x10000AE44, symSize: 0x44 }
  - { offsetInCU: 0x701EF, offset: 0x7D3F8, size: 0x8, addend: 0x0, symName: __ZNSt3__16vectorI5CoralNS_9allocatorIS1_EEED1B8ue170006Ev, symObjAddr: 0x2C68, symBinAddr: 0x10000AE88, symSize: 0x2C }
  - { offsetInCU: 0x70218, offset: 0x7D421, size: 0x8, addend: 0x0, symName: __ZN4CGAL11Interval_ntILb1EE27Test_runtime_rounding_modesC1Ev, symObjAddr: 0x2C94, symBinAddr: 0x10000AEB4, symSize: 0x2C }
  - { offsetInCU: 0x70241, offset: 0x7D44A, size: 0x8, addend: 0x0, symName: __ZN5boost4math6detail21min_shift_initializerIdE4initC1Ev, symObjAddr: 0x2CC0, symBinAddr: 0x10000AEE0, symSize: 0x2C }
  - { offsetInCU: 0x7026A, offset: 0x7D473, size: 0x8, addend: 0x0, symName: __ZN4CGAL35Check_FPU_rounding_mode_is_restoredC1Ev, symObjAddr: 0x2CEC, symBinAddr: 0x10000AF0C, symSize: 0x2C }
  - { offsetInCU: 0x70293, offset: 0x7D49C, size: 0x8, addend: 0x0, symName: __ZN4CGAL35Check_FPU_rounding_mode_is_restoredD1Ev, symObjAddr: 0x2D18, symBinAddr: 0x10000AF38, symSize: 0x2C }
  - { offsetInCU: 0x702BC, offset: 0x7D4C5, size: 0x8, addend: 0x0, symName: __ZN4CGAL35Check_FPU_rounding_mode_is_restoredC2Ev, symObjAddr: 0x2D44, symBinAddr: 0x10000AF64, symSize: 0x34 }
  - { offsetInCU: 0x702E5, offset: 0x7D4EE, size: 0x8, addend: 0x0, symName: __ZN4CGAL35Check_FPU_rounding_mode_is_restoredD2Ev, symObjAddr: 0x2D90, symBinAddr: 0x10000AFB0, symSize: 0x8C }
  - { offsetInCU: 0x70322, offset: 0x7D52B, size: 0x8, addend: 0x0, symName: __ZN4CGAL19Assertion_exceptionC1ENSt3__112basic_stringIcNS1_11char_traitsIcEENS1_9allocatorIcEEEES7_S7_iS7_, symObjAddr: 0x3070, symBinAddr: 0x10000B284, symSize: 0x54 }
  - { offsetInCU: 0x70395, offset: 0x7D59E, size: 0x8, addend: 0x0, symName: __ZN4CGAL19Assertion_exceptionD1Ev, symObjAddr: 0x30C4, symBinAddr: 0x10000B2D8, symSize: 0x2C }
  - { offsetInCU: 0x703BF, offset: 0x7D5C8, size: 0x8, addend: 0x0, symName: __ZN4CGAL19Assertion_exceptionC2ENSt3__112basic_stringIcNS1_11char_traitsIcEENS1_9allocatorIcEEEES7_S7_iS7_, symObjAddr: 0x31D8, symBinAddr: 0x10000B3EC, symSize: 0x19C }
  - { offsetInCU: 0x70432, offset: 0x7D63B, size: 0x8, addend: 0x0, symName: __ZN4CGAL17Failure_exceptionC2ENSt3__112basic_stringIcNS1_11char_traitsIcEENS1_9allocatorIcEEEES7_S7_iS7_S7_, symObjAddr: 0x3374, symBinAddr: 0x10000B588, symSize: 0x69C }
  - { offsetInCU: 0x704B6, offset: 0x7D6BF, size: 0x8, addend: 0x0, symName: __ZN4CGAL19Assertion_exceptionD0Ev, symObjAddr: 0x3A10, symBinAddr: 0x10000BC24, symSize: 0x30 }
  - { offsetInCU: 0x704E0, offset: 0x7D6E9, size: 0x8, addend: 0x0, symName: __ZNKSt3__112basic_stringIcNS_11char_traitsIcEENS_9allocatorIcEEE5emptyB8ue170006Ev, symObjAddr: 0x3B04, symBinAddr: 0x10000BD18, symSize: 0x30 }
  - { offsetInCU: 0x70505, offset: 0x7D70E, size: 0x8, addend: 0x0, symName: __ZN4CGAL17Failure_exceptionD1Ev, symObjAddr: 0x3B34, symBinAddr: 0x10000BD48, symSize: 0x2C }
  - { offsetInCU: 0x7052F, offset: 0x7D738, size: 0x8, addend: 0x0, symName: __ZN4CGAL17Failure_exceptionD0Ev, symObjAddr: 0x3B60, symBinAddr: 0x10000BD74, symSize: 0x30 }
  - { offsetInCU: 0x70559, offset: 0x7D762, size: 0x8, addend: 0x0, symName: __ZNSt3__112basic_stringIcNS_11char_traitsIcEENS_9allocatorIcEEE6appendB8ue170006ERKS5_, symObjAddr: 0x3B90, symBinAddr: 0x10000BDA4, symSize: 0x4C }
  - { offsetInCU: 0x7058D, offset: 0x7D796, size: 0x8, addend: 0x0, symName: __ZNSt3__112basic_stringIcNS_11char_traitsIcEENS_9allocatorIcEEEC1B8ue170006EOS5_, symObjAddr: 0x3BDC, symBinAddr: 0x10000BDF0, symSize: 0x34 }
  - { offsetInCU: 0x705C5, offset: 0x7D7CE, size: 0x8, addend: 0x0, symName: __ZNKSt3__112basic_stringIcNS_11char_traitsIcEENS_9allocatorIcEEE4dataB8ue170006Ev, symObjAddr: 0x3C10, symBinAddr: 0x10000BE24, symSize: 0x28 }
  - { offsetInCU: 0x705EA, offset: 0x7D7F3, size: 0x8, addend: 0x0, symName: __ZNKSt3__112basic_stringIcNS_11char_traitsIcEENS_9allocatorIcEEE4sizeB8ue170006Ev, symObjAddr: 0x3C38, symBinAddr: 0x10000BE4C, symSize: 0x54 }
  - { offsetInCU: 0x7060F, offset: 0x7D818, size: 0x8, addend: 0x0, symName: __ZNKSt3__112basic_stringIcNS_11char_traitsIcEENS_9allocatorIcEEE13__get_pointerB8ue170006Ev, symObjAddr: 0x3CA0, symBinAddr: 0x10000BEB4, symSize: 0x54 }
  - { offsetInCU: 0x70634, offset: 0x7D83D, size: 0x8, addend: 0x0, symName: __ZNKSt3__112basic_stringIcNS_11char_traitsIcEENS_9allocatorIcEEE9__is_longB8ue170006Ev, symObjAddr: 0x3CF4, symBinAddr: 0x10000BF08, symSize: 0x38 }
  - { offsetInCU: 0x70659, offset: 0x7D862, size: 0x8, addend: 0x0, symName: __ZNKSt3__112basic_stringIcNS_11char_traitsIcEENS_9allocatorIcEEE18__get_long_pointerB8ue170006Ev, symObjAddr: 0x3D2C, symBinAddr: 0x10000BF40, symSize: 0x28 }
  - { offsetInCU: 0x7067E, offset: 0x7D887, size: 0x8, addend: 0x0, symName: __ZNKSt3__112basic_stringIcNS_11char_traitsIcEENS_9allocatorIcEEE19__get_short_pointerB8ue170006Ev, symObjAddr: 0x3D54, symBinAddr: 0x10000BF68, symSize: 0x28 }
  - { offsetInCU: 0x706A3, offset: 0x7D8AC, size: 0x8, addend: 0x0, symName: __ZNKSt3__117__compressed_pairINS_12basic_stringIcNS_11char_traitsIcEENS_9allocatorIcEEE5__repES5_E5firstB8ue170006Ev, symObjAddr: 0x3D7C, symBinAddr: 0x10000BF90, symSize: 0x24 }
  - { offsetInCU: 0x706C8, offset: 0x7D8D1, size: 0x8, addend: 0x0, symName: __ZNKSt3__122__compressed_pair_elemINS_12basic_stringIcNS_11char_traitsIcEENS_9allocatorIcEEE5__repELi0ELb0EE5__getB8ue170006Ev, symObjAddr: 0x3DA0, symBinAddr: 0x10000BFB4, symSize: 0x14 }
  - { offsetInCU: 0x706ED, offset: 0x7D8F6, size: 0x8, addend: 0x0, symName: __ZNSt3__114pointer_traitsIPKcE10pointer_toB8ue170006ERS1_, symObjAddr: 0x3DB4, symBinAddr: 0x10000BFC8, symSize: 0x14 }
  - { offsetInCU: 0x70710, offset: 0x7D919, size: 0x8, addend: 0x0, symName: __ZNKSt3__112basic_stringIcNS_11char_traitsIcEENS_9allocatorIcEEE15__get_long_sizeB8ue170006Ev, symObjAddr: 0x3DC8, symBinAddr: 0x10000BFDC, symSize: 0x28 }
  - { offsetInCU: 0x70735, offset: 0x7D93E, size: 0x8, addend: 0x0, symName: __ZNKSt3__112basic_stringIcNS_11char_traitsIcEENS_9allocatorIcEEE16__get_short_sizeB8ue170006Ev, symObjAddr: 0x3DF0, symBinAddr: 0x10000C004, symSize: 0x34 }
  - { offsetInCU: 0x7075A, offset: 0x7D963, size: 0x8, addend: 0x0, symName: __ZNSt3__112basic_stringIcNS_11char_traitsIcEENS_9allocatorIcEEEC2B8ue170006EOS5_, symObjAddr: 0x3E24, symBinAddr: 0x10000C038, symSize: 0x50 }
  - { offsetInCU: 0x70792, offset: 0x7D99B, size: 0x8, addend: 0x0, symName: __ZNSt3__112basic_stringIcNS_11char_traitsIcEENS_9allocatorIcEEE14__default_initB8ue170006Ev, symObjAddr: 0x3E74, symBinAddr: 0x10000C088, symSize: 0x40 }
  - { offsetInCU: 0x707B7, offset: 0x7D9C0, size: 0x8, addend: 0x0, symName: __ZNSt3__117__compressed_pairINS_12basic_stringIcNS_11char_traitsIcEENS_9allocatorIcEEE5__repES5_E5firstB8ue170006Ev, symObjAddr: 0x3EB4, symBinAddr: 0x10000C0C8, symSize: 0x24 }
  - { offsetInCU: 0x707DC, offset: 0x7D9E5, size: 0x8, addend: 0x0, symName: __ZNSt3__122__compressed_pair_elemINS_12basic_stringIcNS_11char_traitsIcEENS_9allocatorIcEEE5__repELi0ELb0EE5__getB8ue170006Ev, symObjAddr: 0x3ED8, symBinAddr: 0x10000C0EC, symSize: 0x14 }
  - { offsetInCU: 0x70801, offset: 0x7DA0A, size: 0x8, addend: 0x0, symName: __ZNSt3__112basic_stringIcNS_11char_traitsIcEENS_9allocatorIcEEE6insertB8ue170006EmRKS5_, symObjAddr: 0x3EEC, symBinAddr: 0x10000C100, symSize: 0x5C }
  - { offsetInCU: 0x70844, offset: 0x7DA4D, size: 0x8, addend: 0x0, symName: __ZN4CGAL17Failure_exceptionD2Ev, symObjAddr: 0x3F48, symBinAddr: 0x10000C15C, symSize: 0x6C }
  - { offsetInCU: 0x7086E, offset: 0x7DA77, size: 0x8, addend: 0x0, symName: __ZN4CGAL19Assertion_exceptionD2Ev, symObjAddr: 0x3FB4, symBinAddr: 0x10000C1C8, symSize: 0x2C }
  - { offsetInCU: 0x70898, offset: 0x7DAA1, size: 0x8, addend: 0x0, symName: __ZN5boost11optional_ns15in_place_init_tC2ENS1_8init_tagE, symObjAddr: 0x3FE0, symBinAddr: 0x10000C1F4, symSize: 0x14 }
  - { offsetInCU: 0x708CB, offset: 0x7DAD4, size: 0x8, addend: 0x0, symName: __ZN5boost11optional_ns18in_place_init_if_tC2ENS1_8init_tagE, symObjAddr: 0x3FF4, symBinAddr: 0x10000C208, symSize: 0x14 }
  - { offsetInCU: 0x708FE, offset: 0x7DB07, size: 0x8, addend: 0x0, symName: __ZN4CGAL6RandomC1Ev, symObjAddr: 0x4008, symBinAddr: 0x10000C21C, symSize: 0x2C }
  - { offsetInCU: 0x7092A, offset: 0x7DB33, size: 0x8, addend: 0x0, symName: __ZN4CGAL6RandomC2Ev, symObjAddr: 0x4034, symBinAddr: 0x10000C248, symSize: 0x7C }
  - { offsetInCU: 0x70974, offset: 0x7DB7D, size: 0x8, addend: 0x0, symName: __ZN5boost6random6rand48C1Ev, symObjAddr: 0x40B0, symBinAddr: 0x10000C2C4, symSize: 0x2C }
  - { offsetInCU: 0x7099D, offset: 0x7DBA6, size: 0x8, addend: 0x0, symName: __ZN5boost6random6rand484seedERKj, symObjAddr: 0x40DC, symBinAddr: 0x10000C2F0, symSize: 0x48 }
  - { offsetInCU: 0x709D1, offset: 0x7DBDA, size: 0x8, addend: 0x0, symName: __ZN4CGAL6Random7get_intEii, symObjAddr: 0x4124, symBinAddr: 0x10000C338, symSize: 0x38 }
  - { offsetInCU: 0x70A12, offset: 0x7DC1B, size: 0x8, addend: 0x0, symName: __ZN5boost6random6rand48C2Ev, symObjAddr: 0x415C, symBinAddr: 0x10000C370, symSize: 0x44 }
  - { offsetInCU: 0x70A3B, offset: 0x7DC44, size: 0x8, addend: 0x0, symName: __ZN5boost6random6rand483cnvEj, symObjAddr: 0x41A0, symBinAddr: 0x10000C3B4, symSize: 0x20 }
  - { offsetInCU: 0x70A5F, offset: 0x7DC68, size: 0x8, addend: 0x0, symName: __ZN5boost6random26linear_congruential_engineIyLy25214903917ELy11ELy281474976710656EEC1ERKy, symObjAddr: 0x41C0, symBinAddr: 0x10000C3D4, symSize: 0x34 }
  - { offsetInCU: 0x70A96, offset: 0x7DC9F, size: 0x8, addend: 0x0, symName: __ZN5boost6random26linear_congruential_engineIyLy25214903917ELy11ELy281474976710656EEC2ERKy, symObjAddr: 0x41F4, symBinAddr: 0x10000C408, symSize: 0x34 }
  - { offsetInCU: 0x70ACD, offset: 0x7DCD6, size: 0x8, addend: 0x0, symName: __ZN5boost6random26linear_congruential_engineIyLy25214903917ELy11ELy281474976710656EE4seedERKy, symObjAddr: 0x4228, symBinAddr: 0x10000C43C, symSize: 0x108 }
  - { offsetInCU: 0x70B0E, offset: 0x7DD17, size: 0x8, addend: 0x0, symName: __ZN5boost6random26linear_congruential_engineIyLy25214903917ELy11ELy281474976710656EE3minEv, symObjAddr: 0x4330, symBinAddr: 0x10000C544, symSize: 0x8 }
  - { offsetInCU: 0x70B22, offset: 0x7DD2B, size: 0x8, addend: 0x0, symName: __ZN5boost6random26linear_congruential_engineIyLy25214903917ELy11ELy281474976710656EE3maxEv, symObjAddr: 0x4338, symBinAddr: 0x10000C54C, symSize: 0x8 }
  - { offsetInCU: 0x70B36, offset: 0x7DD3F, size: 0x8, addend: 0x0, symName: __ZN4CGAL6Random11uniform_intIiEET_S2_S2_, symObjAddr: 0x4340, symBinAddr: 0x10000C554, symSize: 0x64 }
  - { offsetInCU: 0x70BDD, offset: 0x7DDE6, size: 0x8, addend: 0x0, symName: __ZN5boost11uniform_intIiEC1Eii, symObjAddr: 0x43A4, symBinAddr: 0x10000C5B8, symSize: 0x3C }
  - { offsetInCU: 0x70C62, offset: 0x7DE6B, size: 0x8, addend: 0x0, symName: __ZN5boost6random17variate_generatorIRNS0_6rand48ENS_11uniform_intIiEEEC1ES3_S5_, symObjAddr: 0x43E0, symBinAddr: 0x10000C5F4, symSize: 0x3C }
  - { offsetInCU: 0x70CAB, offset: 0x7DEB4, size: 0x8, addend: 0x0, symName: __ZN5boost6random17variate_generatorIRNS0_6rand48ENS_11uniform_intIiEEEclEv, symObjAddr: 0x441C, symBinAddr: 0x10000C630, symSize: 0x38 }
  - { offsetInCU: 0x70CD0, offset: 0x7DED9, size: 0x8, addend: 0x0, symName: __ZN5boost11uniform_intIiEC2Eii, symObjAddr: 0x4454, symBinAddr: 0x10000C668, symSize: 0x3C }
  - { offsetInCU: 0x70D19, offset: 0x7DF22, size: 0x8, addend: 0x0, symName: __ZN5boost6random24uniform_int_distributionIiEC2Eii, symObjAddr: 0x4490, symBinAddr: 0x10000C6A4, symSize: 0x80 }
  - { offsetInCU: 0x70D60, offset: 0x7DF69, size: 0x8, addend: 0x0, symName: __ZN5boost6random17variate_generatorIRNS0_6rand48ENS_11uniform_intIiEEEC2ES3_S5_, symObjAddr: 0x4510, symBinAddr: 0x10000C724, symSize: 0x2C }
  - { offsetInCU: 0x70DA9, offset: 0x7DFB2, size: 0x8, addend: 0x0, symName: __ZNK5boost11uniform_intIiEclINS_6random6rand48EEEiRT_, symObjAddr: 0x453C, symBinAddr: 0x10000C750, symSize: 0x2C }
  - { offsetInCU: 0x70DE7, offset: 0x7DFF0, size: 0x8, addend: 0x0, symName: __ZN5boost6random17variate_generatorIRNS0_6rand48ENS_11uniform_intIiEEE6engineEv, symObjAddr: 0x4568, symBinAddr: 0x10000C77C, symSize: 0x28 }
  - { offsetInCU: 0x70E0C, offset: 0x7E015, size: 0x8, addend: 0x0, symName: __ZNK5boost6random24uniform_int_distributionIiEclINS0_6rand48EEEiRT_, symObjAddr: 0x4590, symBinAddr: 0x10000C7A4, symSize: 0x34 }
  - { offsetInCU: 0x70E49, offset: 0x7E052, size: 0x8, addend: 0x0, symName: __ZN5boost6random6detail8subtractIiLb1EEclEii, symObjAddr: 0x49BC, symBinAddr: 0x10000CBD0, symSize: 0x90 }
  - { offsetInCU: 0x70E8A, offset: 0x7E093, size: 0x8, addend: 0x0, symName: __ZN5boost6random6rand483minEv, symObjAddr: 0x4A4C, symBinAddr: 0x10000CC60, symSize: 0x8 }
  - { offsetInCU: 0x70EA3, offset: 0x7E0AC, size: 0x8, addend: 0x0, symName: __ZN5boost6random6detail8subtractIjLb0EEclEjj, symObjAddr: 0x4A54, symBinAddr: 0x10000CC68, symSize: 0x24 }
  - { offsetInCU: 0x70EE4, offset: 0x7E0ED, size: 0x8, addend: 0x0, symName: __ZN5boost6random6rand483maxEv, symObjAddr: 0x4A78, symBinAddr: 0x10000CC8C, symSize: 0x8 }
  - { offsetInCU: 0x70EF8, offset: 0x7E101, size: 0x8, addend: 0x0, symName: __ZN5boost6random6rand48clEv, symObjAddr: 0x4A80, symBinAddr: 0x10000CC94, symSize: 0x2C }
  - { offsetInCU: 0x70F22, offset: 0x7E12B, size: 0x8, addend: 0x0, symName: __ZN5boost6random6detail3addIjiLb1EEclEji, symObjAddr: 0x4AAC, symBinAddr: 0x10000CCC0, symSize: 0xA0 }
  - { offsetInCU: 0x70F63, offset: 0x7E16C, size: 0x8, addend: 0x0, symName: __ZNSt3__114numeric_limitsIjE3maxB8ue170006Ev, symObjAddr: 0x4B4C, symBinAddr: 0x10000CD60, symSize: 0x14 }
  - { offsetInCU: 0x70F77, offset: 0x7E180, size: 0x8, addend: 0x0, symName: __ZN5boost6random26linear_congruential_engineIyLy25214903917ELy11ELy281474976710656EEclEv, symObjAddr: 0x4F24, symBinAddr: 0x10000D138, symSize: 0x48 }
  - { offsetInCU: 0x70F9C, offset: 0x7E1A5, size: 0x8, addend: 0x0, symName: __ZN5boost6random9const_modIyLy281474976710656EE8mult_addEyyy, symObjAddr: 0x4F6C, symBinAddr: 0x10000D180, symSize: 0x150 }
  - { offsetInCU: 0x70FF7, offset: 0x7E200, size: 0x8, addend: 0x0, symName: __ZN5boost6random9const_modIyLy281474976710656EE10unsigned_mEv, symObjAddr: 0x50BC, symBinAddr: 0x10000D2D0, symSize: 0x8 }
  - { offsetInCU: 0x7100B, offset: 0x7E214, size: 0x8, addend: 0x0, symName: __ZN5boost6random9const_modIyLy281474976710656EE3addEyy, symObjAddr: 0x50C4, symBinAddr: 0x10000D2D8, symSize: 0xE0 }
  - { offsetInCU: 0x7103C, offset: 0x7E245, size: 0x8, addend: 0x0, symName: __ZN5boost6random9const_modIyLy281474976710656EE4multEyy, symObjAddr: 0x51A4, symBinAddr: 0x10000D3B8, symSize: 0xF4 }
  - { offsetInCU: 0x7106D, offset: 0x7E276, size: 0x8, addend: 0x0, symName: __ZN5boost6random9const_modIyLy281474976710656EE10mult_smallEyy, symObjAddr: 0x5298, symBinAddr: 0x10000D4AC, symSize: 0x80 }
  - { offsetInCU: 0x710AC, offset: 0x7E2B5, size: 0x8, addend: 0x0, symName: __ZN5boost6random9const_modIyLy281474976710656EE12mult_generalEyy, symObjAddr: 0x5318, symBinAddr: 0x10000D52C, symSize: 0x10C }
  - { offsetInCU: 0x710F9, offset: 0x7E302, size: 0x8, addend: 0x0, symName: __ZN5boost6random6detail17integer_log2_implILi32EE5applyImEEiT_i, symObjAddr: 0x58E4, symBinAddr: 0x10000DADC, symSize: 0x44 }
  - { offsetInCU: 0x71137, offset: 0x7E340, size: 0x8, addend: 0x0, symName: __ZN5boost6random6detail17integer_log2_implILi32EE6apply2ImEEiT_ii, symObjAddr: 0x5928, symBinAddr: 0x10000DB20, symSize: 0x40 }
  - { offsetInCU: 0x71185, offset: 0x7E38E, size: 0x8, addend: 0x0, symName: __ZN5boost6random6detail17integer_log2_implILi16EE5applyImEEiT_i, symObjAddr: 0x5968, symBinAddr: 0x10000DB60, symSize: 0x44 }
  - { offsetInCU: 0x711C3, offset: 0x7E3CC, size: 0x8, addend: 0x0, symName: __ZN5boost6random6detail17integer_log2_implILi16EE6apply2ImEEiT_ii, symObjAddr: 0x59AC, symBinAddr: 0x10000DBA4, symSize: 0x40 }
  - { offsetInCU: 0x71211, offset: 0x7E41A, size: 0x8, addend: 0x0, symName: __ZN5boost6random6detail17integer_log2_implILi8EE5applyImEEiT_i, symObjAddr: 0x59EC, symBinAddr: 0x10000DBE4, symSize: 0x44 }
  - { offsetInCU: 0x7124F, offset: 0x7E458, size: 0x8, addend: 0x0, symName: __ZN5boost6random6detail17integer_log2_implILi8EE6apply2ImEEiT_ii, symObjAddr: 0x5A30, symBinAddr: 0x10000DC28, symSize: 0x40 }
  - { offsetInCU: 0x7129D, offset: 0x7E4A6, size: 0x8, addend: 0x0, symName: __ZN5boost6random6detail17integer_log2_implILi4EE5applyImEEiT_i, symObjAddr: 0x5A70, symBinAddr: 0x10000DC68, symSize: 0x44 }
  - { offsetInCU: 0x712DB, offset: 0x7E4E4, size: 0x8, addend: 0x0, symName: __ZN5boost6random6detail17integer_log2_implILi4EE6apply2ImEEiT_ii, symObjAddr: 0x5AB4, symBinAddr: 0x10000DCAC, symSize: 0x40 }
  - { offsetInCU: 0x71329, offset: 0x7E532, size: 0x8, addend: 0x0, symName: __ZN5boost6random6detail17integer_log2_implILi2EE5applyImEEiT_i, symObjAddr: 0x5AF4, symBinAddr: 0x10000DCEC, symSize: 0x44 }
  - { offsetInCU: 0x71367, offset: 0x7E570, size: 0x8, addend: 0x0, symName: __ZN5boost6random6detail17integer_log2_implILi2EE6apply2ImEEiT_ii, symObjAddr: 0x5B38, symBinAddr: 0x10000DD30, symSize: 0x40 }
  - { offsetInCU: 0x713B5, offset: 0x7E5BE, size: 0x8, addend: 0x0, symName: __ZN5boost6random6detail17integer_log2_implILi1EE5applyImEEiT_i, symObjAddr: 0x5B78, symBinAddr: 0x10000DD70, symSize: 0x24 }
  - { offsetInCU: 0x713F3, offset: 0x7E5FC, size: 0x8, addend: 0x0, symName: __ZNSt3__123__libcpp_numeric_limitsIjLb1EE3maxB8ue170006Ev, symObjAddr: 0x5B9C, symBinAddr: 0x10000DD94, symSize: 0x8 }
  - { offsetInCU: 0x7140C, offset: 0x7E615, size: 0x8, addend: 0x0, symName: __ZN5boost6random6detail3addIjjLb0EEclEjj, symObjAddr: 0x5BA4, symBinAddr: 0x10000DD9C, symSize: 0x24 }
  - { offsetInCU: 0x7144D, offset: 0x7E656, size: 0x8, addend: 0x0, symName: __ZN5boost6random6detail10ptr_helperIRNS0_6rand48EE3refES4_, symObjAddr: 0x5BC8, symBinAddr: 0x10000DDC0, symSize: 0x14 }
  - { offsetInCU: 0x71472, offset: 0x7E67B, size: 0x8, addend: 0x0, symName: __ZN11PerlinNoiseD2Ev, symObjAddr: 0x5BDC, symBinAddr: 0x10000DDD4, symSize: 0x2C }
  - { offsetInCU: 0x714A6, offset: 0x7E6AF, size: 0x8, addend: 0x0, symName: __ZN4CGAL25Named_function_parametersIbNS_11internal_np13all_default_tENS1_11No_propertyEEC1Ev, symObjAddr: 0x6228, symBinAddr: 0x10000DE00, symSize: 0x2C }
  - { offsetInCU: 0x714CF, offset: 0x7E6D8, size: 0x8, addend: 0x0, symName: __ZN4CGAL25Named_function_parametersIbNS_11internal_np13all_default_tENS1_11No_propertyEEC2Ev, symObjAddr: 0x6254, symBinAddr: 0x10000DE2C, symSize: 0x34 }
  - { offsetInCU: 0x714F8, offset: 0x7E701, size: 0x8, addend: 0x0, symName: __ZN4CGAL11internal_np17Named_params_implIbNS0_13all_default_tENS0_11No_propertyEEC2ERKb, symObjAddr: 0x6288, symBinAddr: 0x10000DE60, symSize: 0x28 }
  - { offsetInCU: 0x7152F, offset: 0x7E738, size: 0x8, addend: 0x0, symName: __ZNSt3__114basic_ifstreamIcNS_11char_traitsIcEEED2Ev, symObjAddr: 0x62B0, symBinAddr: 0x10000DE88, symSize: 0x64 }
  - { offsetInCU: 0x71568, offset: 0x7E771, size: 0x8, addend: 0x0, symName: __ZTv0_n24_NSt3__114basic_ifstreamIcNS_11char_traitsIcEEED1Ev, symObjAddr: 0x6314, symBinAddr: 0x10000DEEC, symSize: 0x28 }
  - { offsetInCU: 0x71580, offset: 0x7E789, size: 0x8, addend: 0x0, symName: __ZNSt3__114basic_ofstreamIcNS_11char_traitsIcEEED2Ev, symObjAddr: 0x633C, symBinAddr: 0x10000DF14, symSize: 0x64 }
  - { offsetInCU: 0x715B9, offset: 0x7E7C2, size: 0x8, addend: 0x0, symName: __ZTv0_n24_NSt3__114basic_ofstreamIcNS_11char_traitsIcEEED1Ev, symObjAddr: 0x63A0, symBinAddr: 0x10000DF78, symSize: 0x28 }
  - { offsetInCU: 0x715D1, offset: 0x7E7DA, size: 0x8, addend: 0x0, symName: __ZNKSt3__111__wrap_iterIPK5CoralE4baseB8ue170006Ev, symObjAddr: 0x6410, symBinAddr: 0x10000DFE8, symSize: 0x18 }
  - { offsetInCU: 0x71600, offset: 0x7E809, size: 0x8, addend: 0x0, symName: __ZN4CGAL20Aff_transformationC3INS_16Simple_cartesianIdEEEaSEOS3_, symObjAddr: 0x6428, symBinAddr: 0x10000E000, symSize: 0x34 }
  - { offsetInCU: 0x71630, offset: 0x7E839, size: 0x8, addend: 0x0, symName: __ZN4CGAL18Handle_for_virtualINS_29Aff_transformation_rep_baseC3INS_16Simple_cartesianIdEEEEEaSEOS5_, symObjAddr: 0x645C, symBinAddr: 0x10000E034, symSize: 0x34 }
  - { offsetInCU: 0x71663, offset: 0x7E86C, size: 0x8, addend: 0x0, symName: __ZN4CGAL18Handle_for_virtualINS_29Aff_transformation_rep_baseC3INS_16Simple_cartesianIdEEEEE4swapERS5_, symObjAddr: 0x6490, symBinAddr: 0x10000E068, symSize: 0x2C }
  - { offsetInCU: 0x71696, offset: 0x7E89F, size: 0x8, addend: 0x0, symName: __ZN4CGAL20Aff_transformation_3INS_16Simple_cartesianIdEEED2Ev, symObjAddr: 0x64F8, symBinAddr: 0x10000E0D0, symSize: 0x2C }
  - { offsetInCU: 0x716C0, offset: 0x7E8C9, size: 0x8, addend: 0x0, symName: __ZN4CGAL20Aff_transformationC3INS_16Simple_cartesianIdEEED2Ev, symObjAddr: 0x6524, symBinAddr: 0x10000E0FC, symSize: 0x2C }
  - { offsetInCU: 0x716EA, offset: 0x7E8F3, size: 0x8, addend: 0x0, symName: __ZN4CGAL18Handle_for_virtualINS_29Aff_transformation_rep_baseC3INS_16Simple_cartesianIdEEEEED2Ev, symObjAddr: 0x6550, symBinAddr: 0x10000E128, symSize: 0xB0 }
  - { offsetInCU: 0x71713, offset: 0x7E91C, size: 0x8, addend: 0x0, symName: __ZN4CGAL19Ref_counted_virtual16remove_referenceEv, symObjAddr: 0x6600, symBinAddr: 0x10000E1D8, symSize: 0x20 }
  - { offsetInCU: 0x71738, offset: 0x7E941, size: 0x8, addend: 0x0, symName: __ZNK4CGAL19Ref_counted_virtual13is_referencedEv, symObjAddr: 0x6620, symBinAddr: 0x10000E1F8, symSize: 0x24 }
  - { offsetInCU: 0x7175D, offset: 0x7E966, size: 0x8, addend: 0x0, symName: __ZNK4CGAL23CartesianKernelFunctors11Compute_x_3INS_16Simple_cartesianIdEEEclERKNS_7Point_3IS3_EE, symObjAddr: 0x6644, symBinAddr: 0x10000E21C, symSize: 0x2C }
  - { offsetInCU: 0x71791, offset: 0x7E99A, size: 0x8, addend: 0x0, symName: __ZNK4CGAL7Point_3INS_16Simple_cartesianIdEEE3repEv, symObjAddr: 0x6670, symBinAddr: 0x10000E248, symSize: 0x14 }
  - { offsetInCU: 0x717B6, offset: 0x7E9BF, size: 0x8, addend: 0x0, symName: __ZNK4CGAL7PointC3INS_16Simple_cartesianIdEEE1xEv, symObjAddr: 0x6684, symBinAddr: 0x10000E25C, symSize: 0x24 }
  - { offsetInCU: 0x717DB, offset: 0x7E9E4, size: 0x8, addend: 0x0, symName: __ZNK4CGAL8Vector_3INS_16Simple_cartesianIdEEE1xEv, symObjAddr: 0x66A8, symBinAddr: 0x10000E280, symSize: 0x38 }
  - { offsetInCU: 0x71800, offset: 0x7EA09, size: 0x8, addend: 0x0, symName: __ZNK4CGAL27Cartesian_base_no_ref_countIdNS_16Simple_cartesianIdEEE18compute_x_3_objectEv, symObjAddr: 0x66E0, symBinAddr: 0x10000E2B8, symSize: 0x10 }
  - { offsetInCU: 0x71825, offset: 0x7EA2E, size: 0x8, addend: 0x0, symName: __ZNK4CGAL23CartesianKernelFunctors11Compute_x_3INS_16Simple_cartesianIdEEEclERKNS_8Vector_3IS3_EE, symObjAddr: 0x66F0, symBinAddr: 0x10000E2C8, symSize: 0x2C }
  - { offsetInCU: 0x71859, offset: 0x7EA62, size: 0x8, addend: 0x0, symName: __ZNK4CGAL8Vector_3INS_16Simple_cartesianIdEEE3repEv, symObjAddr: 0x671C, symBinAddr: 0x10000E2F4, symSize: 0x14 }
  - { offsetInCU: 0x7187E, offset: 0x7EA87, size: 0x8, addend: 0x0, symName: __ZNK4CGAL8VectorC3INS_16Simple_cartesianIdEEE1xEv, symObjAddr: 0x6730, symBinAddr: 0x10000E308, symSize: 0x2C }
  - { offsetInCU: 0x718A3, offset: 0x7EAAC, size: 0x8, addend: 0x0, symName: __ZNKSt3__15arrayIdLm3EEixB8ue170006Em, symObjAddr: 0x6770, symBinAddr: 0x10000E348, symSize: 0x20 }
  - { offsetInCU: 0x718D6, offset: 0x7EADF, size: 0x8, addend: 0x0, symName: __ZNK4CGAL23CartesianKernelFunctors11Compute_y_3INS_16Simple_cartesianIdEEEclERKNS_7Point_3IS3_EE, symObjAddr: 0x6790, symBinAddr: 0x10000E368, symSize: 0x2C }
  - { offsetInCU: 0x7190A, offset: 0x7EB13, size: 0x8, addend: 0x0, symName: __ZNK4CGAL7PointC3INS_16Simple_cartesianIdEEE1yEv, symObjAddr: 0x67BC, symBinAddr: 0x10000E394, symSize: 0x24 }
  - { offsetInCU: 0x7192F, offset: 0x7EB38, size: 0x8, addend: 0x0, symName: __ZNK4CGAL8Vector_3INS_16Simple_cartesianIdEEE1yEv, symObjAddr: 0x67E0, symBinAddr: 0x10000E3B8, symSize: 0x38 }
  - { offsetInCU: 0x71954, offset: 0x7EB5D, size: 0x8, addend: 0x0, symName: __ZNK4CGAL27Cartesian_base_no_ref_countIdNS_16Simple_cartesianIdEEE18compute_y_3_objectEv, symObjAddr: 0x6818, symBinAddr: 0x10000E3F0, symSize: 0x10 }
  - { offsetInCU: 0x71979, offset: 0x7EB82, size: 0x8, addend: 0x0, symName: __ZNK4CGAL23CartesianKernelFunctors11Compute_y_3INS_16Simple_cartesianIdEEEclERKNS_8Vector_3IS3_EE, symObjAddr: 0x6828, symBinAddr: 0x10000E400, symSize: 0x2C }
  - { offsetInCU: 0x719AD, offset: 0x7EBB6, size: 0x8, addend: 0x0, symName: __ZNK4CGAL8VectorC3INS_16Simple_cartesianIdEEE1yEv, symObjAddr: 0x6854, symBinAddr: 0x10000E42C, symSize: 0x2C }
  - { offsetInCU: 0x719D2, offset: 0x7EBDB, size: 0x8, addend: 0x0, symName: __ZNK4CGAL23CartesianKernelFunctors11Compute_z_3INS_16Simple_cartesianIdEEEclERKNS_7Point_3IS3_EE, symObjAddr: 0x6880, symBinAddr: 0x10000E458, symSize: 0x2C }
  - { offsetInCU: 0x71A06, offset: 0x7EC0F, size: 0x8, addend: 0x0, symName: __ZNK4CGAL7PointC3INS_16Simple_cartesianIdEEE1zEv, symObjAddr: 0x68AC, symBinAddr: 0x10000E484, symSize: 0x24 }
  - { offsetInCU: 0x71A2B, offset: 0x7EC34, size: 0x8, addend: 0x0, symName: __ZNK4CGAL8Vector_3INS_16Simple_cartesianIdEEE1zEv, symObjAddr: 0x68D0, symBinAddr: 0x10000E4A8, symSize: 0x38 }
  - { offsetInCU: 0x71A50, offset: 0x7EC59, size: 0x8, addend: 0x0, symName: __ZNK4CGAL27Cartesian_base_no_ref_countIdNS_16Simple_cartesianIdEEE18compute_z_3_objectEv, symObjAddr: 0x6908, symBinAddr: 0x10000E4E0, symSize: 0x10 }
  - { offsetInCU: 0x71A75, offset: 0x7EC7E, size: 0x8, addend: 0x0, symName: __ZNK4CGAL23CartesianKernelFunctors11Compute_z_3INS_16Simple_cartesianIdEEEclERKNS_8Vector_3IS3_EE, symObjAddr: 0x6918, symBinAddr: 0x10000E4F0, symSize: 0x2C }
  - { offsetInCU: 0x71AA9, offset: 0x7ECB2, size: 0x8, addend: 0x0, symName: __ZNK4CGAL8VectorC3INS_16Simple_cartesianIdEEE1zEv, symObjAddr: 0x6944, symBinAddr: 0x10000E51C, symSize: 0x2C }
  - { offsetInCU: 0x71ACE, offset: 0x7ECD7, size: 0x8, addend: 0x0, symName: __ZN4CGAL12Surface_meshINS_7Point_3INS_16Simple_cartesianIdEEEEED2Ev, symObjAddr: 0x6970, symBinAddr: 0x10000E548, symSize: 0x50 }
  - { offsetInCU: 0x71AFA, offset: 0x7ED03, size: 0x8, addend: 0x0, symName: __ZN4CGAL10Properties18Property_containerINS_12Surface_meshINS_7Point_3INS_16Simple_cartesianIdEEEEEENS_13SM_Face_indexEED1Ev, symObjAddr: 0x69C0, symBinAddr: 0x10000E598, symSize: 0x2C }
  - { offsetInCU: 0x71B23, offset: 0x7ED2C, size: 0x8, addend: 0x0, symName: __ZN4CGAL10Properties18Property_containerINS_12Surface_meshINS_7Point_3INS_16Simple_cartesianIdEEEEEENS_13SM_Edge_indexEED1Ev, symObjAddr: 0x69EC, symBinAddr: 0x10000E5C4, symSize: 0x2C }
  - { offsetInCU: 0x71B4C, offset: 0x7ED55, size: 0x8, addend: 0x0, symName: __ZN4CGAL10Properties18Property_containerINS_12Surface_meshINS_7Point_3INS_16Simple_cartesianIdEEEEEENS_17SM_Halfedge_indexEED1Ev, symObjAddr: 0x6A18, symBinAddr: 0x10000E5F0, symSize: 0x2C }
  - { offsetInCU: 0x71B75, offset: 0x7ED7E, size: 0x8, addend: 0x0, symName: __ZN4CGAL10Properties18Property_containerINS_12Surface_meshINS_7Point_3INS_16Simple_cartesianIdEEEEEENS_15SM_Vertex_indexEED1Ev, symObjAddr: 0x6A44, symBinAddr: 0x10000E61C, symSize: 0x2C }
  - { offsetInCU: 0x71B9E, offset: 0x7EDA7, size: 0x8, addend: 0x0, symName: __ZN4CGAL10Properties18Property_containerINS_12Surface_meshINS_7Point_3INS_16Simple_cartesianIdEEEEEENS_13SM_Face_indexEED2Ev, symObjAddr: 0x6A70, symBinAddr: 0x10000E648, symSize: 0x50 }
  - { offsetInCU: 0x71BC7, offset: 0x7EDD0, size: 0x8, addend: 0x0, symName: __ZN4CGAL10Properties18Property_containerINS_12Surface_meshINS_7Point_3INS_16Simple_cartesianIdEEEEEENS_13SM_Face_indexEE5clearEv, symObjAddr: 0x6AC0, symBinAddr: 0x10000E698, symSize: 0xB8 }
  - { offsetInCU: 0x71C09, offset: 0x7EE12, size: 0x8, addend: 0x0, symName: __ZNSt3__16vectorIPN4CGAL10Properties19Base_property_arrayENS_9allocatorIS4_EEED1B8ue170006Ev, symObjAddr: 0x6B78, symBinAddr: 0x10000E750, symSize: 0x2C }
  - { offsetInCU: 0x71C32, offset: 0x7EE3B, size: 0x8, addend: 0x0, symName: __ZN4CGAL10Properties18Property_containerINS_12Surface_meshINS_7Point_3INS_16Simple_cartesianIdEEEEEENS_13SM_Face_indexEED0Ev, symObjAddr: 0x6BA4, symBinAddr: 0x10000E77C, symSize: 0x30 }
  - { offsetInCU: 0x71C5B, offset: 0x7EE64, size: 0x8, addend: 0x0, symName: __ZNKSt3__16vectorIPN4CGAL10Properties19Base_property_arrayENS_9allocatorIS4_EEE4sizeB8ue170006Ev, symObjAddr: 0x6BD4, symBinAddr: 0x10000E7AC, symSize: 0x28 }
  - { offsetInCU: 0x71C80, offset: 0x7EE89, size: 0x8, addend: 0x0, symName: __ZNSt3__16vectorIPN4CGAL10Properties19Base_property_arrayENS_9allocatorIS4_EEEixB8ue170006Em, symObjAddr: 0x6BFC, symBinAddr: 0x10000E7D4, symSize: 0x24 }
  - { offsetInCU: 0x71CB6, offset: 0x7EEBF, size: 0x8, addend: 0x0, symName: __ZNSt3__16vectorIPN4CGAL10Properties19Base_property_arrayENS_9allocatorIS4_EEE5clearB8ue170006Ev, symObjAddr: 0x6C20, symBinAddr: 0x10000E7F8, symSize: 0x44 }
  - { offsetInCU: 0x71CEA, offset: 0x7EEF3, size: 0x8, addend: 0x0, symName: __ZNSt3__16vectorIPN4CGAL10Properties19Base_property_arrayENS_9allocatorIS4_EEE7__clearB8ue170006Ev, symObjAddr: 0x6C64, symBinAddr: 0x10000E83C, symSize: 0x28 }
  - { offsetInCU: 0x71D0F, offset: 0x7EF18, size: 0x8, addend: 0x0, symName: __ZNKSt3__16vectorIPN4CGAL10Properties19Base_property_arrayENS_9allocatorIS4_EEE17__annotate_shrinkB8ue170006Em, symObjAddr: 0x6C8C, symBinAddr: 0x10000E864, symSize: 0xB4 }
  - { offsetInCU: 0x71D43, offset: 0x7EF4C, size: 0x8, addend: 0x0, symName: __ZNSt3__16vectorIPN4CGAL10Properties19Base_property_arrayENS_9allocatorIS4_EEE22__base_destruct_at_endB8ue170006EPS4_, symObjAddr: 0x6D40, symBinAddr: 0x10000E918, symSize: 0x8C }
  - { offsetInCU: 0x71D86, offset: 0x7EF8F, size: 0x8, addend: 0x0, symName: __ZNSt3__116allocator_traitsINS_9allocatorIPN4CGAL10Properties19Base_property_arrayEEEE7destroyB8ue170006IS5_vEEvRS6_PT_, symObjAddr: 0x6DCC, symBinAddr: 0x10000E9A4, symSize: 0x2C }
  - { offsetInCU: 0x71DC3, offset: 0x7EFCC, size: 0x8, addend: 0x0, symName: __ZNSt3__16vectorIPN4CGAL10Properties19Base_property_arrayENS_9allocatorIS4_EEE7__allocB8ue170006Ev, symObjAddr: 0x6DF8, symBinAddr: 0x10000E9D0, symSize: 0x28 }
  - { offsetInCU: 0x71DE8, offset: 0x7EFF1, size: 0x8, addend: 0x0, symName: __ZNSt3__19allocatorIPN4CGAL10Properties19Base_property_arrayEE7destroyB8ue170006EPS4_, symObjAddr: 0x6E34, symBinAddr: 0x10000EA0C, symSize: 0x14 }
  - { offsetInCU: 0x71E1B, offset: 0x7F024, size: 0x8, addend: 0x0, symName: __ZNSt3__117__compressed_pairIPPN4CGAL10Properties19Base_property_arrayENS_9allocatorIS4_EEE6secondB8ue170006Ev, symObjAddr: 0x6E48, symBinAddr: 0x10000EA20, symSize: 0x24 }
  - { offsetInCU: 0x71E40, offset: 0x7F049, size: 0x8, addend: 0x0, symName: __ZNSt3__122__compressed_pair_elemINS_9allocatorIPN4CGAL10Properties19Base_property_arrayEEELi1ELb1EE5__getB8ue170006Ev, symObjAddr: 0x6E6C, symBinAddr: 0x10000EA44, symSize: 0x14 }
  - { offsetInCU: 0x71E65, offset: 0x7F06E, size: 0x8, addend: 0x0, symName: __ZNKSt3__16vectorIPN4CGAL10Properties19Base_property_arrayENS_9allocatorIS4_EEE31__annotate_contiguous_containerB8ue170006EPKvS9_S9_S9_, symObjAddr: 0x6E80, symBinAddr: 0x10000EA58, symSize: 0x20 }
  - { offsetInCU: 0x71EB6, offset: 0x7F0BF, size: 0x8, addend: 0x0, symName: __ZNKSt3__16vectorIPN4CGAL10Properties19Base_property_arrayENS_9allocatorIS4_EEE4dataB8ue170006Ev, symObjAddr: 0x6EA0, symBinAddr: 0x10000EA78, symSize: 0x28 }
  - { offsetInCU: 0x71EDB, offset: 0x7F0E4, size: 0x8, addend: 0x0, symName: __ZNKSt3__16vectorIPN4CGAL10Properties19Base_property_arrayENS_9allocatorIS4_EEE8capacityB8ue170006Ev, symObjAddr: 0x6EC8, symBinAddr: 0x10000EAA0, symSize: 0x40 }
  - { offsetInCU: 0x71F00, offset: 0x7F109, size: 0x8, addend: 0x0, symName: __ZNKSt3__16vectorIPN4CGAL10Properties19Base_property_arrayENS_9allocatorIS4_EEE9__end_capB8ue170006Ev, symObjAddr: 0x6F08, symBinAddr: 0x10000EAE0, symSize: 0x28 }
  - { offsetInCU: 0x71F25, offset: 0x7F12E, size: 0x8, addend: 0x0, symName: __ZNKSt3__117__compressed_pairIPPN4CGAL10Properties19Base_property_arrayENS_9allocatorIS4_EEE5firstB8ue170006Ev, symObjAddr: 0x6F30, symBinAddr: 0x10000EB08, symSize: 0x24 }
  - { offsetInCU: 0x71F4A, offset: 0x7F153, size: 0x8, addend: 0x0, symName: __ZNKSt3__122__compressed_pair_elemIPPN4CGAL10Properties19Base_property_arrayELi0ELb0EE5__getB8ue170006Ev, symObjAddr: 0x6F54, symBinAddr: 0x10000EB2C, symSize: 0x14 }
  - { offsetInCU: 0x71F6F, offset: 0x7F178, size: 0x8, addend: 0x0, symName: __ZNSt3__16vectorIPN4CGAL10Properties19Base_property_arrayENS_9allocatorIS4_EEED2B8ue170006Ev, symObjAddr: 0x6F68, symBinAddr: 0x10000EB40, symSize: 0x44 }
  - { offsetInCU: 0x71F98, offset: 0x7F1A1, size: 0x8, addend: 0x0, symName: __ZNSt3__16vectorIPN4CGAL10Properties19Base_property_arrayENS_9allocatorIS4_EEE16__destroy_vectorC1B8ue170006ERS7_, symObjAddr: 0x6FAC, symBinAddr: 0x10000EB84, symSize: 0x34 }
  - { offsetInCU: 0x71FD0, offset: 0x7F1D9, size: 0x8, addend: 0x0, symName: __ZNSt3__16vectorIPN4CGAL10Properties19Base_property_arrayENS_9allocatorIS4_EEE16__destroy_vectorclB8ue170006Ev, symObjAddr: 0x6FE0, symBinAddr: 0x10000EBB8, symSize: 0x90 }
  - { offsetInCU: 0x71FF5, offset: 0x7F1FE, size: 0x8, addend: 0x0, symName: __ZNSt3__16vectorIPN4CGAL10Properties19Base_property_arrayENS_9allocatorIS4_EEE16__destroy_vectorC2B8ue170006ERS7_, symObjAddr: 0x7070, symBinAddr: 0x10000EC48, symSize: 0x20 }
  - { offsetInCU: 0x7202D, offset: 0x7F236, size: 0x8, addend: 0x0, symName: __ZNKSt3__16vectorIPN4CGAL10Properties19Base_property_arrayENS_9allocatorIS4_EEE17__annotate_deleteB8ue170006Ev, symObjAddr: 0x7090, symBinAddr: 0x10000EC68, symSize: 0xB8 }
  - { offsetInCU: 0x72052, offset: 0x7F25B, size: 0x8, addend: 0x0, symName: __ZNSt3__116allocator_traitsINS_9allocatorIPN4CGAL10Properties19Base_property_arrayEEEE10deallocateB8ue170006ERS6_PS5_m, symObjAddr: 0x7148, symBinAddr: 0x10000ED20, symSize: 0x34 }
  - { offsetInCU: 0x72094, offset: 0x7F29D, size: 0x8, addend: 0x0, symName: __ZNSt3__19allocatorIPN4CGAL10Properties19Base_property_arrayEE10deallocateB8ue170006EPS4_m, symObjAddr: 0x717C, symBinAddr: 0x10000ED54, symSize: 0x40 }
  - { offsetInCU: 0x720D5, offset: 0x7F2DE, size: 0x8, addend: 0x0, symName: __ZN4CGAL10Properties18Property_containerINS_12Surface_meshINS_7Point_3INS_16Simple_cartesianIdEEEEEENS_13SM_Edge_indexEED2Ev, symObjAddr: 0x71BC, symBinAddr: 0x10000ED94, symSize: 0x50 }
  - { offsetInCU: 0x720FE, offset: 0x7F307, size: 0x8, addend: 0x0, symName: __ZN4CGAL10Properties18Property_containerINS_12Surface_meshINS_7Point_3INS_16Simple_cartesianIdEEEEEENS_13SM_Edge_indexEE5clearEv, symObjAddr: 0x720C, symBinAddr: 0x10000EDE4, symSize: 0xB8 }
  - { offsetInCU: 0x72140, offset: 0x7F349, size: 0x8, addend: 0x0, symName: __ZN4CGAL10Properties18Property_containerINS_12Surface_meshINS_7Point_3INS_16Simple_cartesianIdEEEEEENS_13SM_Edge_indexEED0Ev, symObjAddr: 0x72C4, symBinAddr: 0x10000EE9C, symSize: 0x30 }
  - { offsetInCU: 0x72169, offset: 0x7F372, size: 0x8, addend: 0x0, symName: __ZN4CGAL10Properties18Property_containerINS_12Surface_meshINS_7Point_3INS_16Simple_cartesianIdEEEEEENS_17SM_Halfedge_indexEED2Ev, symObjAddr: 0x72F4, symBinAddr: 0x10000EECC, symSize: 0x50 }
  - { offsetInCU: 0x72192, offset: 0x7F39B, size: 0x8, addend: 0x0, symName: __ZN4CGAL10Properties18Property_containerINS_12Surface_meshINS_7Point_3INS_16Simple_cartesianIdEEEEEENS_17SM_Halfedge_indexEE5clearEv, symObjAddr: 0x7344, symBinAddr: 0x10000EF1C, symSize: 0xB8 }
  - { offsetInCU: 0x721D4, offset: 0x7F3DD, size: 0x8, addend: 0x0, symName: __ZN4CGAL10Properties18Property_containerINS_12Surface_meshINS_7Point_3INS_16Simple_cartesianIdEEEEEENS_17SM_Halfedge_indexEED0Ev, symObjAddr: 0x73FC, symBinAddr: 0x10000EFD4, symSize: 0x30 }
  - { offsetInCU: 0x721FD, offset: 0x7F406, size: 0x8, addend: 0x0, symName: __ZN4CGAL10Properties18Property_containerINS_12Surface_meshINS_7Point_3INS_16Simple_cartesianIdEEEEEENS_15SM_Vertex_indexEED2Ev, symObjAddr: 0x742C, symBinAddr: 0x10000F004, symSize: 0x50 }
  - { offsetInCU: 0x72226, offset: 0x7F42F, size: 0x8, addend: 0x0, symName: __ZN4CGAL10Properties18Property_containerINS_12Surface_meshINS_7Point_3INS_16Simple_cartesianIdEEEEEENS_15SM_Vertex_indexEE5clearEv, symObjAddr: 0x747C, symBinAddr: 0x10000F054, symSize: 0xB8 }
  - { offsetInCU: 0x72268, offset: 0x7F471, size: 0x8, addend: 0x0, symName: __ZN4CGAL10Properties18Property_containerINS_12Surface_meshINS_7Point_3INS_16Simple_cartesianIdEEEEEENS_15SM_Vertex_indexEED0Ev, symObjAddr: 0x7534, symBinAddr: 0x10000F10C, symSize: 0x30 }
  - { offsetInCU: 0x72291, offset: 0x7F49A, size: 0x8, addend: 0x0, symName: __ZNKSt3__111__wrap_iterIPNS_12basic_stringIcNS_11char_traitsIcEENS_9allocatorIcEEEEE4baseB8ue170006Ev, symObjAddr: 0x75AC, symBinAddr: 0x10000F184, symSize: 0x18 }
  - { offsetInCU: 0x722B6, offset: 0x7F4BF, size: 0x8, addend: 0x0, symName: __ZN5CoralC2ERKN4CGAL7Point_3INS0_16Simple_cartesianIdEEEEdi, symObjAddr: 0x75C4, symBinAddr: 0x10000F19C, symSize: 0x44 }
  - { offsetInCU: 0x72309, offset: 0x7F512, size: 0x8, addend: 0x0, symName: __ZNSt3__112basic_stringIcNS_11char_traitsIcEENS_9allocatorIcEEEC2B8ue170006ILi0EEEPKc, symObjAddr: 0x7608, symBinAddr: 0x10000F1E0, symSize: 0x58 }
  - { offsetInCU: 0x7234C, offset: 0x7F555, size: 0x8, addend: 0x0, symName: __ZNSt3__117__compressed_pairINS_12basic_stringIcNS_11char_traitsIcEENS_9allocatorIcEEE5__repES5_EC1B8ue170006INS_18__default_init_tagESA_EEOT_OT0_, symObjAddr: 0x7660, symBinAddr: 0x10000F238, symSize: 0x3C }
  - { offsetInCU: 0x723A3, offset: 0x7F5AC, size: 0x8, addend: 0x0, symName: __ZNSt3__111char_traitsIcE6lengthB8ue170006EPKc, symObjAddr: 0x769C, symBinAddr: 0x10000F274, symSize: 0x34 }
  - { offsetInCU: 0x723C6, offset: 0x7F5CF, size: 0x8, addend: 0x0, symName: __ZNSt3__117__compressed_pairINS_12basic_stringIcNS_11char_traitsIcEENS_9allocatorIcEEE5__repES5_EC2B8ue170006INS_18__default_init_tagESA_EEOT_OT0_, symObjAddr: 0x76D0, symBinAddr: 0x10000F2A8, symSize: 0x3C }
  - { offsetInCU: 0x7241D, offset: 0x7F626, size: 0x8, addend: 0x0, symName: __ZNSt3__122__compressed_pair_elemINS_12basic_stringIcNS_11char_traitsIcEENS_9allocatorIcEEE5__repELi0ELb0EEC2B8ue170006ENS_18__default_init_tagE, symObjAddr: 0x770C, symBinAddr: 0x10000F2E4, symSize: 0x14 }
  - { offsetInCU: 0x72450, offset: 0x7F659, size: 0x8, addend: 0x0, symName: __ZNSt3__122__compressed_pair_elemINS_9allocatorIcEELi1ELb1EEC2B8ue170006ENS_18__default_init_tagE, symObjAddr: 0x7720, symBinAddr: 0x10000F2F8, symSize: 0x2C }
  - { offsetInCU: 0x72483, offset: 0x7F68C, size: 0x8, addend: 0x0, symName: __ZNSt3__19allocatorIcEC2B8ue170006Ev, symObjAddr: 0x774C, symBinAddr: 0x10000F324, symSize: 0x2C }
  - { offsetInCU: 0x724AC, offset: 0x7F6B5, size: 0x8, addend: 0x0, symName: __ZNSt3__116__non_trivial_ifILb1ENS_9allocatorIcEEEC2B8ue170006Ev, symObjAddr: 0x7778, symBinAddr: 0x10000F350, symSize: 0x14 }
  - { offsetInCU: 0x724D5, offset: 0x7F6DE, size: 0x8, addend: 0x0, symName: __ZNSt3__19basic_iosIcNS_11char_traitsIcEEEC2B8ue170006Ev, symObjAddr: 0x77B0, symBinAddr: 0x10000F388, symSize: 0x44 }
  - { offsetInCU: 0x724FE, offset: 0x7F707, size: 0x8, addend: 0x0, symName: __ZNSt3__113basic_istreamIcNS_11char_traitsIcEEEC2B8ue170006EPNS_15basic_streambufIcS2_EE, symObjAddr: 0x77F4, symBinAddr: 0x10000F3CC, symSize: 0x64 }
  - { offsetInCU: 0x72541, offset: 0x7F74A, size: 0x8, addend: 0x0, symName: __ZNSt3__113basic_filebufIcNS_11char_traitsIcEEE4openERKNS_12basic_stringIcS2_NS_9allocatorIcEEEEj, symObjAddr: 0x7858, symBinAddr: 0x10000F430, symSize: 0x44 }
  - { offsetInCU: 0x72587, offset: 0x7F790, size: 0x8, addend: 0x0, symName: __ZNSt3__19basic_iosIcNS_11char_traitsIcEEE8setstateB8ue170006Ej, symObjAddr: 0x789C, symBinAddr: 0x10000F474, symSize: 0x2C }
  - { offsetInCU: 0x725BB, offset: 0x7F7C4, size: 0x8, addend: 0x0, symName: __ZNSt3__18ios_baseC2B8ue170006Ev, symObjAddr: 0x78C8, symBinAddr: 0x10000F4A0, symSize: 0x24 }
  - { offsetInCU: 0x725E4, offset: 0x7F7ED, size: 0x8, addend: 0x0, symName: __ZNSt3__19basic_iosIcNS_11char_traitsIcEEE4initB8ue170006EPNS_15basic_streambufIcS2_EE, symObjAddr: 0x78EC, symBinAddr: 0x10000F4C4, symSize: 0x44 }
  - { offsetInCU: 0x72619, offset: 0x7F822, size: 0x8, addend: 0x0, symName: __ZNSt3__111char_traitsIcE3eofB8ue170006Ev, symObjAddr: 0x7930, symBinAddr: 0x10000F508, symSize: 0x8 }
  - { offsetInCU: 0x7262D, offset: 0x7F836, size: 0x8, addend: 0x0, symName: __ZNKSt3__112basic_stringIcNS_11char_traitsIcEENS_9allocatorIcEEE5c_strB8ue170006Ev, symObjAddr: 0x7938, symBinAddr: 0x10000F510, symSize: 0x24 }
  - { offsetInCU: 0x72652, offset: 0x7F85B, size: 0x8, addend: 0x0, symName: __ZNSt3__18ios_base8setstateB8ue170006Ej, symObjAddr: 0x795C, symBinAddr: 0x10000F534, symSize: 0x34 }
  - { offsetInCU: 0x72687, offset: 0x7F890, size: 0x8, addend: 0x0, symName: __ZNKSt3__19basic_iosIcNS_11char_traitsIcEEE4failB8ue170006Ev, symObjAddr: 0x7990, symBinAddr: 0x10000F568, symSize: 0x28 }
  - { offsetInCU: 0x726AC, offset: 0x7F8B5, size: 0x8, addend: 0x0, symName: __ZNKSt3__18ios_base4failB8ue170006Ev, symObjAddr: 0x79B8, symBinAddr: 0x10000F590, symSize: 0x28 }
  - { offsetInCU: 0x726EC, offset: 0x7F8F5, size: 0x8, addend: 0x0, symName: __ZNKSt3__113basic_ostreamIcNS_11char_traitsIcEEE6sentrycvbB8ue170006Ev, symObjAddr: 0x7BCC, symBinAddr: 0x10000F7A4, symSize: 0x1C }
  - { offsetInCU: 0x72711, offset: 0x7F91A, size: 0x8, addend: 0x0, symName: __ZNSt3__119ostreambuf_iteratorIcNS_11char_traitsIcEEEC1B8ue170006ERNS_13basic_ostreamIcS2_EE, symObjAddr: 0x7E28, symBinAddr: 0x10000FA00, symSize: 0x34 }
  - { offsetInCU: 0x72748, offset: 0x7F951, size: 0x8, addend: 0x0, symName: __ZNKSt3__18ios_base5flagsB8ue170006Ev, symObjAddr: 0x7E5C, symBinAddr: 0x10000FA34, symSize: 0x18 }
  - { offsetInCU: 0x7276F, offset: 0x7F978, size: 0x8, addend: 0x0, symName: __ZNKSt3__19basic_iosIcNS_11char_traitsIcEEE4fillB8ue170006Ev, symObjAddr: 0x7E74, symBinAddr: 0x10000FA4C, symSize: 0x64 }
  - { offsetInCU: 0x72795, offset: 0x7F99E, size: 0x8, addend: 0x0, symName: __ZNKSt3__119ostreambuf_iteratorIcNS_11char_traitsIcEEE6failedB8ue170006Ev, symObjAddr: 0x7ED8, symBinAddr: 0x10000FAB0, symSize: 0x24 }
  - { offsetInCU: 0x727BA, offset: 0x7F9C3, size: 0x8, addend: 0x0, symName: __ZNKSt3__18ios_base5widthB8ue170006Ev, symObjAddr: 0x7EFC, symBinAddr: 0x10000FAD4, symSize: 0x18 }
  - { offsetInCU: 0x727E1, offset: 0x7F9EA, size: 0x8, addend: 0x0, symName: __ZNSt3__115basic_streambufIcNS_11char_traitsIcEEE5sputnB8ue170006EPKcl, symObjAddr: 0x7F14, symBinAddr: 0x10000FAEC, symSize: 0x3C }
  - { offsetInCU: 0x72822, offset: 0x7FA2B, size: 0x8, addend: 0x0, symName: __ZNSt3__112basic_stringIcNS_11char_traitsIcEENS_9allocatorIcEEEC1B8ue170006Emc, symObjAddr: 0x7F50, symBinAddr: 0x10000FB28, symSize: 0x3C }
  - { offsetInCU: 0x72869, offset: 0x7FA72, size: 0x8, addend: 0x0, symName: __ZNSt3__112basic_stringIcNS_11char_traitsIcEENS_9allocatorIcEEE4dataB8ue170006Ev, symObjAddr: 0x7F8C, symBinAddr: 0x10000FB64, symSize: 0x28 }
  - { offsetInCU: 0x7288E, offset: 0x7FA97, size: 0x8, addend: 0x0, symName: __ZNSt3__18ios_base5widthB8ue170006El, symObjAddr: 0x7FB4, symBinAddr: 0x10000FB8C, symSize: 0x2C }
  - { offsetInCU: 0x728D3, offset: 0x7FADC, size: 0x8, addend: 0x0, symName: __ZNSt3__112basic_stringIcNS_11char_traitsIcEENS_9allocatorIcEEEC2B8ue170006Emc, symObjAddr: 0x7FE0, symBinAddr: 0x10000FBB8, symSize: 0x4C }
  - { offsetInCU: 0x7291A, offset: 0x7FB23, size: 0x8, addend: 0x0, symName: __ZNSt3__112basic_stringIcNS_11char_traitsIcEENS_9allocatorIcEEE13__get_pointerB8ue170006Ev, symObjAddr: 0x8040, symBinAddr: 0x10000FC18, symSize: 0x54 }
  - { offsetInCU: 0x7293F, offset: 0x7FB48, size: 0x8, addend: 0x0, symName: __ZNSt3__112basic_stringIcNS_11char_traitsIcEENS_9allocatorIcEEE18__get_long_pointerB8ue170006Ev, symObjAddr: 0x8094, symBinAddr: 0x10000FC6C, symSize: 0x28 }
  - { offsetInCU: 0x72964, offset: 0x7FB6D, size: 0x8, addend: 0x0, symName: __ZNSt3__112basic_stringIcNS_11char_traitsIcEENS_9allocatorIcEEE19__get_short_pointerB8ue170006Ev, symObjAddr: 0x80BC, symBinAddr: 0x10000FC94, symSize: 0x28 }
  - { offsetInCU: 0x72989, offset: 0x7FB92, size: 0x8, addend: 0x0, symName: __ZNSt3__114pointer_traitsIPcE10pointer_toB8ue170006ERc, symObjAddr: 0x80E4, symBinAddr: 0x10000FCBC, symSize: 0x14 }
  - { offsetInCU: 0x729AC, offset: 0x7FBB5, size: 0x8, addend: 0x0, symName: __ZNSt3__119ostreambuf_iteratorIcNS_11char_traitsIcEEEC2B8ue170006ERNS_13basic_ostreamIcS2_EE, symObjAddr: 0x80F8, symBinAddr: 0x10000FCD0, symSize: 0x54 }
  - { offsetInCU: 0x729E3, offset: 0x7FBEC, size: 0x8, addend: 0x0, symName: __ZNKSt3__19basic_iosIcNS_11char_traitsIcEEE5rdbufB8ue170006Ev, symObjAddr: 0x814C, symBinAddr: 0x10000FD24, symSize: 0x24 }
  - { offsetInCU: 0x72A09, offset: 0x7FC12, size: 0x8, addend: 0x0, symName: __ZNKSt3__18ios_base5rdbufB8ue170006Ev, symObjAddr: 0x8170, symBinAddr: 0x10000FD48, symSize: 0x18 }
  - { offsetInCU: 0x72A2E, offset: 0x7FC37, size: 0x8, addend: 0x0, symName: __ZNSt3__111char_traitsIcE11eq_int_typeB8ue170006Eii, symObjAddr: 0x8188, symBinAddr: 0x10000FD60, symSize: 0x28 }
  - { offsetInCU: 0x72A61, offset: 0x7FC6A, size: 0x8, addend: 0x0, symName: __ZNKSt3__19basic_iosIcNS_11char_traitsIcEEE5widenB8ue170006Ec, symObjAddr: 0x81B0, symBinAddr: 0x10000FD88, symSize: 0x84 }
  - { offsetInCU: 0x72ABE, offset: 0x7FCC7, size: 0x8, addend: 0x0, symName: __ZNKSt3__15ctypeIcE5widenB8ue170006Ec, symObjAddr: 0x8260, symBinAddr: 0x10000FE38, symSize: 0x38 }
  - { offsetInCU: 0x72AF2, offset: 0x7FCFB, size: 0x8, addend: 0x0, symName: __ZN4CGAL11Interval_ntILb1EE27Test_runtime_rounding_modesC2Ev, symObjAddr: 0x8298, symBinAddr: 0x10000FE70, symSize: 0x1F8 }
  - { offsetInCU: 0x72B3A, offset: 0x7FD43, size: 0x8, addend: 0x0, symName: __ZN4CGAL28Checked_protect_FPU_roundingILb1EEC1Ev, symObjAddr: 0x8490, symBinAddr: 0x100010068, symSize: 0x2C }
  - { offsetInCU: 0x72B63, offset: 0x7FD6C, size: 0x8, addend: 0x0, symName: __ZN4CGAL28Checked_protect_FPU_roundingILb1EED1Ev, symObjAddr: 0x84FC, symBinAddr: 0x1000100D4, symSize: 0x2C }
  - { offsetInCU: 0x72B8F, offset: 0x7FD98, size: 0x8, addend: 0x0, symName: __ZN4CGAL28Checked_protect_FPU_roundingILb1EEC2Ev, symObjAddr: 0x8528, symBinAddr: 0x100010100, symSize: 0x30 }
  - { offsetInCU: 0x72BB8, offset: 0x7FDC1, size: 0x8, addend: 0x0, symName: __ZN4CGAL20Protect_FPU_roundingILb1EEC2Em, symObjAddr: 0x8558, symBinAddr: 0x100010130, symSize: 0x3C }
  - { offsetInCU: 0x72BF0, offset: 0x7FDF9, size: 0x8, addend: 0x0, symName: __ZN4CGAL28Checked_protect_FPU_roundingILb1EED2Ev, symObjAddr: 0x85DC, symBinAddr: 0x1000101B4, symSize: 0x2C }
  - { offsetInCU: 0x72C1C, offset: 0x7FE25, size: 0x8, addend: 0x0, symName: __ZN4CGAL20Protect_FPU_roundingILb1EED2Ev, symObjAddr: 0x8608, symBinAddr: 0x1000101E0, symSize: 0x30 }
  - { offsetInCU: 0x72C45, offset: 0x7FE4E, size: 0x8, addend: 0x0, symName: __ZN5boost4math6detail21min_shift_initializerIdE4initC2Ev, symObjAddr: 0x8638, symBinAddr: 0x100010210, symSize: 0x2C }
  - { offsetInCU: 0x72C6E, offset: 0x7FE77, size: 0x8, addend: 0x0, symName: __ZN5boost4math6detail21min_shift_initializerIdE4init7do_initEv, symObjAddr: 0x8664, symBinAddr: 0x10001023C, symSize: 0x14 }
  - { offsetInCU: 0x72E3D, offset: 0x80046, size: 0x8, addend: 0x0, symName: __ZN5boost4math6detail21min_shift_initializerIdE17force_instantiateEv, symObjAddr: 0x8760, symBinAddr: 0x100010338, symSize: 0x1C }
  - { offsetInCU: 0x72E51, offset: 0x8005A, size: 0x8, addend: 0x0, symName: __ZNSt3__114numeric_limitsIdE3minB8ue170006Ev, symObjAddr: 0x8798, symBinAddr: 0x100010370, symSize: 0x14 }
  - { offsetInCU: 0x72E65, offset: 0x8006E, size: 0x8, addend: 0x0, symName: __ZNSt3__123__libcpp_numeric_limitsIdLb1EE3minB8ue170006Ev, symObjAddr: 0x87AC, symBinAddr: 0x100010384, symSize: 0xC }
  - { offsetInCU: 0x72E79, offset: 0x80082, size: 0x8, addend: 0x0, symName: __ZNK5boost4math6detail21min_shift_initializerIdE4init17force_instantiateEv, symObjAddr: 0x87B8, symBinAddr: 0x100010390, symSize: 0x10 }
  - { offsetInCU: 0x72E9E, offset: 0x800A7, size: 0x8, addend: 0x0, symName: __ZNSt3__16vectorIN4CGAL12Surface_meshINS1_7Point_3INS1_16Simple_cartesianIdEEEEEENS_9allocatorIS7_EEEC2B8ue170006Ev, symObjAddr: 0x87C8, symBinAddr: 0x1000103A0, symSize: 0x4C }
  - { offsetInCU: 0x72ECC, offset: 0x800D5, size: 0x8, addend: 0x0, symName: __ZNSt3__117__compressed_pairIPN4CGAL12Surface_meshINS1_7Point_3INS1_16Simple_cartesianIdEEEEEENS_9allocatorIS7_EEEC1B8ue170006IDnNS_18__default_init_tagEEEOT_OT0_, symObjAddr: 0x8814, symBinAddr: 0x1000103EC, symSize: 0x3C }
  - { offsetInCU: 0x72F23, offset: 0x8012C, size: 0x8, addend: 0x0, symName: __ZNSt3__117__compressed_pairIPN4CGAL12Surface_meshINS1_7Point_3INS1_16Simple_cartesianIdEEEEEENS_9allocatorIS7_EEEC2B8ue170006IDnNS_18__default_init_tagEEEOT_OT0_, symObjAddr: 0x8850, symBinAddr: 0x100010428, symSize: 0x40 }
  - { offsetInCU: 0x72F7A, offset: 0x80183, size: 0x8, addend: 0x0, symName: __ZNSt3__122__compressed_pair_elemIPN4CGAL12Surface_meshINS1_7Point_3INS1_16Simple_cartesianIdEEEEEELi0ELb0EEC2B8ue170006IDnvEEOT_, symObjAddr: 0x8890, symBinAddr: 0x100010468, symSize: 0x1C }
  - { offsetInCU: 0x72FBB, offset: 0x801C4, size: 0x8, addend: 0x0, symName: __ZNSt3__122__compressed_pair_elemINS_9allocatorIN4CGAL12Surface_meshINS2_7Point_3INS2_16Simple_cartesianIdEEEEEEEELi1ELb1EEC2B8ue170006ENS_18__default_init_tagE, symObjAddr: 0x88AC, symBinAddr: 0x100010484, symSize: 0x2C }
  - { offsetInCU: 0x72FEE, offset: 0x801F7, size: 0x8, addend: 0x0, symName: __ZNSt3__19allocatorIN4CGAL12Surface_meshINS1_7Point_3INS1_16Simple_cartesianIdEEEEEEEC2B8ue170006Ev, symObjAddr: 0x88D8, symBinAddr: 0x1000104B0, symSize: 0x2C }
  - { offsetInCU: 0x73017, offset: 0x80220, size: 0x8, addend: 0x0, symName: __ZNSt3__116__non_trivial_ifILb1ENS_9allocatorIN4CGAL12Surface_meshINS2_7Point_3INS2_16Simple_cartesianIdEEEEEEEEEC2B8ue170006Ev, symObjAddr: 0x8904, symBinAddr: 0x1000104DC, symSize: 0x14 }
  - { offsetInCU: 0x73040, offset: 0x80249, size: 0x8, addend: 0x0, symName: __ZNSt3__16vectorIN4CGAL12Surface_meshINS1_7Point_3INS1_16Simple_cartesianIdEEEEEENS_9allocatorIS7_EEED2B8ue170006Ev, symObjAddr: 0x8918, symBinAddr: 0x1000104F0, symSize: 0x44 }
  - { offsetInCU: 0x73069, offset: 0x80272, size: 0x8, addend: 0x0, symName: __ZNSt3__16vectorIN4CGAL12Surface_meshINS1_7Point_3INS1_16Simple_cartesianIdEEEEEENS_9allocatorIS7_EEE16__destroy_vectorC1B8ue170006ERSA_, symObjAddr: 0x895C, symBinAddr: 0x100010534, symSize: 0x34 }
  - { offsetInCU: 0x730A1, offset: 0x802AA, size: 0x8, addend: 0x0, symName: __ZNSt3__16vectorIN4CGAL12Surface_meshINS1_7Point_3INS1_16Simple_cartesianIdEEEEEENS_9allocatorIS7_EEE16__destroy_vectorclB8ue170006Ev, symObjAddr: 0x8990, symBinAddr: 0x100010568, symSize: 0x90 }
  - { offsetInCU: 0x730C6, offset: 0x802CF, size: 0x8, addend: 0x0, symName: __ZNSt3__16vectorIN4CGAL12Surface_meshINS1_7Point_3INS1_16Simple_cartesianIdEEEEEENS_9allocatorIS7_EEE16__destroy_vectorC2B8ue170006ERSA_, symObjAddr: 0x8A20, symBinAddr: 0x1000105F8, symSize: 0x20 }
  - { offsetInCU: 0x730FE, offset: 0x80307, size: 0x8, addend: 0x0, symName: __ZNSt3__16vectorIN4CGAL12Surface_meshINS1_7Point_3INS1_16Simple_cartesianIdEEEEEENS_9allocatorIS7_EEE7__clearB8ue170006Ev, symObjAddr: 0x8A40, symBinAddr: 0x100010618, symSize: 0x28 }
  - { offsetInCU: 0x73123, offset: 0x8032C, size: 0x8, addend: 0x0, symName: __ZNKSt3__16vectorIN4CGAL12Surface_meshINS1_7Point_3INS1_16Simple_cartesianIdEEEEEENS_9allocatorIS7_EEE17__annotate_deleteB8ue170006Ev, symObjAddr: 0x8A68, symBinAddr: 0x100010640, symSize: 0xD4 }
  - { offsetInCU: 0x73148, offset: 0x80351, size: 0x8, addend: 0x0, symName: __ZNSt3__116allocator_traitsINS_9allocatorIN4CGAL12Surface_meshINS2_7Point_3INS2_16Simple_cartesianIdEEEEEEEEE10deallocateB8ue170006ERS9_PS8_m, symObjAddr: 0x8B3C, symBinAddr: 0x100010714, symSize: 0x34 }
  - { offsetInCU: 0x7318A, offset: 0x80393, size: 0x8, addend: 0x0, symName: __ZNSt3__16vectorIN4CGAL12Surface_meshINS1_7Point_3INS1_16Simple_cartesianIdEEEEEENS_9allocatorIS7_EEE7__allocB8ue170006Ev, symObjAddr: 0x8B70, symBinAddr: 0x100010748, symSize: 0x28 }
  - { offsetInCU: 0x731AF, offset: 0x803B8, size: 0x8, addend: 0x0, symName: __ZNKSt3__16vectorIN4CGAL12Surface_meshINS1_7Point_3INS1_16Simple_cartesianIdEEEEEENS_9allocatorIS7_EEE8capacityB8ue170006Ev, symObjAddr: 0x8B98, symBinAddr: 0x100010770, symSize: 0x40 }
  - { offsetInCU: 0x731D4, offset: 0x803DD, size: 0x8, addend: 0x0, symName: __ZNSt3__16vectorIN4CGAL12Surface_meshINS1_7Point_3INS1_16Simple_cartesianIdEEEEEENS_9allocatorIS7_EEE22__base_destruct_at_endB8ue170006EPS7_, symObjAddr: 0x8BD8, symBinAddr: 0x1000107B0, symSize: 0x8C }
  - { offsetInCU: 0x73217, offset: 0x80420, size: 0x8, addend: 0x0, symName: __ZNSt3__116allocator_traitsINS_9allocatorIN4CGAL12Surface_meshINS2_7Point_3INS2_16Simple_cartesianIdEEEEEEEEE7destroyB8ue170006IS8_vEEvRS9_PT_, symObjAddr: 0x8C64, symBinAddr: 0x10001083C, symSize: 0x2C }
  - { offsetInCU: 0x73254, offset: 0x8045D, size: 0x8, addend: 0x0, symName: __ZNSt3__19allocatorIN4CGAL12Surface_meshINS1_7Point_3INS1_16Simple_cartesianIdEEEEEEE7destroyB8ue170006EPS7_, symObjAddr: 0x8CA4, symBinAddr: 0x10001087C, symSize: 0x28 }
  - { offsetInCU: 0x73287, offset: 0x80490, size: 0x8, addend: 0x0, symName: __ZNKSt3__16vectorIN4CGAL12Surface_meshINS1_7Point_3INS1_16Simple_cartesianIdEEEEEENS_9allocatorIS7_EEE31__annotate_contiguous_containerB8ue170006EPKvSC_SC_SC_, symObjAddr: 0x8CCC, symBinAddr: 0x1000108A4, symSize: 0x20 }
  - { offsetInCU: 0x732D8, offset: 0x804E1, size: 0x8, addend: 0x0, symName: __ZNKSt3__16vectorIN4CGAL12Surface_meshINS1_7Point_3INS1_16Simple_cartesianIdEEEEEENS_9allocatorIS7_EEE4dataB8ue170006Ev, symObjAddr: 0x8CEC, symBinAddr: 0x1000108C4, symSize: 0x28 }
  - { offsetInCU: 0x732FD, offset: 0x80506, size: 0x8, addend: 0x0, symName: __ZNSt3__19allocatorIN4CGAL12Surface_meshINS1_7Point_3INS1_16Simple_cartesianIdEEEEEEE10deallocateB8ue170006EPS7_m, symObjAddr: 0x8D14, symBinAddr: 0x1000108EC, symSize: 0x44 }
  - { offsetInCU: 0x7333E, offset: 0x80547, size: 0x8, addend: 0x0, symName: __ZNSt3__117__compressed_pairIPN4CGAL12Surface_meshINS1_7Point_3INS1_16Simple_cartesianIdEEEEEENS_9allocatorIS7_EEE6secondB8ue170006Ev, symObjAddr: 0x8D58, symBinAddr: 0x100010930, symSize: 0x24 }
  - { offsetInCU: 0x73363, offset: 0x8056C, size: 0x8, addend: 0x0, symName: __ZNSt3__122__compressed_pair_elemINS_9allocatorIN4CGAL12Surface_meshINS2_7Point_3INS2_16Simple_cartesianIdEEEEEEEELi1ELb1EE5__getB8ue170006Ev, symObjAddr: 0x8D7C, symBinAddr: 0x100010954, symSize: 0x14 }
  - { offsetInCU: 0x73388, offset: 0x80591, size: 0x8, addend: 0x0, symName: __ZNKSt3__16vectorIN4CGAL12Surface_meshINS1_7Point_3INS1_16Simple_cartesianIdEEEEEENS_9allocatorIS7_EEE9__end_capB8ue170006Ev, symObjAddr: 0x8D90, symBinAddr: 0x100010968, symSize: 0x28 }
  - { offsetInCU: 0x733AD, offset: 0x805B6, size: 0x8, addend: 0x0, symName: __ZNKSt3__117__compressed_pairIPN4CGAL12Surface_meshINS1_7Point_3INS1_16Simple_cartesianIdEEEEEENS_9allocatorIS7_EEE5firstB8ue170006Ev, symObjAddr: 0x8DB8, symBinAddr: 0x100010990, symSize: 0x24 }
  - { offsetInCU: 0x733D2, offset: 0x805DB, size: 0x8, addend: 0x0, symName: __ZNKSt3__122__compressed_pair_elemIPN4CGAL12Surface_meshINS1_7Point_3INS1_16Simple_cartesianIdEEEEEELi0ELb0EE5__getB8ue170006Ev, symObjAddr: 0x8DDC, symBinAddr: 0x1000109B4, symSize: 0x14 }
  - { offsetInCU: 0x733F7, offset: 0x80600, size: 0x8, addend: 0x0, symName: __ZNSt3__16vectorIfNS_9allocatorIfEEEC2B8ue170006ESt16initializer_listIfE, symObjAddr: 0x8DF0, symBinAddr: 0x1000109C8, symSize: 0x120 }
  - { offsetInCU: 0x73446, offset: 0x8064F, size: 0x8, addend: 0x0, symName: __ZNSt3__117__compressed_pairIPfNS_9allocatorIfEEEC1B8ue170006IDnNS_18__default_init_tagEEEOT_OT0_, symObjAddr: 0x8F10, symBinAddr: 0x100010AE8, symSize: 0x3C }
  - { offsetInCU: 0x7349D, offset: 0x806A6, size: 0x8, addend: 0x0, symName: __ZNSt3__16vectorIfNS_9allocatorIfEEE16__destroy_vectorC1B8ue170006ERS3_, symObjAddr: 0x8F8C, symBinAddr: 0x100010B64, symSize: 0x34 }
  - { offsetInCU: 0x734D5, offset: 0x806DE, size: 0x8, addend: 0x0, symName: __ZNKSt16initializer_listIfE4sizeB8ue170006Ev, symObjAddr: 0x8FC0, symBinAddr: 0x100010B98, symSize: 0x18 }
  - { offsetInCU: 0x734FA, offset: 0x80703, size: 0x8, addend: 0x0, symName: __ZNSt3__16vectorIfNS_9allocatorIfEEE11__vallocateB8ue170006Em, symObjAddr: 0x8FD8, symBinAddr: 0x100010BB0, symSize: 0xAC }
  - { offsetInCU: 0x7353D, offset: 0x80746, size: 0x8, addend: 0x0, symName: __ZNSt3__16vectorIfNS_9allocatorIfEEE18__construct_at_endIPKfS6_EEvT_T0_m, symObjAddr: 0x9084, symBinAddr: 0x100010C5C, symSize: 0x8C }
  - { offsetInCU: 0x735B1, offset: 0x807BA, size: 0x8, addend: 0x0, symName: __ZNKSt16initializer_listIfE5beginB8ue170006Ev, symObjAddr: 0x9110, symBinAddr: 0x100010CE8, symSize: 0x18 }
  - { offsetInCU: 0x735D6, offset: 0x807DF, size: 0x8, addend: 0x0, symName: __ZNKSt16initializer_listIfE3endB8ue170006Ev, symObjAddr: 0x9128, symBinAddr: 0x100010D00, symSize: 0x20 }
  - { offsetInCU: 0x735FB, offset: 0x80804, size: 0x8, addend: 0x0, symName: __ZNSt3__128__exception_guard_exceptionsINS_6vectorIfNS_9allocatorIfEEE16__destroy_vectorEE10__completeB8ue170006Ev, symObjAddr: 0x9148, symBinAddr: 0x100010D20, symSize: 0x1C }
  - { offsetInCU: 0x73620, offset: 0x80829, size: 0x8, addend: 0x0, symName: __ZNSt3__128__exception_guard_exceptionsINS_6vectorIfNS_9allocatorIfEEE16__destroy_vectorEED1B8ue170006Ev, symObjAddr: 0x9164, symBinAddr: 0x100010D3C, symSize: 0x2C }
  - { offsetInCU: 0x73649, offset: 0x80852, size: 0x8, addend: 0x0, symName: __ZNSt3__117__compressed_pairIPfNS_9allocatorIfEEEC2B8ue170006IDnNS_18__default_init_tagEEEOT_OT0_, symObjAddr: 0x9190, symBinAddr: 0x100010D68, symSize: 0x40 }
  - { offsetInCU: 0x736A0, offset: 0x808A9, size: 0x8, addend: 0x0, symName: __ZNSt3__122__compressed_pair_elemIPfLi0ELb0EEC2B8ue170006IDnvEEOT_, symObjAddr: 0x91D0, symBinAddr: 0x100010DA8, symSize: 0x1C }
  - { offsetInCU: 0x736E1, offset: 0x808EA, size: 0x8, addend: 0x0, symName: __ZNSt3__122__compressed_pair_elemINS_9allocatorIfEELi1ELb1EEC2B8ue170006ENS_18__default_init_tagE, symObjAddr: 0x91EC, symBinAddr: 0x100010DC4, symSize: 0x2C }
  - { offsetInCU: 0x73714, offset: 0x8091D, size: 0x8, addend: 0x0, symName: __ZNSt3__19allocatorIfEC2B8ue170006Ev, symObjAddr: 0x9218, symBinAddr: 0x100010DF0, symSize: 0x2C }
  - { offsetInCU: 0x7373D, offset: 0x80946, size: 0x8, addend: 0x0, symName: __ZNSt3__116__non_trivial_ifILb1ENS_9allocatorIfEEEC2B8ue170006Ev, symObjAddr: 0x9244, symBinAddr: 0x100010E1C, symSize: 0x14 }
  - { offsetInCU: 0x73766, offset: 0x8096F, size: 0x8, addend: 0x0, symName: __ZNSt3__128__exception_guard_exceptionsINS_6vectorIfNS_9allocatorIfEEE16__destroy_vectorEEC1B8ue170006ES5_, symObjAddr: 0x9258, symBinAddr: 0x100010E30, symSize: 0x34 }
  - { offsetInCU: 0x7379D, offset: 0x809A6, size: 0x8, addend: 0x0, symName: __ZNSt3__128__exception_guard_exceptionsINS_6vectorIfNS_9allocatorIfEEE16__destroy_vectorEEC2B8ue170006ES5_, symObjAddr: 0x928C, symBinAddr: 0x100010E64, symSize: 0x24 }
  - { offsetInCU: 0x737D4, offset: 0x809DD, size: 0x8, addend: 0x0, symName: __ZNSt3__16vectorIfNS_9allocatorIfEEE16__destroy_vectorC2B8ue170006ERS3_, symObjAddr: 0x92B0, symBinAddr: 0x100010E88, symSize: 0x20 }
  - { offsetInCU: 0x7380C, offset: 0x80A15, size: 0x8, addend: 0x0, symName: __ZNKSt3__16vectorIfNS_9allocatorIfEEE8max_sizeEv, symObjAddr: 0x92D0, symBinAddr: 0x100010EA8, symSize: 0x60 }
  - { offsetInCU: 0x73832, offset: 0x80A3B, size: 0x8, addend: 0x0, symName: __ZNKSt3__16vectorIfNS_9allocatorIfEEE20__throw_length_errorB8ue170006Ev, symObjAddr: 0x9330, symBinAddr: 0x100010F08, symSize: 0x1C }
  - { offsetInCU: 0x73857, offset: 0x80A60, size: 0x8, addend: 0x0, symName: __ZNSt3__16vectorIfNS_9allocatorIfEEE7__allocB8ue170006Ev, symObjAddr: 0x938C, symBinAddr: 0x100010F64, symSize: 0x28 }
  - { offsetInCU: 0x7387C, offset: 0x80A85, size: 0x8, addend: 0x0, symName: __ZNSt3__16vectorIfNS_9allocatorIfEEE9__end_capB8ue170006Ev, symObjAddr: 0x93B4, symBinAddr: 0x100010F8C, symSize: 0x28 }
  - { offsetInCU: 0x738A1, offset: 0x80AAA, size: 0x8, addend: 0x0, symName: __ZNKSt3__16vectorIfNS_9allocatorIfEEE14__annotate_newB8ue170006Em, symObjAddr: 0x93DC, symBinAddr: 0x100010FB4, symSize: 0xAC }
  - { offsetInCU: 0x738DF, offset: 0x80AE8, size: 0x8, addend: 0x0, symName: __ZNSt3__116allocator_traitsINS_9allocatorIfEEE8max_sizeB8ue170006IS2_vEEmRKS2_, symObjAddr: 0x94B4, symBinAddr: 0x100011060, symSize: 0x24 }
  - { offsetInCU: 0x7390D, offset: 0x80B16, size: 0x8, addend: 0x0, symName: __ZNKSt3__16vectorIfNS_9allocatorIfEEE7__allocB8ue170006Ev, symObjAddr: 0x94D8, symBinAddr: 0x100011084, symSize: 0x28 }
  - { offsetInCU: 0x7393C, offset: 0x80B45, size: 0x8, addend: 0x0, symName: __ZNKSt3__19allocatorIfE8max_sizeB8ue170006Ev, symObjAddr: 0x959C, symBinAddr: 0x1000110AC, symSize: 0x14 }
  - { offsetInCU: 0x73961, offset: 0x80B6A, size: 0x8, addend: 0x0, symName: __ZNKSt3__117__compressed_pairIPfNS_9allocatorIfEEE6secondB8ue170006Ev, symObjAddr: 0x95B0, symBinAddr: 0x1000110C0, symSize: 0x24 }
  - { offsetInCU: 0x73986, offset: 0x80B8F, size: 0x8, addend: 0x0, symName: __ZNKSt3__122__compressed_pair_elemINS_9allocatorIfEELi1ELb1EE5__getB8ue170006Ev, symObjAddr: 0x95D4, symBinAddr: 0x1000110E4, symSize: 0x14 }
  - { offsetInCU: 0x739AB, offset: 0x80BB4, size: 0x8, addend: 0x0, symName: __ZNSt3__19allocatorIfE8allocateB8ue170006Em, symObjAddr: 0x96D4, symBinAddr: 0x1000110F8, symSize: 0x58 }
  - { offsetInCU: 0x739DE, offset: 0x80BE7, size: 0x8, addend: 0x0, symName: __ZNSt3__117__compressed_pairIPfNS_9allocatorIfEEE6secondB8ue170006Ev, symObjAddr: 0x9810, symBinAddr: 0x100011150, symSize: 0x24 }
  - { offsetInCU: 0x73A03, offset: 0x80C0C, size: 0x8, addend: 0x0, symName: __ZNSt3__122__compressed_pair_elemINS_9allocatorIfEELi1ELb1EE5__getB8ue170006Ev, symObjAddr: 0x9834, symBinAddr: 0x100011174, symSize: 0x14 }
  - { offsetInCU: 0x73A28, offset: 0x80C31, size: 0x8, addend: 0x0, symName: __ZNSt3__117__compressed_pairIPfNS_9allocatorIfEEE5firstB8ue170006Ev, symObjAddr: 0x9848, symBinAddr: 0x100011188, symSize: 0x24 }
  - { offsetInCU: 0x73A4D, offset: 0x80C56, size: 0x8, addend: 0x0, symName: __ZNSt3__122__compressed_pair_elemIPfLi0ELb0EE5__getB8ue170006Ev, symObjAddr: 0x986C, symBinAddr: 0x1000111AC, symSize: 0x14 }
  - { offsetInCU: 0x73A72, offset: 0x80C7B, size: 0x8, addend: 0x0, symName: __ZNKSt3__16vectorIfNS_9allocatorIfEEE31__annotate_contiguous_containerB8ue170006EPKvS5_S5_S5_, symObjAddr: 0x9880, symBinAddr: 0x1000111C0, symSize: 0x20 }
  - { offsetInCU: 0x73AC3, offset: 0x80CCC, size: 0x8, addend: 0x0, symName: __ZNKSt3__16vectorIfNS_9allocatorIfEEE4dataB8ue170006Ev, symObjAddr: 0x98A0, symBinAddr: 0x1000111E0, symSize: 0x28 }
  - { offsetInCU: 0x73AE8, offset: 0x80CF1, size: 0x8, addend: 0x0, symName: __ZNKSt3__16vectorIfNS_9allocatorIfEEE8capacityB8ue170006Ev, symObjAddr: 0x98C8, symBinAddr: 0x100011208, symSize: 0x40 }
  - { offsetInCU: 0x73B0D, offset: 0x80D16, size: 0x8, addend: 0x0, symName: __ZNKSt3__16vectorIfNS_9allocatorIfEEE9__end_capB8ue170006Ev, symObjAddr: 0x991C, symBinAddr: 0x10001125C, symSize: 0x28 }
  - { offsetInCU: 0x73B32, offset: 0x80D3B, size: 0x8, addend: 0x0, symName: __ZNKSt3__117__compressed_pairIPfNS_9allocatorIfEEE5firstB8ue170006Ev, symObjAddr: 0x9944, symBinAddr: 0x100011284, symSize: 0x24 }
  - { offsetInCU: 0x73B57, offset: 0x80D60, size: 0x8, addend: 0x0, symName: __ZNKSt3__122__compressed_pair_elemIPfLi0ELb0EE5__getB8ue170006Ev, symObjAddr: 0x9968, symBinAddr: 0x1000112A8, symSize: 0x14 }
  - { offsetInCU: 0x73B95, offset: 0x80D9E, size: 0x8, addend: 0x0, symName: __ZNSt3__16vectorIfNS_9allocatorIfEEE21_ConstructTransactionC1B8ue170006ERS3_m, symObjAddr: 0x997C, symBinAddr: 0x1000112BC, symSize: 0x3C }
  - { offsetInCU: 0x73BDC, offset: 0x80DE5, size: 0x8, addend: 0x0, symName: __ZNSt3__16vectorIfNS_9allocatorIfEEE21_ConstructTransactionD1B8ue170006Ev, symObjAddr: 0x9A38, symBinAddr: 0x100011378, symSize: 0x2C }
  - { offsetInCU: 0x73C05, offset: 0x80E0E, size: 0x8, addend: 0x0, symName: __ZNSt3__16vectorIfNS_9allocatorIfEEE21_ConstructTransactionC2B8ue170006ERS3_m, symObjAddr: 0x9A64, symBinAddr: 0x1000113A4, symSize: 0x44 }
  - { offsetInCU: 0x73C6A, offset: 0x80E73, size: 0x8, addend: 0x0, symName: __ZNSt3__14pairIPKfS2_EC1B8ue170006IS2_S2_LPv0EEEOT_OT0_, symObjAddr: 0x9BFC, symBinAddr: 0x10001153C, symSize: 0x3C }
  - { offsetInCU: 0x73CC7, offset: 0x80ED0, size: 0x8, addend: 0x0, symName: __ZNSt3__14pairIPKfS2_EC2B8ue170006IS2_S2_LPv0EEEOT_OT0_, symObjAddr: 0x9C38, symBinAddr: 0x100011578, symSize: 0x34 }
  - { offsetInCU: 0x73D24, offset: 0x80F2D, size: 0x8, addend: 0x0, symName: __ZNSt3__118__unwrap_iter_implIPKfLb1EE8__unwrapB8ue170006ES2_, symObjAddr: 0x9C6C, symBinAddr: 0x1000115AC, symSize: 0x24 }
  - { offsetInCU: 0x73D6C, offset: 0x80F75, size: 0x8, addend: 0x0, symName: __ZNKSt3__114__copy_trivialclB8ue170006IKffLi0EEENS_4pairIPT_PT0_EES5_S5_S7_, symObjAddr: 0x9E20, symBinAddr: 0x100011760, symSize: 0x48 }
  - { offsetInCU: 0x73DE3, offset: 0x80FEC, size: 0x8, addend: 0x0, symName: __ZNSt3__14pairIPKfPfEC1B8ue170006IRS2_S3_LPv0EEEOT_OT0_, symObjAddr: 0x9FE8, symBinAddr: 0x100011928, symSize: 0x3C }
  - { offsetInCU: 0x73E40, offset: 0x81049, size: 0x8, addend: 0x0, symName: __ZNSt3__14pairIPKfPfEC2B8ue170006IRS2_S3_LPv0EEEOT_OT0_, symObjAddr: 0xA024, symBinAddr: 0x100011964, symSize: 0x34 }
  - { offsetInCU: 0x73E9D, offset: 0x810A6, size: 0x8, addend: 0x0, symName: __ZNSt3__14pairIPKfPfEC1B8ue170006IS2_S3_LPv0EEEOT_OT0_, symObjAddr: 0xA058, symBinAddr: 0x100011998, symSize: 0x3C }
  - { offsetInCU: 0x73EFA, offset: 0x81103, size: 0x8, addend: 0x0, symName: __ZNSt3__14pairIPKfPfEC2B8ue170006IS2_S3_LPv0EEEOT_OT0_, symObjAddr: 0xA094, symBinAddr: 0x1000119D4, symSize: 0x34 }
  - { offsetInCU: 0x73F57, offset: 0x81160, size: 0x8, addend: 0x0, symName: __ZNSt3__118__unwrap_iter_implIPKfLb1EE8__rewrapB8ue170006ES2_S2_, symObjAddr: 0xA104, symBinAddr: 0x100011A44, symSize: 0x50 }
  - { offsetInCU: 0x73F8C, offset: 0x81195, size: 0x8, addend: 0x0, symName: __ZNSt3__118__unwrap_iter_implIPfLb1EE8__unwrapB8ue170006ES1_, symObjAddr: 0xA154, symBinAddr: 0x100011A94, symSize: 0x24 }
  - { offsetInCU: 0x73FB1, offset: 0x811BA, size: 0x8, addend: 0x0, symName: __ZNSt3__118__unwrap_iter_implIPfLb1EE8__rewrapB8ue170006ES1_S1_, symObjAddr: 0xA178, symBinAddr: 0x100011AB8, symSize: 0x50 }
  - { offsetInCU: 0x73FE6, offset: 0x811EF, size: 0x8, addend: 0x0, symName: __ZNSt3__16vectorIfNS_9allocatorIfEEE21_ConstructTransactionD2B8ue170006Ev, symObjAddr: 0xA1C8, symBinAddr: 0x100011B08, symSize: 0x20 }
  - { offsetInCU: 0x7400F, offset: 0x81218, size: 0x8, addend: 0x0, symName: __ZNSt3__128__exception_guard_exceptionsINS_6vectorIfNS_9allocatorIfEEE16__destroy_vectorEED2B8ue170006Ev, symObjAddr: 0xA1E8, symBinAddr: 0x100011B28, symSize: 0x50 }
  - { offsetInCU: 0x74038, offset: 0x81241, size: 0x8, addend: 0x0, symName: __ZNSt3__16vectorIfNS_9allocatorIfEEE16__destroy_vectorclB8ue170006Ev, symObjAddr: 0xA238, symBinAddr: 0x100011B78, symSize: 0x90 }
  - { offsetInCU: 0x7405D, offset: 0x81266, size: 0x8, addend: 0x0, symName: __ZNSt3__16vectorIfNS_9allocatorIfEEE7__clearB8ue170006Ev, symObjAddr: 0xA2C8, symBinAddr: 0x100011C08, symSize: 0x28 }
  - { offsetInCU: 0x74082, offset: 0x8128B, size: 0x8, addend: 0x0, symName: __ZNKSt3__16vectorIfNS_9allocatorIfEEE17__annotate_deleteB8ue170006Ev, symObjAddr: 0xA2F0, symBinAddr: 0x100011C30, symSize: 0xB8 }
  - { offsetInCU: 0x740A7, offset: 0x812B0, size: 0x8, addend: 0x0, symName: __ZNSt3__116allocator_traitsINS_9allocatorIfEEE10deallocateB8ue170006ERS2_Pfm, symObjAddr: 0xA3A8, symBinAddr: 0x100011CE8, symSize: 0x34 }
  - { offsetInCU: 0x740E9, offset: 0x812F2, size: 0x8, addend: 0x0, symName: __ZNSt3__16vectorIfNS_9allocatorIfEEE22__base_destruct_at_endB8ue170006EPf, symObjAddr: 0xA3DC, symBinAddr: 0x100011D1C, symSize: 0x8C }
  - { offsetInCU: 0x7412C, offset: 0x81335, size: 0x8, addend: 0x0, symName: __ZNSt3__116allocator_traitsINS_9allocatorIfEEE7destroyB8ue170006IfvEEvRS2_PT_, symObjAddr: 0xA468, symBinAddr: 0x100011DA8, symSize: 0x2C }
  - { offsetInCU: 0x74169, offset: 0x81372, size: 0x8, addend: 0x0, symName: __ZNSt3__19allocatorIfE7destroyB8ue170006EPf, symObjAddr: 0xA494, symBinAddr: 0x100011DD4, symSize: 0x14 }
  - { offsetInCU: 0x7419C, offset: 0x813A5, size: 0x8, addend: 0x0, symName: __ZNSt3__19allocatorIfE10deallocateB8ue170006EPfm, symObjAddr: 0xA4A8, symBinAddr: 0x100011DE8, symSize: 0x40 }
  - { offsetInCU: 0x741DD, offset: 0x813E6, size: 0x8, addend: 0x0, symName: __ZNSt3__16vectorIfNS_9allocatorIfEEED2B8ue170006Ev, symObjAddr: 0xA4E8, symBinAddr: 0x100011E28, symSize: 0x40 }
  - { offsetInCU: 0x74206, offset: 0x8140F, size: 0x8, addend: 0x0, symName: __ZN4CGAL2IO8internal11OBJ_builderINS_12Surface_meshINS_7Point_3INS_16Simple_cartesianIdEEEEEES7_EC1ERNSt3__113basic_istreamIcNSA_11char_traitsIcEEEE, symObjAddr: 0xA528, symBinAddr: 0x100011E68, symSize: 0x34 }
  - { offsetInCU: 0x74247, offset: 0x81450, size: 0x8, addend: 0x0, symName: __ZN4CGAL2IO8internal25Generic_facegraph_builderINS_12Surface_meshINS_7Point_3INS_16Simple_cartesianIdEEEEEES7_NS1_11OBJ_builderIS8_S7_EEEclINS_25Named_function_parametersIbNS_11internal_np13all_default_tENSE_11No_propertyEEEEEbRS8_RKT_, symObjAddr: 0xA55C, symBinAddr: 0x100011E9C, symSize: 0x6DC }
  - { offsetInCU: 0x744A7, offset: 0x816B0, size: 0x8, addend: 0x0, symName: __ZN4CGAL2IO8internal11OBJ_builderINS_12Surface_meshINS_7Point_3INS_16Simple_cartesianIdEEEEEES7_ED1Ev, symObjAddr: 0xAC38, symBinAddr: 0x100012578, symSize: 0x2C }
  - { offsetInCU: 0x744D1, offset: 0x816DA, size: 0x8, addend: 0x0, symName: __ZN4CGAL2IO8internal11OBJ_builderINS_12Surface_meshINS_7Point_3INS_16Simple_cartesianIdEEEEEES7_EC2ERNSt3__113basic_istreamIcNSA_11char_traitsIcEEEE, symObjAddr: 0xAC64, symBinAddr: 0x1000125A4, symSize: 0x34 }
  - { offsetInCU: 0x74508, offset: 0x81711, size: 0x8, addend: 0x0, symName: __ZN4CGAL2IO8internal25Generic_facegraph_builderINS_12Surface_meshINS_7Point_3INS_16Simple_cartesianIdEEEEEES7_NS1_11OBJ_builderIS8_S7_EEEC2ERNSt3__113basic_istreamIcNSC_11char_traitsIcEEEE, symObjAddr: 0xAC98, symBinAddr: 0x1000125D8, symSize: 0x48 }
  - { offsetInCU: 0x7453F, offset: 0x81748, size: 0x8, addend: 0x0, symName: __ZNSt3__16vectorIN4CGAL7Point_3INS1_16Simple_cartesianIdEEEENS_9allocatorIS5_EEEC1B8ue170006Ev, symObjAddr: 0xACE0, symBinAddr: 0x100012620, symSize: 0x2C }
  - { offsetInCU: 0x74568, offset: 0x81771, size: 0x8, addend: 0x0, symName: __ZNSt3__16vectorINS0_ImNS_9allocatorImEEEENS1_IS3_EEEC1B8ue170006Ev, symObjAddr: 0xAD0C, symBinAddr: 0x10001264C, symSize: 0x2C }
  - { offsetInCU: 0x74591, offset: 0x8179A, size: 0x8, addend: 0x0, symName: __ZNSt3__16vectorIN4CGAL7Point_3INS1_16Simple_cartesianIdEEEENS_9allocatorIS5_EEEC2B8ue170006Ev, symObjAddr: 0xAD38, symBinAddr: 0x100012678, symSize: 0x4C }
  - { offsetInCU: 0x745BA, offset: 0x817C3, size: 0x8, addend: 0x0, symName: __ZNSt3__117__compressed_pairIPN4CGAL7Point_3INS1_16Simple_cartesianIdEEEENS_9allocatorIS5_EEEC1B8ue170006IDnNS_18__default_init_tagEEEOT_OT0_, symObjAddr: 0xAD84, symBinAddr: 0x1000126C4, symSize: 0x3C }
  - { offsetInCU: 0x74611, offset: 0x8181A, size: 0x8, addend: 0x0, symName: __ZNSt3__117__compressed_pairIPN4CGAL7Point_3INS1_16Simple_cartesianIdEEEENS_9allocatorIS5_EEEC2B8ue170006IDnNS_18__default_init_tagEEEOT_OT0_, symObjAddr: 0xADC0, symBinAddr: 0x100012700, symSize: 0x40 }
  - { offsetInCU: 0x74668, offset: 0x81871, size: 0x8, addend: 0x0, symName: __ZNSt3__122__compressed_pair_elemIPN4CGAL7Point_3INS1_16Simple_cartesianIdEEEELi0ELb0EEC2B8ue170006IDnvEEOT_, symObjAddr: 0xAE00, symBinAddr: 0x100012740, symSize: 0x1C }
  - { offsetInCU: 0x746A9, offset: 0x818B2, size: 0x8, addend: 0x0, symName: __ZNSt3__122__compressed_pair_elemINS_9allocatorIN4CGAL7Point_3INS2_16Simple_cartesianIdEEEEEELi1ELb1EEC2B8ue170006ENS_18__default_init_tagE, symObjAddr: 0xAE1C, symBinAddr: 0x10001275C, symSize: 0x2C }
  - { offsetInCU: 0x746DC, offset: 0x818E5, size: 0x8, addend: 0x0, symName: __ZNSt3__19allocatorIN4CGAL7Point_3INS1_16Simple_cartesianIdEEEEEC2B8ue170006Ev, symObjAddr: 0xAE48, symBinAddr: 0x100012788, symSize: 0x2C }
  - { offsetInCU: 0x74705, offset: 0x8190E, size: 0x8, addend: 0x0, symName: __ZNSt3__116__non_trivial_ifILb1ENS_9allocatorIN4CGAL7Point_3INS2_16Simple_cartesianIdEEEEEEEC2B8ue170006Ev, symObjAddr: 0xAE74, symBinAddr: 0x1000127B4, symSize: 0x14 }
  - { offsetInCU: 0x7472E, offset: 0x81937, size: 0x8, addend: 0x0, symName: __ZNSt3__16vectorINS0_ImNS_9allocatorImEEEENS1_IS3_EEEC2B8ue170006Ev, symObjAddr: 0xAE88, symBinAddr: 0x1000127C8, symSize: 0x4C }
  - { offsetInCU: 0x74757, offset: 0x81960, size: 0x8, addend: 0x0, symName: __ZNSt3__117__compressed_pairIPNS_6vectorImNS_9allocatorImEEEENS2_IS4_EEEC1B8ue170006IDnNS_18__default_init_tagEEEOT_OT0_, symObjAddr: 0xAED4, symBinAddr: 0x100012814, symSize: 0x3C }
  - { offsetInCU: 0x747AE, offset: 0x819B7, size: 0x8, addend: 0x0, symName: __ZNSt3__117__compressed_pairIPNS_6vectorImNS_9allocatorImEEEENS2_IS4_EEEC2B8ue170006IDnNS_18__default_init_tagEEEOT_OT0_, symObjAddr: 0xAF10, symBinAddr: 0x100012850, symSize: 0x40 }
  - { offsetInCU: 0x74805, offset: 0x81A0E, size: 0x8, addend: 0x0, symName: __ZNSt3__122__compressed_pair_elemIPNS_6vectorImNS_9allocatorImEEEELi0ELb0EEC2B8ue170006IDnvEEOT_, symObjAddr: 0xAF50, symBinAddr: 0x100012890, symSize: 0x1C }
  - { offsetInCU: 0x74846, offset: 0x81A4F, size: 0x8, addend: 0x0, symName: __ZNSt3__122__compressed_pair_elemINS_9allocatorINS_6vectorImNS1_ImEEEEEELi1ELb1EEC2B8ue170006ENS_18__default_init_tagE, symObjAddr: 0xAF6C, symBinAddr: 0x1000128AC, symSize: 0x2C }
  - { offsetInCU: 0x74879, offset: 0x81A82, size: 0x8, addend: 0x0, symName: __ZNSt3__19allocatorINS_6vectorImNS0_ImEEEEEC2B8ue170006Ev, symObjAddr: 0xAF98, symBinAddr: 0x1000128D8, symSize: 0x2C }
  - { offsetInCU: 0x748A2, offset: 0x81AAB, size: 0x8, addend: 0x0, symName: __ZNSt3__116__non_trivial_ifILb1ENS_9allocatorINS_6vectorImNS1_ImEEEEEEEC2B8ue170006Ev, symObjAddr: 0xAFC4, symBinAddr: 0x100012904, symSize: 0x14 }
  - { offsetInCU: 0x748CB, offset: 0x81AD4, size: 0x8, addend: 0x0, symName: __ZNSt3__16vectorIN4CGAL8Vector_3INS1_16Simple_cartesianIdEEEENS_9allocatorIS5_EEEC1B8ue170006Ev, symObjAddr: 0xAFD8, symBinAddr: 0x100012918, symSize: 0x2C }
  - { offsetInCU: 0x748F4, offset: 0x81AFD, size: 0x8, addend: 0x0, symName: __ZNSt3__16vectorIN4CGAL2IO5ColorENS_9allocatorIS3_EEEC1B8ue170006Ev, symObjAddr: 0xB004, symBinAddr: 0x100012944, symSize: 0x2C }
  - { offsetInCU: 0x7491D, offset: 0x81B26, size: 0x8, addend: 0x0, symName: __ZNSt3__16vectorIN4CGAL7Point_2INS1_16Simple_cartesianIdEEEENS_9allocatorIS5_EEEC1B8ue170006Ev, symObjAddr: 0xB030, symBinAddr: 0x100012970, symSize: 0x2C }
  - { offsetInCU: 0x749C8, offset: 0x81BD1, size: 0x8, addend: 0x0, symName: __ZN4CGAL2IO8internal11OBJ_builderINS_12Surface_meshINS_7Point_3INS_16Simple_cartesianIdEEEEEES7_E4readINS_25Named_function_parametersIbNS_11internal_np17use_binary_mode_tENSB_IbNSC_9verbose_tENSB_INSt3__120back_insert_iteratorINSF_6vectorINS0_5ColorENSF_9allocatorISI_EEEEEENSC_28face_color_output_iterator_tENSB_INSG_INSH_INS_7Point_2IS6_EENSJ_ISP_EEEEEENSC_32vertex_texture_output_iterator_tENSB_ISM_NSC_30vertex_color_output_iterator_tENSB_INSG_INSH_INS_8Vector_3IS6_EENSJ_ISW_EEEEEENSC_31vertex_normal_output_iterator_tENSC_11No_propertyEEEEEEEEEEEEEEEbRNSF_13basic_istreamIcNSF_11char_traitsIcEEEERNSH_IS7_NSJ_IS7_EEEERNSH_INSH_ImNSJ_ImEEEENSJ_IS1H_EEEERKT_, symObjAddr: 0xB0D4, symBinAddr: 0x100012A14, symSize: 0x48 }
  - { offsetInCU: 0x74A33, offset: 0x81C3C, size: 0x8, addend: 0x0, symName: __ZNK4CGAL25Named_function_parametersINSt3__120back_insert_iteratorINS1_6vectorINS_8Vector_3INS_16Simple_cartesianIdEEEENS1_9allocatorIS7_EEEEEENS_11internal_np31vertex_normal_output_iterator_tENSC_11No_propertyEE28vertex_color_output_iteratorINS2_INS3_INS_2IO5ColorENS8_ISI_EEEEEEEENS0_IT_NSC_30vertex_color_output_iterator_tESF_EERKSM_, symObjAddr: 0xB174, symBinAddr: 0x100012AB4, symSize: 0x38 }
  - { offsetInCU: 0x74A74, offset: 0x81C7D, size: 0x8, addend: 0x0, symName: __ZNK4CGAL25Named_function_parametersINSt3__120back_insert_iteratorINS1_6vectorINS_2IO5ColorENS1_9allocatorIS5_EEEEEENS_11internal_np30vertex_color_output_iterator_tENS0_INS2_INS3_INS_8Vector_3INS_16Simple_cartesianIdEEEENS6_ISF_EEEEEENSA_31vertex_normal_output_iterator_tENSA_11No_propertyEEEE30vertex_texture_output_iteratorINS2_INS3_INS_7Point_2ISE_EENS6_ISP_EEEEEEEENS0_IT_NSA_32vertex_texture_output_iterator_tESM_EERKST_, symObjAddr: 0xB1D8, symBinAddr: 0x100012B18, symSize: 0x38 }
  - { offsetInCU: 0x74AB5, offset: 0x81CBE, size: 0x8, addend: 0x0, symName: __ZNK4CGAL25Named_function_parametersINSt3__120back_insert_iteratorINS1_6vectorINS_7Point_2INS_16Simple_cartesianIdEEEENS1_9allocatorIS7_EEEEEENS_11internal_np32vertex_texture_output_iterator_tENS0_INS2_INS3_INS_2IO5ColorENS8_ISF_EEEEEENSC_30vertex_color_output_iterator_tENS0_INS2_INS3_INS_8Vector_3IS6_EENS8_ISL_EEEEEENSC_31vertex_normal_output_iterator_tENSC_11No_propertyEEEEEE26face_color_output_iteratorISI_EENS0_IT_NSC_28face_color_output_iterator_tEST_EERKSV_, symObjAddr: 0xB23C, symBinAddr: 0x100012B7C, symSize: 0x38 }
  - { offsetInCU: 0x74AF6, offset: 0x81CFF, size: 0x8, addend: 0x0, symName: __ZNK4CGAL25Named_function_parametersINSt3__120back_insert_iteratorINS1_6vectorINS_2IO5ColorENS1_9allocatorIS5_EEEEEENS_11internal_np28face_color_output_iterator_tENS0_INS2_INS3_INS_7Point_2INS_16Simple_cartesianIdEEEENS6_ISF_EEEEEENSA_32vertex_texture_output_iterator_tENS0_IS9_NSA_30vertex_color_output_iterator_tENS0_INS2_INS3_INS_8Vector_3ISE_EENS6_ISM_EEEEEENSA_31vertex_normal_output_iterator_tENSA_11No_propertyEEEEEEEE7verboseIbEENS0_IT_NSA_9verbose_tESV_EERKSX_, symObjAddr: 0xB274, symBinAddr: 0x100012BB4, symSize: 0x38 }
  - { offsetInCU: 0x74B37, offset: 0x81D40, size: 0x8, addend: 0x0, symName: __ZNK4CGAL25Named_function_parametersIbNS_11internal_np9verbose_tENS0_INSt3__120back_insert_iteratorINS3_6vectorINS_2IO5ColorENS3_9allocatorIS7_EEEEEENS1_28face_color_output_iterator_tENS0_INS4_INS5_INS_7Point_2INS_16Simple_cartesianIdEEEENS8_ISG_EEEEEENS1_32vertex_texture_output_iterator_tENS0_ISB_NS1_30vertex_color_output_iterator_tENS0_INS4_INS5_INS_8Vector_3ISF_EENS8_ISN_EEEEEENS1_31vertex_normal_output_iterator_tENS1_11No_propertyEEEEEEEEEE15use_binary_modeIbEENS0_IT_NS1_17use_binary_mode_tESX_EERKSZ_, symObjAddr: 0xB2AC, symBinAddr: 0x100012BEC, symSize: 0x38 }
  - { offsetInCU: 0x74B73, offset: 0x81D7C, size: 0x8, addend: 0x0, symName: __ZN4CGAL8Vector_3INS_16Simple_cartesianIdEEEC1Ev, symObjAddr: 0xB3E4, symBinAddr: 0x100012D24, symSize: 0x2C }
  - { offsetInCU: 0x74BAB, offset: 0x81DB4, size: 0x8, addend: 0x0, symName: __ZN4CGAL21Constant_property_mapINS_15SM_Vertex_indexENS_8Vector_3INS_16Simple_cartesianIdEEEEEC1ERKS5_, symObjAddr: 0xB410, symBinAddr: 0x100012D50, symSize: 0x34 }
  - { offsetInCU: 0x74BE5, offset: 0x81DEE, size: 0x8, addend: 0x0, symName: __ZN4CGAL2IO5ColorC1Ev, symObjAddr: 0xB494, symBinAddr: 0x100012DD4, symSize: 0x2C }
  - { offsetInCU: 0x74C1D, offset: 0x81E26, size: 0x8, addend: 0x0, symName: __ZN4CGAL21Constant_property_mapINS_15SM_Vertex_indexENS_2IO5ColorEEC1ERKS3_, symObjAddr: 0xB4C0, symBinAddr: 0x100012E00, symSize: 0x34 }
  - { offsetInCU: 0x74C57, offset: 0x81E60, size: 0x8, addend: 0x0, symName: __ZN4CGAL7Point_2INS_16Simple_cartesianIdEEEC1Ev, symObjAddr: 0xB548, symBinAddr: 0x100012E88, symSize: 0x2C }
  - { offsetInCU: 0x74C8F, offset: 0x81E98, size: 0x8, addend: 0x0, symName: __ZN4CGAL21Constant_property_mapINS_15SM_Vertex_indexENS_7Point_2INS_16Simple_cartesianIdEEEEEC1ERKS5_, symObjAddr: 0xB574, symBinAddr: 0x100012EB4, symSize: 0x34 }
  - { offsetInCU: 0x74CD8, offset: 0x81EE1, size: 0x8, addend: 0x0, symName: __ZN4CGAL21Constant_property_mapINS_13SM_Face_indexENS_2IO5ColorEEC1ERKS3_, symObjAddr: 0xB5F8, symBinAddr: 0x100012F38, symSize: 0x34 }
  - { offsetInCU: 0x74D12, offset: 0x81F1B, size: 0x8, addend: 0x0, symName: __ZNKSt3__16vectorIN4CGAL7Point_3INS1_16Simple_cartesianIdEEEENS_9allocatorIS5_EEE4sizeB8ue170006Ev, symObjAddr: 0xB62C, symBinAddr: 0x100012F6C, symSize: 0x28 }
  - { offsetInCU: 0x74D37, offset: 0x81F40, size: 0x8, addend: 0x0, symName: __ZNSt3__16vectorIN4CGAL15SM_Vertex_indexENS_9allocatorIS2_EEEC1Em, symObjAddr: 0xB654, symBinAddr: 0x100012F94, symSize: 0x34 }
  - { offsetInCU: 0x74D71, offset: 0x81F7A, size: 0x8, addend: 0x0, symName: __ZNSt3__16vectorIN4CGAL7Point_3INS1_16Simple_cartesianIdEEEENS_9allocatorIS5_EEEixB8ue170006Em, symObjAddr: 0xB704, symBinAddr: 0x100013044, symSize: 0x2C }
  - { offsetInCU: 0x74DA7, offset: 0x81FB0, size: 0x8, addend: 0x0, symName: __ZNKSt3__16vectorINS0_ImNS_9allocatorImEEEENS1_IS3_EEE4sizeB8ue170006Ev, symObjAddr: 0xB730, symBinAddr: 0x100013070, symSize: 0x28 }
  - { offsetInCU: 0x74DCC, offset: 0x81FD5, size: 0x8, addend: 0x0, symName: __ZNSt3__16vectorINS0_ImNS_9allocatorImEEEENS1_IS3_EEEixB8ue170006Em, symObjAddr: 0xB758, symBinAddr: 0x100013098, symSize: 0x2C }
  - { offsetInCU: 0x74E02, offset: 0x8200B, size: 0x8, addend: 0x0, symName: __ZNKSt3__16vectorImNS_9allocatorImEEE4sizeB8ue170006Ev, symObjAddr: 0xB784, symBinAddr: 0x1000130C4, symSize: 0x28 }
  - { offsetInCU: 0x74E27, offset: 0x82030, size: 0x8, addend: 0x0, symName: __ZNKSt3__16vectorIN4CGAL15SM_Vertex_indexENS_9allocatorIS2_EEE4sizeB8ue170006Ev, symObjAddr: 0xB7AC, symBinAddr: 0x1000130EC, symSize: 0x28 }
  - { offsetInCU: 0x74E4C, offset: 0x82055, size: 0x8, addend: 0x0, symName: __ZNSt3__16vectorImNS_9allocatorImEEEixB8ue170006Em, symObjAddr: 0xB7D4, symBinAddr: 0x100013114, symSize: 0x24 }
  - { offsetInCU: 0x755A7, offset: 0x827B0, size: 0x8, addend: 0x0, symName: __ZNK4CGAL13SM_Face_indexeqERKS0_, symObjAddr: 0xE4A0, symBinAddr: 0x100015DE0, symSize: 0x30 }
  - { offsetInCU: 0x755DA, offset: 0x827E3, size: 0x8, addend: 0x0, symName: __ZN5boost12graph_traitsIN4CGAL12Surface_meshINS1_7Point_3INS1_16Simple_cartesianIdEEEEEEE9null_faceEv, symObjAddr: 0xE4D0, symBinAddr: 0x100015E10, symSize: 0x24 }
  - { offsetInCU: 0x755EE, offset: 0x827F7, size: 0x8, addend: 0x0, symName: __ZNSt3__16vectorIN4CGAL2IO5ColorENS_9allocatorIS3_EEED1B8ue170006Ev, symObjAddr: 0xE520, symBinAddr: 0x100015E60, symSize: 0x2C }
  - { offsetInCU: 0x75617, offset: 0x82820, size: 0x8, addend: 0x0, symName: __ZNSt3__16vectorIN4CGAL7Point_2INS1_16Simple_cartesianIdEEEENS_9allocatorIS5_EEED1B8ue170006Ev, symObjAddr: 0xE54C, symBinAddr: 0x100015E8C, symSize: 0x2C }
  - { offsetInCU: 0x75640, offset: 0x82849, size: 0x8, addend: 0x0, symName: __ZNSt3__16vectorIN4CGAL8Vector_3INS1_16Simple_cartesianIdEEEENS_9allocatorIS5_EEED1B8ue170006Ev, symObjAddr: 0xE578, symBinAddr: 0x100015EB8, symSize: 0x2C }
  - { offsetInCU: 0x75669, offset: 0x82872, size: 0x8, addend: 0x0, symName: __ZNSt3__16vectorIN4CGAL8Vector_3INS1_16Simple_cartesianIdEEEENS_9allocatorIS5_EEEC2B8ue170006Ev, symObjAddr: 0xE5A4, symBinAddr: 0x100015EE4, symSize: 0x4C }
  - { offsetInCU: 0x75692, offset: 0x8289B, size: 0x8, addend: 0x0, symName: __ZNSt3__117__compressed_pairIPN4CGAL8Vector_3INS1_16Simple_cartesianIdEEEENS_9allocatorIS5_EEEC1B8ue170006IDnNS_18__default_init_tagEEEOT_OT0_, symObjAddr: 0xE5F0, symBinAddr: 0x100015F30, symSize: 0x3C }
  - { offsetInCU: 0x756E9, offset: 0x828F2, size: 0x8, addend: 0x0, symName: __ZNSt3__117__compressed_pairIPN4CGAL8Vector_3INS1_16Simple_cartesianIdEEEENS_9allocatorIS5_EEEC2B8ue170006IDnNS_18__default_init_tagEEEOT_OT0_, symObjAddr: 0xE62C, symBinAddr: 0x100015F6C, symSize: 0x40 }
  - { offsetInCU: 0x75740, offset: 0x82949, size: 0x8, addend: 0x0, symName: __ZNSt3__122__compressed_pair_elemIPN4CGAL8Vector_3INS1_16Simple_cartesianIdEEEELi0ELb0EEC2B8ue170006IDnvEEOT_, symObjAddr: 0xE66C, symBinAddr: 0x100015FAC, symSize: 0x1C }
  - { offsetInCU: 0x75781, offset: 0x8298A, size: 0x8, addend: 0x0, symName: __ZNSt3__122__compressed_pair_elemINS_9allocatorIN4CGAL8Vector_3INS2_16Simple_cartesianIdEEEEEELi1ELb1EEC2B8ue170006ENS_18__default_init_tagE, symObjAddr: 0xE688, symBinAddr: 0x100015FC8, symSize: 0x2C }
  - { offsetInCU: 0x757B4, offset: 0x829BD, size: 0x8, addend: 0x0, symName: __ZNSt3__19allocatorIN4CGAL8Vector_3INS1_16Simple_cartesianIdEEEEEC2B8ue170006Ev, symObjAddr: 0xE6B4, symBinAddr: 0x100015FF4, symSize: 0x2C }
  - { offsetInCU: 0x757DD, offset: 0x829E6, size: 0x8, addend: 0x0, symName: __ZNSt3__116__non_trivial_ifILb1ENS_9allocatorIN4CGAL8Vector_3INS2_16Simple_cartesianIdEEEEEEEC2B8ue170006Ev, symObjAddr: 0xE6E0, symBinAddr: 0x100016020, symSize: 0x14 }
  - { offsetInCU: 0x75806, offset: 0x82A0F, size: 0x8, addend: 0x0, symName: __ZNSt3__16vectorIN4CGAL2IO5ColorENS_9allocatorIS3_EEEC2B8ue170006Ev, symObjAddr: 0xE6F4, symBinAddr: 0x100016034, symSize: 0x4C }
  - { offsetInCU: 0x7582F, offset: 0x82A38, size: 0x8, addend: 0x0, symName: __ZNSt3__117__compressed_pairIPN4CGAL2IO5ColorENS_9allocatorIS3_EEEC1B8ue170006IDnNS_18__default_init_tagEEEOT_OT0_, symObjAddr: 0xE740, symBinAddr: 0x100016080, symSize: 0x3C }
  - { offsetInCU: 0x75886, offset: 0x82A8F, size: 0x8, addend: 0x0, symName: __ZNSt3__117__compressed_pairIPN4CGAL2IO5ColorENS_9allocatorIS3_EEEC2B8ue170006IDnNS_18__default_init_tagEEEOT_OT0_, symObjAddr: 0xE77C, symBinAddr: 0x1000160BC, symSize: 0x40 }
  - { offsetInCU: 0x758DD, offset: 0x82AE6, size: 0x8, addend: 0x0, symName: __ZNSt3__122__compressed_pair_elemIPN4CGAL2IO5ColorELi0ELb0EEC2B8ue170006IDnvEEOT_, symObjAddr: 0xE7BC, symBinAddr: 0x1000160FC, symSize: 0x1C }
  - { offsetInCU: 0x7591E, offset: 0x82B27, size: 0x8, addend: 0x0, symName: __ZNSt3__122__compressed_pair_elemINS_9allocatorIN4CGAL2IO5ColorEEELi1ELb1EEC2B8ue170006ENS_18__default_init_tagE, symObjAddr: 0xE7D8, symBinAddr: 0x100016118, symSize: 0x2C }
  - { offsetInCU: 0x75951, offset: 0x82B5A, size: 0x8, addend: 0x0, symName: __ZNSt3__19allocatorIN4CGAL2IO5ColorEEC2B8ue170006Ev, symObjAddr: 0xE804, symBinAddr: 0x100016144, symSize: 0x2C }
  - { offsetInCU: 0x7597A, offset: 0x82B83, size: 0x8, addend: 0x0, symName: __ZNSt3__116__non_trivial_ifILb1ENS_9allocatorIN4CGAL2IO5ColorEEEEC2B8ue170006Ev, symObjAddr: 0xE830, symBinAddr: 0x100016170, symSize: 0x14 }
  - { offsetInCU: 0x759A3, offset: 0x82BAC, size: 0x8, addend: 0x0, symName: __ZNSt3__16vectorIN4CGAL7Point_2INS1_16Simple_cartesianIdEEEENS_9allocatorIS5_EEEC2B8ue170006Ev, symObjAddr: 0xE844, symBinAddr: 0x100016184, symSize: 0x4C }
  - { offsetInCU: 0x759CC, offset: 0x82BD5, size: 0x8, addend: 0x0, symName: __ZNSt3__117__compressed_pairIPN4CGAL7Point_2INS1_16Simple_cartesianIdEEEENS_9allocatorIS5_EEEC1B8ue170006IDnNS_18__default_init_tagEEEOT_OT0_, symObjAddr: 0xE890, symBinAddr: 0x1000161D0, symSize: 0x3C }
  - { offsetInCU: 0x75A23, offset: 0x82C2C, size: 0x8, addend: 0x0, symName: __ZNSt3__117__compressed_pairIPN4CGAL7Point_2INS1_16Simple_cartesianIdEEEENS_9allocatorIS5_EEEC2B8ue170006IDnNS_18__default_init_tagEEEOT_OT0_, symObjAddr: 0xE8CC, symBinAddr: 0x10001620C, symSize: 0x40 }
  - { offsetInCU: 0x75A7A, offset: 0x82C83, size: 0x8, addend: 0x0, symName: __ZNSt3__122__compressed_pair_elemIPN4CGAL7Point_2INS1_16Simple_cartesianIdEEEELi0ELb0EEC2B8ue170006IDnvEEOT_, symObjAddr: 0xE90C, symBinAddr: 0x10001624C, symSize: 0x1C }
  - { offsetInCU: 0x75ABB, offset: 0x82CC4, size: 0x8, addend: 0x0, symName: __ZNSt3__122__compressed_pair_elemINS_9allocatorIN4CGAL7Point_2INS2_16Simple_cartesianIdEEEEEELi1ELb1EEC2B8ue170006ENS_18__default_init_tagE, symObjAddr: 0xE928, symBinAddr: 0x100016268, symSize: 0x2C }
  - { offsetInCU: 0x75AEE, offset: 0x82CF7, size: 0x8, addend: 0x0, symName: __ZNSt3__19allocatorIN4CGAL7Point_2INS1_16Simple_cartesianIdEEEEEC2B8ue170006Ev, symObjAddr: 0xE954, symBinAddr: 0x100016294, symSize: 0x2C }
  - { offsetInCU: 0x75B17, offset: 0x82D20, size: 0x8, addend: 0x0, symName: __ZNSt3__116__non_trivial_ifILb1ENS_9allocatorIN4CGAL7Point_2INS2_16Simple_cartesianIdEEEEEEEC2B8ue170006Ev, symObjAddr: 0xE980, symBinAddr: 0x1000162C0, symSize: 0x14 }
  - { offsetInCU: 0x75B40, offset: 0x82D49, size: 0x8, addend: 0x0, symName: __ZNKSt3__19basic_iosIcNS_11char_traitsIcEEE4goodB8ue170006Ev, symObjAddr: 0xF9DC, symBinAddr: 0x10001731C, symSize: 0x28 }
  - { offsetInCU: 0x75B65, offset: 0x82D6E, size: 0x8, addend: 0x0, symName: __ZNSt3__112basic_stringIcNS_11char_traitsIcEENS_9allocatorIcEEEC1B8ue170006Ev, symObjAddr: 0xFA4C, symBinAddr: 0x10001738C, symSize: 0x2C }
  - { offsetInCU: 0x75B8E, offset: 0x82D97, size: 0x8, addend: 0x0, symName: __ZN4CGAL7Point_3INS_16Simple_cartesianIdEEEC1Ev, symObjAddr: 0xFA78, symBinAddr: 0x1000173B8, symSize: 0x2C }
  - { offsetInCU: 0x75BB7, offset: 0x82DC0, size: 0x8, addend: 0x0, symName: __ZNKSt3__19basic_iosIcNS_11char_traitsIcEEEcvbB8ue170006Ev, symObjAddr: 0xFB00, symBinAddr: 0x100017440, symSize: 0x2C }
  - { offsetInCU: 0x75BDC, offset: 0x82DE5, size: 0x8, addend: 0x0, symName: __ZNSt3__112basic_stringIcNS_11char_traitsIcEENS_9allocatorIcEEE6rbeginB8ue170006Ev, symObjAddr: 0xFBAC, symBinAddr: 0x1000174EC, symSize: 0x44 }
  - { offsetInCU: 0x75C01, offset: 0x82E0A, size: 0x8, addend: 0x0, symName: __ZNSt3__112basic_stringIcNS_11char_traitsIcEENS_9allocatorIcEEE4rendB8ue170006Ev, symObjAddr: 0xFBF0, symBinAddr: 0x100017530, symSize: 0x44 }
  - { offsetInCU: 0x75C26, offset: 0x82E2F, size: 0x8, addend: 0x0, symName: __ZNKSt3__116reverse_iteratorINS_11__wrap_iterIPcEEEdeB8ue170006Ev, symObjAddr: 0xFCDC, symBinAddr: 0x10001761C, symSize: 0x34 }
  - { offsetInCU: 0x75C59, offset: 0x82E62, size: 0x8, addend: 0x0, symName: __ZNKSt3__112basic_stringIcNS_11char_traitsIcEENS_9allocatorIcEEE6substrB8ue170006Emm, symObjAddr: 0xFD10, symBinAddr: 0x100017650, symSize: 0x68 }
  - { offsetInCU: 0x75C9C, offset: 0x82EA5, size: 0x8, addend: 0x0, symName: __ZNSt3__112basic_stringIcNS_11char_traitsIcEENS_9allocatorIcEEEaSB8ue170006EOS5_, symObjAddr: 0xFDC8, symBinAddr: 0x100017708, symSize: 0x34 }
  - { offsetInCU: 0x75CD0, offset: 0x82ED9, size: 0x8, addend: 0x0, symName: __ZNSt3__112basic_stringIcNS_11char_traitsIcEENS_9allocatorIcEEEpLB8ue170006ERKS5_, symObjAddr: 0xFDFC, symBinAddr: 0x10001773C, symSize: 0x2C }
  - { offsetInCU: 0x75D54, offset: 0x82F5D, size: 0x8, addend: 0x0, symName: __ZNSt3__119basic_istringstreamIcNS_11char_traitsIcEENS_9allocatorIcEEEC1B8ue170006ERKNS_12basic_stringIcS2_S4_EEj, symObjAddr: 0xFEA8, symBinAddr: 0x1000177E8, symSize: 0xFC }
  - { offsetInCU: 0x75D9F, offset: 0x82FA8, size: 0x8, addend: 0x0, symName: __ZNSt3__16vectorIN4CGAL7Point_3INS1_16Simple_cartesianIdEEEENS_9allocatorIS5_EEE9push_backB8ue170006ERKS5_, symObjAddr: 0x10388, symBinAddr: 0x100017CC8, symSize: 0x6C }
  - { offsetInCU: 0x75DD4, offset: 0x82FDD, size: 0x8, addend: 0x0, symName: __ZNSt3__16vectorINS0_ImNS_9allocatorImEEEENS1_IS3_EEE12emplace_backIJEEERS3_DpOT_, symObjAddr: 0x103F4, symBinAddr: 0x100017D34, symSize: 0x68 }
  - { offsetInCU: 0x75DFF, offset: 0x83008, size: 0x8, addend: 0x0, symName: __ZNSt3__16vectorINS0_ImNS_9allocatorImEEEENS1_IS3_EEE4backB8ue170006Ev, symObjAddr: 0x1045C, symBinAddr: 0x100017D9C, symSize: 0x1C }
  - { offsetInCU: 0x75E24, offset: 0x8302D, size: 0x8, addend: 0x0, symName: __ZNKSt3__19basic_iosIcNS_11char_traitsIcEEE3badB8ue170006Ev, symObjAddr: 0x104A8, symBinAddr: 0x100017DE8, symSize: 0x28 }
  - { offsetInCU: 0x75E49, offset: 0x83052, size: 0x8, addend: 0x0, symName: __ZNSt3__112basic_stringIcNS_11char_traitsIcEENS_9allocatorIcEEE5frontB8ue170006Ev, symObjAddr: 0x104D0, symBinAddr: 0x100017E10, symSize: 0x24 }
  - { offsetInCU: 0x75E73, offset: 0x8307C, size: 0x8, addend: 0x0, symName: __ZNSt3__119basic_istringstreamIcNS_11char_traitsIcEENS_9allocatorIcEEED1Ev, symObjAddr: 0x104F4, symBinAddr: 0x100017E34, symSize: 0x40 }
  - { offsetInCU: 0x75EA0, offset: 0x830A9, size: 0x8, addend: 0x0, symName: __ZNKSt3__16vectorIN4CGAL7Point_3INS1_16Simple_cartesianIdEEEENS_9allocatorIS5_EEE5emptyB8ue170006Ev, symObjAddr: 0x10534, symBinAddr: 0x100017E74, symSize: 0x28 }
  - { offsetInCU: 0x75EC5, offset: 0x830CE, size: 0x8, addend: 0x0, symName: __ZNKSt3__16vectorINS0_ImNS_9allocatorImEEEENS1_IS3_EEE5emptyB8ue170006Ev, symObjAddr: 0x1055C, symBinAddr: 0x100017E9C, symSize: 0x28 }
  - { offsetInCU: 0x75EEA, offset: 0x830F3, size: 0x8, addend: 0x0, symName: __ZNKSt3__18ios_base4goodB8ue170006Ev, symObjAddr: 0x10584, symBinAddr: 0x100017EC4, symSize: 0x24 }
  - { offsetInCU: 0x75F11, offset: 0x8311A, size: 0x8, addend: 0x0, symName: __ZNSt3__112basic_stringIcNS_11char_traitsIcEENS_9allocatorIcEEEC2B8ue170006Ev, symObjAddr: 0x10690, symBinAddr: 0x100017FD0, symSize: 0x44 }
  - { offsetInCU: 0x75F3A, offset: 0x83143, size: 0x8, addend: 0x0, symName: __ZN4CGAL7Point_3INS_16Simple_cartesianIdEEEC2Ev, symObjAddr: 0x106D4, symBinAddr: 0x100018014, symSize: 0x2C }
  - { offsetInCU: 0x75F63, offset: 0x8316C, size: 0x8, addend: 0x0, symName: __ZN4CGAL7PointC3INS_16Simple_cartesianIdEEEC2Ev, symObjAddr: 0x10700, symBinAddr: 0x100018040, symSize: 0x2C }
  - { offsetInCU: 0x75FA5, offset: 0x831AE, size: 0x8, addend: 0x0, symName: __ZNKSt3__113basic_istreamIcNS_11char_traitsIcEEE6sentrycvbB8ue170006Ev, symObjAddr: 0x10964, symBinAddr: 0x1000182A4, symSize: 0x1C }
  - { offsetInCU: 0x75FCA, offset: 0x831D3, size: 0x8, addend: 0x0, symName: __ZNSt3__112basic_stringIcNS_11char_traitsIcEENS_9allocatorIcEEE5clearB8ue170006Ev, symObjAddr: 0x10980, symBinAddr: 0x1000182C0, symSize: 0x78 }
  - { offsetInCU: 0x75FF0, offset: 0x831F9, size: 0x8, addend: 0x0, symName: __ZNSt3__115basic_streambufIcNS_11char_traitsIcEEE6sbumpcB8ue170006Ev, symObjAddr: 0x109F8, symBinAddr: 0x100018338, symSize: 0x78 }
  - { offsetInCU: 0x76015, offset: 0x8321E, size: 0x8, addend: 0x0, symName: __ZNSt3__111char_traitsIcE12to_char_typeB8ue170006Ei, symObjAddr: 0x10A70, symBinAddr: 0x1000183B0, symSize: 0x18 }
  - { offsetInCU: 0x76038, offset: 0x83241, size: 0x8, addend: 0x0, symName: __ZNSt3__111char_traitsIcE2eqEcc, symObjAddr: 0x10A88, symBinAddr: 0x1000183C8, symSize: 0x28 }
  - { offsetInCU: 0x76069, offset: 0x83272, size: 0x8, addend: 0x0, symName: __ZNKSt3__112basic_stringIcNS_11char_traitsIcEENS_9allocatorIcEEE8max_sizeB8ue170006Ev, symObjAddr: 0x10AB0, symBinAddr: 0x1000183F0, symSize: 0xAC }
  - { offsetInCU: 0x760BA, offset: 0x832C3, size: 0x8, addend: 0x0, symName: __ZNSt3__18ios_base18__setstate_nothrowB8ue170006Ej, symObjAddr: 0x10B5C, symBinAddr: 0x10001849C, symSize: 0x64 }
  - { offsetInCU: 0x760EE, offset: 0x832F7, size: 0x8, addend: 0x0, symName: __ZNKSt3__19basic_iosIcNS_11char_traitsIcEEE10exceptionsB8ue170006Ev, symObjAddr: 0x10BC0, symBinAddr: 0x100018500, symSize: 0x24 }
  - { offsetInCU: 0x76113, offset: 0x8331C, size: 0x8, addend: 0x0, symName: __ZNSt3__111char_traitsIcE6assignB8ue170006ERcRKc, symObjAddr: 0x10BE4, symBinAddr: 0x100018524, symSize: 0x24 }
  - { offsetInCU: 0x76144, offset: 0x8334D, size: 0x8, addend: 0x0, symName: __ZNSt3__112basic_stringIcNS_11char_traitsIcEENS_9allocatorIcEEE15__set_long_sizeB8ue170006Em, symObjAddr: 0x10C08, symBinAddr: 0x100018548, symSize: 0x38 }
  - { offsetInCU: 0x76178, offset: 0x83381, size: 0x8, addend: 0x0, symName: __ZNSt3__112basic_stringIcNS_11char_traitsIcEENS_9allocatorIcEEE16__set_short_sizeB8ue170006Em, symObjAddr: 0x10C40, symBinAddr: 0x100018580, symSize: 0x78 }
  - { offsetInCU: 0x761AC, offset: 0x833B5, size: 0x8, addend: 0x0, symName: __ZNSt3__111char_traitsIcE11to_int_typeB8ue170006Ec, symObjAddr: 0x10CB8, symBinAddr: 0x1000185F8, symSize: 0x14 }
  - { offsetInCU: 0x761DA, offset: 0x833E3, size: 0x8, addend: 0x0, symName: __ZNSt3__116allocator_traitsINS_9allocatorIcEEE8max_sizeB8ue170006IS2_vEEmRKS2_, symObjAddr: 0x10CCC, symBinAddr: 0x10001860C, symSize: 0x24 }
  - { offsetInCU: 0x76208, offset: 0x83411, size: 0x8, addend: 0x0, symName: __ZNKSt3__112basic_stringIcNS_11char_traitsIcEENS_9allocatorIcEEE7__allocB8ue170006Ev, symObjAddr: 0x10CF0, symBinAddr: 0x100018630, symSize: 0x24 }
  - { offsetInCU: 0x7622D, offset: 0x83436, size: 0x8, addend: 0x0, symName: __ZNKSt3__19allocatorIcE8max_sizeB8ue170006Ev, symObjAddr: 0x10D14, symBinAddr: 0x100018654, symSize: 0x14 }
  - { offsetInCU: 0x76252, offset: 0x8345B, size: 0x8, addend: 0x0, symName: __ZNKSt3__117__compressed_pairINS_12basic_stringIcNS_11char_traitsIcEENS_9allocatorIcEEE5__repES5_E6secondB8ue170006Ev, symObjAddr: 0x10D28, symBinAddr: 0x100018668, symSize: 0x24 }
  - { offsetInCU: 0x76277, offset: 0x83480, size: 0x8, addend: 0x0, symName: __ZNKSt3__122__compressed_pair_elemINS_9allocatorIcEELi1ELb1EE5__getB8ue170006Ev, symObjAddr: 0x10D4C, symBinAddr: 0x10001868C, symSize: 0x14 }
  - { offsetInCU: 0x7629C, offset: 0x834A5, size: 0x8, addend: 0x0, symName: __ZNKSt3__18ios_base10exceptionsB8ue170006Ev, symObjAddr: 0x10D60, symBinAddr: 0x1000186A0, symSize: 0x18 }
  - { offsetInCU: 0x762CD, offset: 0x834D6, size: 0x8, addend: 0x0, symName: __ZZN4CGAL2IO8internal8read_OBJINSt3__16vectorINS_7Point_3INS_16Simple_cartesianIdEEEENS3_9allocatorIS8_EEEENS4_INS4_ImNS9_ImEEEENS9_ISD_EEEENS_17Emptyset_iteratorESG_EEbRNS3_13basic_istreamIcNS3_11char_traitsIcEEEERT_RT0_T1_T2_bENKUlcE_clEc, symObjAddr: 0x10D78, symBinAddr: 0x1000186B8, symSize: 0x5C }
  - { offsetInCU: 0x76304, offset: 0x8350D, size: 0x8, addend: 0x0, symName: __ZNSt3__116reverse_iteratorINS_11__wrap_iterIPcEEEppB8ue170006Ev, symObjAddr: 0x10DD4, symBinAddr: 0x100018714, symSize: 0x30 }
  - { offsetInCU: 0x76328, offset: 0x83531, size: 0x8, addend: 0x0, symName: __Z8__istypeim, symObjAddr: 0x10E2C, symBinAddr: 0x10001876C, symSize: 0x8C }
  - { offsetInCU: 0x76362, offset: 0x8356B, size: 0x8, addend: 0x0, symName: __Z7isasciii, symObjAddr: 0x10EB8, symBinAddr: 0x1000187F8, symSize: 0x24 }
  - { offsetInCU: 0x7638F, offset: 0x83598, size: 0x8, addend: 0x0, symName: __ZNSt3__111__wrap_iterIPcEmmB8ue170006Ev, symObjAddr: 0x10EDC, symBinAddr: 0x10001881C, symSize: 0x20 }
  - { offsetInCU: 0x763B4, offset: 0x835BD, size: 0x8, addend: 0x0, symName: __ZNSt3__112basic_stringIcNS_11char_traitsIcEENS_9allocatorIcEEE3endB8ue170006Ev, symObjAddr: 0x10EFC, symBinAddr: 0x10001883C, symSize: 0x64 }
  - { offsetInCU: 0x763D9, offset: 0x835E2, size: 0x8, addend: 0x0, symName: __ZNSt3__116reverse_iteratorINS_11__wrap_iterIPcEEEC1B8ue170006ES3_, symObjAddr: 0x10F60, symBinAddr: 0x1000188A0, symSize: 0x34 }
  - { offsetInCU: 0x76410, offset: 0x83619, size: 0x8, addend: 0x0, symName: __ZNSt3__112basic_stringIcNS_11char_traitsIcEENS_9allocatorIcEEE15__make_iteratorB8ue170006EPc, symObjAddr: 0x10F94, symBinAddr: 0x1000188D4, symSize: 0x30 }
  - { offsetInCU: 0x76444, offset: 0x8364D, size: 0x8, addend: 0x0, symName: __ZNSt3__111__wrap_iterIPcEC1B8ue170006ES1_, symObjAddr: 0x10FC4, symBinAddr: 0x100018904, symSize: 0x34 }
  - { offsetInCU: 0x7647B, offset: 0x83684, size: 0x8, addend: 0x0, symName: __ZNSt3__111__wrap_iterIPcEC2B8ue170006ES1_, symObjAddr: 0x10FF8, symBinAddr: 0x100018938, symSize: 0x20 }
  - { offsetInCU: 0x764B2, offset: 0x836BB, size: 0x8, addend: 0x0, symName: __ZNSt3__116reverse_iteratorINS_11__wrap_iterIPcEEEC2B8ue170006ES3_, symObjAddr: 0x11018, symBinAddr: 0x100018958, symSize: 0x28 }
  - { offsetInCU: 0x764E9, offset: 0x836F2, size: 0x8, addend: 0x0, symName: __ZNSt3__112basic_stringIcNS_11char_traitsIcEENS_9allocatorIcEEE5beginB8ue170006Ev, symObjAddr: 0x11040, symBinAddr: 0x100018980, symSize: 0x3C }
  - { offsetInCU: 0x7650E, offset: 0x83717, size: 0x8, addend: 0x0, symName: __ZNKSt3__116reverse_iteratorINS_11__wrap_iterIPcEEE4baseB8ue170006Ev, symObjAddr: 0x110C4, symBinAddr: 0x100018A04, symSize: 0x20 }
  - { offsetInCU: 0x76533, offset: 0x8373C, size: 0x8, addend: 0x0, symName: __ZNKSt3__111__wrap_iterIPcE4baseB8ue170006Ev, symObjAddr: 0x110E4, symBinAddr: 0x100018A24, symSize: 0x18 }
  - { offsetInCU: 0x76558, offset: 0x83761, size: 0x8, addend: 0x0, symName: __ZNKSt3__111__wrap_iterIPcEdeB8ue170006Ev, symObjAddr: 0x11130, symBinAddr: 0x100018A70, symSize: 0x18 }
  - { offsetInCU: 0x7657D, offset: 0x83786, size: 0x8, addend: 0x0, symName: __ZNSt3__19allocatorIcEC1B8ue170006Ev, symObjAddr: 0x11148, symBinAddr: 0x100018A88, symSize: 0x2C }
  - { offsetInCU: 0x765A6, offset: 0x837AF, size: 0x8, addend: 0x0, symName: __ZNSt3__112basic_stringIcNS_11char_traitsIcEENS_9allocatorIcEEE13__move_assignB8ue170006ERS5_NS_17integral_constantIbLb1EEE, symObjAddr: 0x111B4, symBinAddr: 0x100018AF4, symSize: 0xC8 }
  - { offsetInCU: 0x765E6, offset: 0x837EF, size: 0x8, addend: 0x0, symName: __ZNSt3__116allocator_traitsINS_9allocatorIcEEE10deallocateB8ue170006ERS2_Pcm, symObjAddr: 0x1127C, symBinAddr: 0x100018BBC, symSize: 0x34 }
  - { offsetInCU: 0x76628, offset: 0x83831, size: 0x8, addend: 0x0, symName: __ZNSt3__112basic_stringIcNS_11char_traitsIcEENS_9allocatorIcEEE7__allocB8ue170006Ev, symObjAddr: 0x112B0, symBinAddr: 0x100018BF0, symSize: 0x24 }
  - { offsetInCU: 0x7664D, offset: 0x83856, size: 0x8, addend: 0x0, symName: __ZNKSt3__112basic_stringIcNS_11char_traitsIcEENS_9allocatorIcEEE14__get_long_capB8ue170006Ev, symObjAddr: 0x112D4, symBinAddr: 0x100018C14, symSize: 0x30 }
  - { offsetInCU: 0x76672, offset: 0x8387B, size: 0x8, addend: 0x0, symName: __ZNSt3__112basic_stringIcNS_11char_traitsIcEENS_9allocatorIcEEE19__move_assign_allocB8ue170006ERS5_, symObjAddr: 0x11304, symBinAddr: 0x100018C44, symSize: 0x2C }
  - { offsetInCU: 0x766A6, offset: 0x838AF, size: 0x8, addend: 0x0, symName: __ZNSt3__19allocatorIcE10deallocateB8ue170006EPcm, symObjAddr: 0x11330, symBinAddr: 0x100018C70, symSize: 0x40 }
  - { offsetInCU: 0x766E7, offset: 0x838F0, size: 0x8, addend: 0x0, symName: __ZNSt3__117__compressed_pairINS_12basic_stringIcNS_11char_traitsIcEENS_9allocatorIcEEE5__repES5_E6secondB8ue170006Ev, symObjAddr: 0x11370, symBinAddr: 0x100018CB0, symSize: 0x24 }
  - { offsetInCU: 0x7670C, offset: 0x83915, size: 0x8, addend: 0x0, symName: __ZNSt3__122__compressed_pair_elemINS_9allocatorIcEELi1ELb1EE5__getB8ue170006Ev, symObjAddr: 0x11394, symBinAddr: 0x100018CD4, symSize: 0x14 }
  - { offsetInCU: 0x76731, offset: 0x8393A, size: 0x8, addend: 0x0, symName: __ZNSt3__112basic_stringIcNS_11char_traitsIcEENS_9allocatorIcEEE19__move_assign_allocB8ue170006ERS5_NS_17integral_constantIbLb1EEE, symObjAddr: 0x113A8, symBinAddr: 0x100018CE8, symSize: 0x38 }
  - { offsetInCU: 0x7677A, offset: 0x83983, size: 0x8, addend: 0x0, symName: __ZZN4CGAL2IO8internal8read_OBJINSt3__16vectorINS_7Point_3INS_16Simple_cartesianIdEEEENS3_9allocatorIS8_EEEENS4_INS4_ImNS9_ImEEEENS9_ISD_EEEENS_17Emptyset_iteratorESG_EEbRNS3_13basic_istreamIcNS3_11char_traitsIcEEEERT_RT0_T1_T2_bENKUlcE0_clEc, symObjAddr: 0x113E0, symBinAddr: 0x100018D20, symSize: 0x5C }
  - { offsetInCU: 0x767B1, offset: 0x839BA, size: 0x8, addend: 0x0, symName: __ZNSt3__115basic_stringbufIcNS_11char_traitsIcEENS_9allocatorIcEEEC1B8ue170006ERKNS_12basic_stringIcS2_S4_EEj, symObjAddr: 0x1143C, symBinAddr: 0x100018D7C, symSize: 0x3C }
  - { offsetInCU: 0x767FC, offset: 0x83A05, size: 0x8, addend: 0x0, symName: __ZNSt3__115basic_stringbufIcNS_11char_traitsIcEENS_9allocatorIcEEEC2B8ue170006ERKNS_12basic_stringIcS2_S4_EEj, symObjAddr: 0x11478, symBinAddr: 0x100018DB8, symSize: 0xB4 }
  - { offsetInCU: 0x76847, offset: 0x83A50, size: 0x8, addend: 0x0, symName: __ZNKSt3__112basic_stringIcNS_11char_traitsIcEENS_9allocatorIcEEE13get_allocatorB8ue170006Ev, symObjAddr: 0x1152C, symBinAddr: 0x100018E6C, symSize: 0x24 }
  - { offsetInCU: 0x7686C, offset: 0x83A75, size: 0x8, addend: 0x0, symName: __ZNSt3__112basic_stringIcNS_11char_traitsIcEENS_9allocatorIcEEEC1B8ue170006ERKS4_, symObjAddr: 0x11550, symBinAddr: 0x100018E90, symSize: 0x34 }
  - { offsetInCU: 0x768A4, offset: 0x83AAD, size: 0x8, addend: 0x0, symName: __ZNSt3__112basic_stringIcNS_11char_traitsIcEENS_9allocatorIcEEEC2B8ue170006ERKS4_, symObjAddr: 0x11584, symBinAddr: 0x100018EC4, symSize: 0x48 }
  - { offsetInCU: 0x768DC, offset: 0x83AE5, size: 0x8, addend: 0x0, symName: __ZNSt3__117__compressed_pairINS_12basic_stringIcNS_11char_traitsIcEENS_9allocatorIcEEE5__repES5_EC1B8ue170006INS_18__default_init_tagERKS5_EEOT_OT0_, symObjAddr: 0x115CC, symBinAddr: 0x100018F0C, symSize: 0x3C }
  - { offsetInCU: 0x76933, offset: 0x83B3C, size: 0x8, addend: 0x0, symName: __ZNSt3__117__compressed_pairINS_12basic_stringIcNS_11char_traitsIcEENS_9allocatorIcEEE5__repES5_EC2B8ue170006INS_18__default_init_tagERKS5_EEOT_OT0_, symObjAddr: 0x11608, symBinAddr: 0x100018F48, symSize: 0x40 }
  - { offsetInCU: 0x7698A, offset: 0x83B93, size: 0x8, addend: 0x0, symName: __ZNSt3__122__compressed_pair_elemINS_9allocatorIcEELi1ELb1EEC2B8ue170006IRKS2_vEEOT_, symObjAddr: 0x11648, symBinAddr: 0x100018F88, symSize: 0x18 }
  - { offsetInCU: 0x769CB, offset: 0x83BD4, size: 0x8, addend: 0x0, symName: __ZNSt3__115basic_streambufIcNS_11char_traitsIcEEE5sgetcB8ue170006Ev, symObjAddr: 0x11660, symBinAddr: 0x100018FA0, symSize: 0x70 }
  - { offsetInCU: 0x769F0, offset: 0x83BF9, size: 0x8, addend: 0x0, symName: __ZNKSt3__15ctypeIcE2isB8ue170006Ejc, symObjAddr: 0x116D0, symBinAddr: 0x100019010, symSize: 0x7C }
  - { offsetInCU: 0x76A33, offset: 0x83C3C, size: 0x8, addend: 0x0, symName: __ZNK4CGAL9Input_repIdEclERNSt3__113basic_istreamIcNS2_11char_traitsIcEEEE, symObjAddr: 0x11980, symBinAddr: 0x1000192C0, symSize: 0x30 }
  - { offsetInCU: 0x76A66, offset: 0x83C6F, size: 0x8, addend: 0x0, symName: __ZN4CGAL9Input_repIdEC1ERd, symObjAddr: 0x119B0, symBinAddr: 0x1000192F0, symSize: 0x34 }
  - { offsetInCU: 0x76A9D, offset: 0x83CA6, size: 0x8, addend: 0x0, symName: __ZN4CGAL9Input_repIdEC2ERd, symObjAddr: 0x119E4, symBinAddr: 0x100019324, symSize: 0x20 }
  - { offsetInCU: 0x76AD4, offset: 0x83CDD, size: 0x8, addend: 0x0, symName: __ZNSt3__16vectorIN4CGAL7Point_3INS1_16Simple_cartesianIdEEEENS_9allocatorIS5_EEE9__end_capB8ue170006Ev, symObjAddr: 0x11A38, symBinAddr: 0x100019378, symSize: 0x28 }
  - { offsetInCU: 0x76AF9, offset: 0x83D02, size: 0x8, addend: 0x0, symName: __ZNSt3__16vectorIN4CGAL7Point_3INS1_16Simple_cartesianIdEEEENS_9allocatorIS5_EEE22__construct_one_at_endB8ue170006IJRKS5_EEEvDpOT_, symObjAddr: 0x11A60, symBinAddr: 0x1000193A0, symSize: 0x90 }
  - { offsetInCU: 0x76B47, offset: 0x83D50, size: 0x8, addend: 0x0, symName: __ZNSt3__16vectorIN4CGAL7Point_3INS1_16Simple_cartesianIdEEEENS_9allocatorIS5_EEE21__push_back_slow_pathIRKS5_EEvOT_, symObjAddr: 0x11AF0, symBinAddr: 0x100019430, symSize: 0xD8 }
  - { offsetInCU: 0x76BA3, offset: 0x83DAC, size: 0x8, addend: 0x0, symName: __ZNSt3__117__compressed_pairIPN4CGAL7Point_3INS1_16Simple_cartesianIdEEEENS_9allocatorIS5_EEE5firstB8ue170006Ev, symObjAddr: 0x11BC8, symBinAddr: 0x100019508, symSize: 0x24 }
  - { offsetInCU: 0x76BC8, offset: 0x83DD1, size: 0x8, addend: 0x0, symName: __ZNSt3__122__compressed_pair_elemIPN4CGAL7Point_3INS1_16Simple_cartesianIdEEEELi0ELb0EE5__getB8ue170006Ev, symObjAddr: 0x11BEC, symBinAddr: 0x10001952C, symSize: 0x14 }
  - { offsetInCU: 0x76C06, offset: 0x83E0F, size: 0x8, addend: 0x0, symName: __ZNSt3__16vectorIN4CGAL7Point_3INS1_16Simple_cartesianIdEEEENS_9allocatorIS5_EEE21_ConstructTransactionC1B8ue170006ERS8_m, symObjAddr: 0x11C00, symBinAddr: 0x100019540, symSize: 0x3C }
  - { offsetInCU: 0x76C4D, offset: 0x83E56, size: 0x8, addend: 0x0, symName: __ZNSt3__116allocator_traitsINS_9allocatorIN4CGAL7Point_3INS2_16Simple_cartesianIdEEEEEEE9constructB8ue170006IS6_JRKS6_EvEEvRS7_PT_DpOT0_, symObjAddr: 0x11C3C, symBinAddr: 0x10001957C, symSize: 0x34 }
  - { offsetInCU: 0x76CA4, offset: 0x83EAD, size: 0x8, addend: 0x0, symName: __ZNSt3__16vectorIN4CGAL7Point_3INS1_16Simple_cartesianIdEEEENS_9allocatorIS5_EEE7__allocB8ue170006Ev, symObjAddr: 0x11C70, symBinAddr: 0x1000195B0, symSize: 0x28 }
  - { offsetInCU: 0x76CC9, offset: 0x83ED2, size: 0x8, addend: 0x0, symName: __ZNSt3__16vectorIN4CGAL7Point_3INS1_16Simple_cartesianIdEEEENS_9allocatorIS5_EEE21_ConstructTransactionD1B8ue170006Ev, symObjAddr: 0x11CAC, symBinAddr: 0x1000195EC, symSize: 0x2C }
  - { offsetInCU: 0x76CF2, offset: 0x83EFB, size: 0x8, addend: 0x0, symName: __ZNSt3__16vectorIN4CGAL7Point_3INS1_16Simple_cartesianIdEEEENS_9allocatorIS5_EEE21_ConstructTransactionC2B8ue170006ERS8_m, symObjAddr: 0x11CD8, symBinAddr: 0x100019618, symSize: 0x4C }
  - { offsetInCU: 0x76D39, offset: 0x83F42, size: 0x8, addend: 0x0, symName: __ZNSt3__19allocatorIN4CGAL7Point_3INS1_16Simple_cartesianIdEEEEE9constructB8ue170006IS5_JRKS5_EEEvPT_DpOT0_, symObjAddr: 0x11D24, symBinAddr: 0x100019664, symSize: 0x30 }
  - { offsetInCU: 0x76D8E, offset: 0x83F97, size: 0x8, addend: 0x0, symName: __ZNSt3__117__compressed_pairIPN4CGAL7Point_3INS1_16Simple_cartesianIdEEEENS_9allocatorIS5_EEE6secondB8ue170006Ev, symObjAddr: 0x11D54, symBinAddr: 0x100019694, symSize: 0x24 }
  - { offsetInCU: 0x76DB3, offset: 0x83FBC, size: 0x8, addend: 0x0, symName: __ZNSt3__122__compressed_pair_elemINS_9allocatorIN4CGAL7Point_3INS2_16Simple_cartesianIdEEEEEELi1ELb1EE5__getB8ue170006Ev, symObjAddr: 0x11D78, symBinAddr: 0x1000196B8, symSize: 0x14 }
  - { offsetInCU: 0x76DD8, offset: 0x83FE1, size: 0x8, addend: 0x0, symName: __ZNSt3__16vectorIN4CGAL7Point_3INS1_16Simple_cartesianIdEEEENS_9allocatorIS5_EEE21_ConstructTransactionD2B8ue170006Ev, symObjAddr: 0x11D8C, symBinAddr: 0x1000196CC, symSize: 0x20 }
  - { offsetInCU: 0x76E01, offset: 0x8400A, size: 0x8, addend: 0x0, symName: __ZNKSt3__16vectorIN4CGAL7Point_3INS1_16Simple_cartesianIdEEEENS_9allocatorIS5_EEE11__recommendB8ue170006Em, symObjAddr: 0x11DAC, symBinAddr: 0x1000196EC, symSize: 0xB4 }
  - { offsetInCU: 0x76E54, offset: 0x8405D, size: 0x8, addend: 0x0, symName: __ZNSt3__114__split_bufferIN4CGAL7Point_3INS1_16Simple_cartesianIdEEEERNS_9allocatorIS5_EEEC1EmmS8_, symObjAddr: 0x11E60, symBinAddr: 0x1000197A0, symSize: 0x44 }
  - { offsetInCU: 0x76EA9, offset: 0x840B2, size: 0x8, addend: 0x0, symName: __ZNSt3__114__split_bufferIN4CGAL7Point_3INS1_16Simple_cartesianIdEEEERNS_9allocatorIS5_EEED1Ev, symObjAddr: 0x11FB4, symBinAddr: 0x1000198F4, symSize: 0x2C }
  - { offsetInCU: 0x76ED4, offset: 0x840DD, size: 0x8, addend: 0x0, symName: __ZNKSt3__16vectorIN4CGAL7Point_3INS1_16Simple_cartesianIdEEEENS_9allocatorIS5_EEE8max_sizeEv, symObjAddr: 0x11FE0, symBinAddr: 0x100019920, symSize: 0x60 }
  - { offsetInCU: 0x76EFA, offset: 0x84103, size: 0x8, addend: 0x0, symName: __ZNKSt3__16vectorIN4CGAL7Point_3INS1_16Simple_cartesianIdEEEENS_9allocatorIS5_EEE20__throw_length_errorB8ue170006Ev, symObjAddr: 0x12040, symBinAddr: 0x100019980, symSize: 0x1C }
  - { offsetInCU: 0x76F1F, offset: 0x84128, size: 0x8, addend: 0x0, symName: __ZNKSt3__16vectorIN4CGAL7Point_3INS1_16Simple_cartesianIdEEEENS_9allocatorIS5_EEE8capacityB8ue170006Ev, symObjAddr: 0x1205C, symBinAddr: 0x10001999C, symSize: 0x40 }
  - { offsetInCU: 0x76F4E, offset: 0x84157, size: 0x8, addend: 0x0, symName: __ZNSt3__116allocator_traitsINS_9allocatorIN4CGAL7Point_3INS2_16Simple_cartesianIdEEEEEEE8max_sizeB8ue170006IS7_vEEmRKS7_, symObjAddr: 0x120C8, symBinAddr: 0x1000199DC, symSize: 0x24 }
  - { offsetInCU: 0x76F7C, offset: 0x84185, size: 0x8, addend: 0x0, symName: __ZNKSt3__16vectorIN4CGAL7Point_3INS1_16Simple_cartesianIdEEEENS_9allocatorIS5_EEE7__allocB8ue170006Ev, symObjAddr: 0x120EC, symBinAddr: 0x100019A00, symSize: 0x28 }
  - { offsetInCU: 0x76FA1, offset: 0x841AA, size: 0x8, addend: 0x0, symName: __ZNKSt3__19allocatorIN4CGAL7Point_3INS1_16Simple_cartesianIdEEEEE8max_sizeB8ue170006Ev, symObjAddr: 0x12114, symBinAddr: 0x100019A28, symSize: 0x18 }
  - { offsetInCU: 0x76FC6, offset: 0x841CF, size: 0x8, addend: 0x0, symName: __ZNKSt3__117__compressed_pairIPN4CGAL7Point_3INS1_16Simple_cartesianIdEEEENS_9allocatorIS5_EEE6secondB8ue170006Ev, symObjAddr: 0x1212C, symBinAddr: 0x100019A40, symSize: 0x24 }
  - { offsetInCU: 0x76FEB, offset: 0x841F4, size: 0x8, addend: 0x0, symName: __ZNKSt3__122__compressed_pair_elemINS_9allocatorIN4CGAL7Point_3INS2_16Simple_cartesianIdEEEEEELi1ELb1EE5__getB8ue170006Ev, symObjAddr: 0x12150, symBinAddr: 0x100019A64, symSize: 0x14 }
  - { offsetInCU: 0x77010, offset: 0x84219, size: 0x8, addend: 0x0, symName: __ZNKSt3__16vectorIN4CGAL7Point_3INS1_16Simple_cartesianIdEEEENS_9allocatorIS5_EEE9__end_capB8ue170006Ev, symObjAddr: 0x12164, symBinAddr: 0x100019A78, symSize: 0x28 }
  - { offsetInCU: 0x77035, offset: 0x8423E, size: 0x8, addend: 0x0, symName: __ZNKSt3__117__compressed_pairIPN4CGAL7Point_3INS1_16Simple_cartesianIdEEEENS_9allocatorIS5_EEE5firstB8ue170006Ev, symObjAddr: 0x1218C, symBinAddr: 0x100019AA0, symSize: 0x24 }
  - { offsetInCU: 0x7705A, offset: 0x84263, size: 0x8, addend: 0x0, symName: __ZNKSt3__122__compressed_pair_elemIPN4CGAL7Point_3INS1_16Simple_cartesianIdEEEELi0ELb0EE5__getB8ue170006Ev, symObjAddr: 0x121B0, symBinAddr: 0x100019AC4, symSize: 0x14 }
  - { offsetInCU: 0x7707F, offset: 0x84288, size: 0x8, addend: 0x0, symName: __ZNSt3__114__split_bufferIN4CGAL7Point_3INS1_16Simple_cartesianIdEEEERNS_9allocatorIS5_EEEC2EmmS8_, symObjAddr: 0x12218, symBinAddr: 0x100019AD8, symSize: 0xE0 }
  - { offsetInCU: 0x770F1, offset: 0x842FA, size: 0x8, addend: 0x0, symName: __ZNSt3__117__compressed_pairIPN4CGAL7Point_3INS1_16Simple_cartesianIdEEEERNS_9allocatorIS5_EEEC1B8ue170006IDnS9_EEOT_OT0_, symObjAddr: 0x122F8, symBinAddr: 0x100019BB8, symSize: 0x3C }
  - { offsetInCU: 0x77148, offset: 0x84351, size: 0x8, addend: 0x0, symName: __ZNSt3__114__split_bufferIN4CGAL7Point_3INS1_16Simple_cartesianIdEEEERNS_9allocatorIS5_EEE7__allocB8ue170006Ev, symObjAddr: 0x12374, symBinAddr: 0x100019C34, symSize: 0x28 }
  - { offsetInCU: 0x7716D, offset: 0x84376, size: 0x8, addend: 0x0, symName: __ZNSt3__114__split_bufferIN4CGAL7Point_3INS1_16Simple_cartesianIdEEEERNS_9allocatorIS5_EEE9__end_capB8ue170006Ev, symObjAddr: 0x1239C, symBinAddr: 0x100019C5C, symSize: 0x28 }
  - { offsetInCU: 0x77192, offset: 0x8439B, size: 0x8, addend: 0x0, symName: __ZNSt3__117__compressed_pairIPN4CGAL7Point_3INS1_16Simple_cartesianIdEEEERNS_9allocatorIS5_EEEC2B8ue170006IDnS9_EEOT_OT0_, symObjAddr: 0x123C4, symBinAddr: 0x100019C84, symSize: 0x48 }
  - { offsetInCU: 0x771E9, offset: 0x843F2, size: 0x8, addend: 0x0, symName: __ZNSt3__122__compressed_pair_elemIRNS_9allocatorIN4CGAL7Point_3INS2_16Simple_cartesianIdEEEEEELi1ELb0EEC2B8ue170006IS8_vEEOT_, symObjAddr: 0x1240C, symBinAddr: 0x100019CCC, symSize: 0x20 }
  - { offsetInCU: 0x7722A, offset: 0x84433, size: 0x8, addend: 0x0, symName: __ZNSt3__19allocatorIN4CGAL7Point_3INS1_16Simple_cartesianIdEEEEE8allocateB8ue170006Em, symObjAddr: 0x1242C, symBinAddr: 0x100019CEC, symSize: 0x5C }
  - { offsetInCU: 0x7725D, offset: 0x84466, size: 0x8, addend: 0x0, symName: __ZNSt3__117__compressed_pairIPN4CGAL7Point_3INS1_16Simple_cartesianIdEEEERNS_9allocatorIS5_EEE6secondB8ue170006Ev, symObjAddr: 0x12488, symBinAddr: 0x100019D48, symSize: 0x28 }
  - { offsetInCU: 0x77282, offset: 0x8448B, size: 0x8, addend: 0x0, symName: __ZNSt3__122__compressed_pair_elemIRNS_9allocatorIN4CGAL7Point_3INS2_16Simple_cartesianIdEEEEEELi1ELb0EE5__getB8ue170006Ev, symObjAddr: 0x124B0, symBinAddr: 0x100019D70, symSize: 0x18 }
  - { offsetInCU: 0x772A7, offset: 0x844B0, size: 0x8, addend: 0x0, symName: __ZNSt3__117__compressed_pairIPN4CGAL7Point_3INS1_16Simple_cartesianIdEEEERNS_9allocatorIS5_EEE5firstB8ue170006Ev, symObjAddr: 0x124C8, symBinAddr: 0x100019D88, symSize: 0x24 }
  - { offsetInCU: 0x772CC, offset: 0x844D5, size: 0x8, addend: 0x0, symName: __ZNKSt3__16vectorIN4CGAL7Point_3INS1_16Simple_cartesianIdEEEENS_9allocatorIS5_EEE17__annotate_deleteB8ue170006Ev, symObjAddr: 0x124EC, symBinAddr: 0x100019DAC, symSize: 0xD4 }
  - { offsetInCU: 0x772F1, offset: 0x844FA, size: 0x8, addend: 0x0, symName: __ZNSt3__116reverse_iteratorIPN4CGAL7Point_3INS1_16Simple_cartesianIdEEEEEC1B8ue170006ES6_, symObjAddr: 0x12638, symBinAddr: 0x100019EF8, symSize: 0x34 }
  - { offsetInCU: 0x77328, offset: 0x84531, size: 0x8, addend: 0x0, symName: __ZNKSt3__116reverse_iteratorIPN4CGAL7Point_3INS1_16Simple_cartesianIdEEEEE4baseB8ue170006Ev, symObjAddr: 0x1266C, symBinAddr: 0x100019F2C, symSize: 0x18 }
  - { offsetInCU: 0x7734D, offset: 0x84556, size: 0x8, addend: 0x0, symName: __ZNKSt3__16vectorIN4CGAL7Point_3INS1_16Simple_cartesianIdEEEENS_9allocatorIS5_EEE14__annotate_newB8ue170006Em, symObjAddr: 0x126C0, symBinAddr: 0x100019F80, symSize: 0xC8 }
  - { offsetInCU: 0x77381, offset: 0x8458A, size: 0x8, addend: 0x0, symName: __ZNKSt3__16vectorIN4CGAL7Point_3INS1_16Simple_cartesianIdEEEENS_9allocatorIS5_EEE31__annotate_contiguous_containerB8ue170006EPKvSA_SA_SA_, symObjAddr: 0x12788, symBinAddr: 0x10001A048, symSize: 0x20 }
  - { offsetInCU: 0x773D2, offset: 0x845DB, size: 0x8, addend: 0x0, symName: __ZNKSt3__16vectorIN4CGAL7Point_3INS1_16Simple_cartesianIdEEEENS_9allocatorIS5_EEE4dataB8ue170006Ev, symObjAddr: 0x127A8, symBinAddr: 0x10001A068, symSize: 0x28 }
  - { offsetInCU: 0x7741A, offset: 0x84623, size: 0x8, addend: 0x0, symName: __ZNKSt3__111__move_loopINS_17_ClassicAlgPolicyEEclB8ue170006INS_16reverse_iteratorIPN4CGAL7Point_3INS5_16Simple_cartesianIdEEEEEESB_SB_EENS_4pairIT_T1_EESD_T0_SE_, symObjAddr: 0x12AC0, symBinAddr: 0x10001A380, symSize: 0xA8 }
  - { offsetInCU: 0x7748F, offset: 0x84698, size: 0x8, addend: 0x0, symName: __ZNSt3__18_IterOpsINS_17_ClassicAlgPolicyEE11__iter_moveB8ue170006IRNS_16reverse_iteratorIPN4CGAL7Point_3INS5_16Simple_cartesianIdEEEEEEEENS_9enable_ifIXsr12is_referenceIDTdeclsr3stdE7declvalIRT_EEEEE5valueEDTclsr3stdE4movedeclsr3stdE7declvalISF_EEEEE4typeEOSE_, symObjAddr: 0x12CFC, symBinAddr: 0x10001A5BC, symSize: 0x28 }
  - { offsetInCU: 0x774BD, offset: 0x846C6, size: 0x8, addend: 0x0, symName: __ZNKSt3__116reverse_iteratorIPN4CGAL7Point_3INS1_16Simple_cartesianIdEEEEEdeB8ue170006Ev, symObjAddr: 0x12D24, symBinAddr: 0x10001A5E4, symSize: 0x28 }
  - { offsetInCU: 0x774F0, offset: 0x846F9, size: 0x8, addend: 0x0, symName: __ZNSt3__116reverse_iteratorIPN4CGAL7Point_3INS1_16Simple_cartesianIdEEEEEppB8ue170006Ev, symObjAddr: 0x12D4C, symBinAddr: 0x10001A60C, symSize: 0x20 }
  - { offsetInCU: 0x77515, offset: 0x8471E, size: 0x8, addend: 0x0, symName: __ZNSt3__18_IterOpsINS_17_ClassicAlgPolicyEE25__validate_iter_referenceB8ue170006IRNS_16reverse_iteratorIPN4CGAL7Point_3INS5_16Simple_cartesianIdEEEEEEEEvv, symObjAddr: 0x12D6C, symBinAddr: 0x10001A62C, symSize: 0x4 }
  - { offsetInCU: 0x77533, offset: 0x8473C, size: 0x8, addend: 0x0, symName: __ZNSt3__118__unwrap_iter_implINS_16reverse_iteratorIPN4CGAL7Point_3INS2_16Simple_cartesianIdEEEEEELb0EE8__unwrapB8ue170006ES8_, symObjAddr: 0x12D70, symBinAddr: 0x10001A630, symSize: 0x24 }
  - { offsetInCU: 0x7755D, offset: 0x84766, size: 0x8, addend: 0x0, symName: __ZNSt3__14pairINS_16reverse_iteratorIPN4CGAL7Point_3INS2_16Simple_cartesianIdEEEEEES8_EC1B8ue170006IS8_S8_LPv0EEEOT_OT0_, symObjAddr: 0x12D94, symBinAddr: 0x10001A654, symSize: 0x3C }
  - { offsetInCU: 0x775BA, offset: 0x847C3, size: 0x8, addend: 0x0, symName: __ZNSt3__14pairINS_16reverse_iteratorIPN4CGAL7Point_3INS2_16Simple_cartesianIdEEEEEES8_EC2B8ue170006IS8_S8_LPv0EEEOT_OT0_, symObjAddr: 0x12DD0, symBinAddr: 0x10001A690, symSize: 0x34 }
  - { offsetInCU: 0x77617, offset: 0x84820, size: 0x8, addend: 0x0, symName: __ZNSt3__118__unwrap_iter_implINS_16reverse_iteratorIPN4CGAL7Point_3INS2_16Simple_cartesianIdEEEEEELb0EE8__rewrapB8ue170006ES8_S8_, symObjAddr: 0x12E04, symBinAddr: 0x10001A6C4, symSize: 0x2C }
  - { offsetInCU: 0x77648, offset: 0x84851, size: 0x8, addend: 0x0, symName: __ZNSt3__116reverse_iteratorIPN4CGAL7Point_3INS1_16Simple_cartesianIdEEEEEC2B8ue170006ES6_, symObjAddr: 0x12E30, symBinAddr: 0x10001A6F0, symSize: 0x28 }
  - { offsetInCU: 0x7767F, offset: 0x84888, size: 0x8, addend: 0x0, symName: __ZNSt3__114__split_bufferIN4CGAL7Point_3INS1_16Simple_cartesianIdEEEERNS_9allocatorIS5_EEED2Ev, symObjAddr: 0x12E58, symBinAddr: 0x10001A718, symSize: 0x8C }
  - { offsetInCU: 0x776AA, offset: 0x848B3, size: 0x8, addend: 0x0, symName: __ZNSt3__114__split_bufferIN4CGAL7Point_3INS1_16Simple_cartesianIdEEEERNS_9allocatorIS5_EEE5clearB8ue170006Ev, symObjAddr: 0x12EE4, symBinAddr: 0x10001A7A4, symSize: 0x28 }
  - { offsetInCU: 0x776CF, offset: 0x848D8, size: 0x8, addend: 0x0, symName: __ZNSt3__116allocator_traitsINS_9allocatorIN4CGAL7Point_3INS2_16Simple_cartesianIdEEEEEEE10deallocateB8ue170006ERS7_PS6_m, symObjAddr: 0x12F0C, symBinAddr: 0x10001A7CC, symSize: 0x34 }
  - { offsetInCU: 0x77711, offset: 0x8491A, size: 0x8, addend: 0x0, symName: __ZNKSt3__114__split_bufferIN4CGAL7Point_3INS1_16Simple_cartesianIdEEEERNS_9allocatorIS5_EEE8capacityB8ue170006Ev, symObjAddr: 0x12F40, symBinAddr: 0x10001A800, symSize: 0x40 }
  - { offsetInCU: 0x77736, offset: 0x8493F, size: 0x8, addend: 0x0, symName: __ZNSt3__114__split_bufferIN4CGAL7Point_3INS1_16Simple_cartesianIdEEEERNS_9allocatorIS5_EEE17__destruct_at_endB8ue170006EPS5_, symObjAddr: 0x12F80, symBinAddr: 0x10001A840, symSize: 0x2C }
  - { offsetInCU: 0x77769, offset: 0x84972, size: 0x8, addend: 0x0, symName: __ZNSt3__114__split_bufferIN4CGAL7Point_3INS1_16Simple_cartesianIdEEEERNS_9allocatorIS5_EEE17__destruct_at_endB8ue170006EPS5_NS_17integral_constantIbLb0EEE, symObjAddr: 0x12FAC, symBinAddr: 0x10001A86C, symSize: 0x80 }
  - { offsetInCU: 0x777A7, offset: 0x849B0, size: 0x8, addend: 0x0, symName: __ZNSt3__116allocator_traitsINS_9allocatorIN4CGAL7Point_3INS2_16Simple_cartesianIdEEEEEEE7destroyB8ue170006IS6_vEEvRS7_PT_, symObjAddr: 0x1302C, symBinAddr: 0x10001A8EC, symSize: 0x2C }
  - { offsetInCU: 0x777E4, offset: 0x849ED, size: 0x8, addend: 0x0, symName: __ZNSt3__19allocatorIN4CGAL7Point_3INS1_16Simple_cartesianIdEEEEE7destroyB8ue170006EPS5_, symObjAddr: 0x13058, symBinAddr: 0x10001A918, symSize: 0x14 }
  - { offsetInCU: 0x77817, offset: 0x84A20, size: 0x8, addend: 0x0, symName: __ZNSt3__19allocatorIN4CGAL7Point_3INS1_16Simple_cartesianIdEEEEE10deallocateB8ue170006EPS5_m, symObjAddr: 0x1306C, symBinAddr: 0x10001A92C, symSize: 0x44 }
  - { offsetInCU: 0x77858, offset: 0x84A61, size: 0x8, addend: 0x0, symName: __ZNKSt3__114__split_bufferIN4CGAL7Point_3INS1_16Simple_cartesianIdEEEERNS_9allocatorIS5_EEE9__end_capB8ue170006Ev, symObjAddr: 0x130B0, symBinAddr: 0x10001A970, symSize: 0x28 }
  - { offsetInCU: 0x7787D, offset: 0x84A86, size: 0x8, addend: 0x0, symName: __ZNKSt3__117__compressed_pairIPN4CGAL7Point_3INS1_16Simple_cartesianIdEEEERNS_9allocatorIS5_EEE5firstB8ue170006Ev, symObjAddr: 0x130D8, symBinAddr: 0x10001A998, symSize: 0x24 }
  - { offsetInCU: 0x778A2, offset: 0x84AAB, size: 0x8, addend: 0x0, symName: __ZNSt3__16vectorINS0_ImNS_9allocatorImEEEENS1_IS3_EEE9__end_capB8ue170006Ev, symObjAddr: 0x130FC, symBinAddr: 0x10001A9BC, symSize: 0x28 }
  - { offsetInCU: 0x778C7, offset: 0x84AD0, size: 0x8, addend: 0x0, symName: __ZNSt3__16vectorINS0_ImNS_9allocatorImEEEENS1_IS3_EEE22__construct_one_at_endB8ue170006IJEEEvDpOT_, symObjAddr: 0x13124, symBinAddr: 0x10001A9E4, symSize: 0x88 }
  - { offsetInCU: 0x77900, offset: 0x84B09, size: 0x8, addend: 0x0, symName: __ZNSt3__16vectorINS0_ImNS_9allocatorImEEEENS1_IS3_EEE24__emplace_back_slow_pathIJEEEvDpOT_, symObjAddr: 0x131AC, symBinAddr: 0x10001AA6C, symSize: 0xD0 }
  - { offsetInCU: 0x77949, offset: 0x84B52, size: 0x8, addend: 0x0, symName: __ZNSt3__117__compressed_pairIPNS_6vectorImNS_9allocatorImEEEENS2_IS4_EEE5firstB8ue170006Ev, symObjAddr: 0x1327C, symBinAddr: 0x10001AB3C, symSize: 0x24 }
  - { offsetInCU: 0x7796E, offset: 0x84B77, size: 0x8, addend: 0x0, symName: __ZNSt3__122__compressed_pair_elemIPNS_6vectorImNS_9allocatorImEEEELi0ELb0EE5__getB8ue170006Ev, symObjAddr: 0x132A0, symBinAddr: 0x10001AB60, symSize: 0x14 }
  - { offsetInCU: 0x779AC, offset: 0x84BB5, size: 0x8, addend: 0x0, symName: __ZNSt3__16vectorINS0_ImNS_9allocatorImEEEENS1_IS3_EEE21_ConstructTransactionC1B8ue170006ERS5_m, symObjAddr: 0x132B4, symBinAddr: 0x10001AB74, symSize: 0x3C }
  - { offsetInCU: 0x779F3, offset: 0x84BFC, size: 0x8, addend: 0x0, symName: __ZNSt3__116allocator_traitsINS_9allocatorINS_6vectorImNS1_ImEEEEEEE9constructB8ue170006IS4_JEvEEvRS5_PT_DpOT0_, symObjAddr: 0x132F0, symBinAddr: 0x10001ABB0, symSize: 0x2C }
  - { offsetInCU: 0x77A35, offset: 0x84C3E, size: 0x8, addend: 0x0, symName: __ZNSt3__16vectorINS0_ImNS_9allocatorImEEEENS1_IS3_EEE7__allocB8ue170006Ev, symObjAddr: 0x1331C, symBinAddr: 0x10001ABDC, symSize: 0x28 }
  - { offsetInCU: 0x77A5A, offset: 0x84C63, size: 0x8, addend: 0x0, symName: __ZNSt3__16vectorINS0_ImNS_9allocatorImEEEENS1_IS3_EEE21_ConstructTransactionD1B8ue170006Ev, symObjAddr: 0x13358, symBinAddr: 0x10001AC18, symSize: 0x2C }
  - { offsetInCU: 0x77A83, offset: 0x84C8C, size: 0x8, addend: 0x0, symName: __ZNSt3__16vectorINS0_ImNS_9allocatorImEEEENS1_IS3_EEE21_ConstructTransactionC2B8ue170006ERS5_m, symObjAddr: 0x13384, symBinAddr: 0x10001AC44, symSize: 0x4C }
  - { offsetInCU: 0x77ACA, offset: 0x84CD3, size: 0x8, addend: 0x0, symName: __ZNSt3__19allocatorINS_6vectorImNS0_ImEEEEE9constructB8ue170006IS3_JEEEvPT_DpOT0_, symObjAddr: 0x133D0, symBinAddr: 0x10001AC90, symSize: 0x28 }
  - { offsetInCU: 0x77B0B, offset: 0x84D14, size: 0x8, addend: 0x0, symName: __ZNSt3__16vectorImNS_9allocatorImEEEC1B8ue170006Ev, symObjAddr: 0x133F8, symBinAddr: 0x10001ACB8, symSize: 0x2C }
  - { offsetInCU: 0x77B34, offset: 0x84D3D, size: 0x8, addend: 0x0, symName: __ZNSt3__16vectorImNS_9allocatorImEEEC2B8ue170006Ev, symObjAddr: 0x13424, symBinAddr: 0x10001ACE4, symSize: 0x4C }
  - { offsetInCU: 0x77B5D, offset: 0x84D66, size: 0x8, addend: 0x0, symName: __ZNSt3__117__compressed_pairIPmNS_9allocatorImEEEC1B8ue170006IDnNS_18__default_init_tagEEEOT_OT0_, symObjAddr: 0x13470, symBinAddr: 0x10001AD30, symSize: 0x3C }
  - { offsetInCU: 0x77BB4, offset: 0x84DBD, size: 0x8, addend: 0x0, symName: __ZNSt3__117__compressed_pairIPmNS_9allocatorImEEEC2B8ue170006IDnNS_18__default_init_tagEEEOT_OT0_, symObjAddr: 0x134AC, symBinAddr: 0x10001AD6C, symSize: 0x40 }
  - { offsetInCU: 0x77C0B, offset: 0x84E14, size: 0x8, addend: 0x0, symName: __ZNSt3__122__compressed_pair_elemIPmLi0ELb0EEC2B8ue170006IDnvEEOT_, symObjAddr: 0x134EC, symBinAddr: 0x10001ADAC, symSize: 0x1C }
  - { offsetInCU: 0x77C4C, offset: 0x84E55, size: 0x8, addend: 0x0, symName: __ZNSt3__122__compressed_pair_elemINS_9allocatorImEELi1ELb1EEC2B8ue170006ENS_18__default_init_tagE, symObjAddr: 0x13508, symBinAddr: 0x10001ADC8, symSize: 0x2C }
  - { offsetInCU: 0x77C7F, offset: 0x84E88, size: 0x8, addend: 0x0, symName: __ZNSt3__19allocatorImEC2B8ue170006Ev, symObjAddr: 0x13534, symBinAddr: 0x10001ADF4, symSize: 0x2C }
  - { offsetInCU: 0x77CA8, offset: 0x84EB1, size: 0x8, addend: 0x0, symName: __ZNSt3__116__non_trivial_ifILb1ENS_9allocatorImEEEC2B8ue170006Ev, symObjAddr: 0x13560, symBinAddr: 0x10001AE20, symSize: 0x14 }
  - { offsetInCU: 0x77CD1, offset: 0x84EDA, size: 0x8, addend: 0x0, symName: __ZNSt3__117__compressed_pairIPNS_6vectorImNS_9allocatorImEEEENS2_IS4_EEE6secondB8ue170006Ev, symObjAddr: 0x13574, symBinAddr: 0x10001AE34, symSize: 0x24 }
  - { offsetInCU: 0x77CF6, offset: 0x84EFF, size: 0x8, addend: 0x0, symName: __ZNSt3__122__compressed_pair_elemINS_9allocatorINS_6vectorImNS1_ImEEEEEELi1ELb1EE5__getB8ue170006Ev, symObjAddr: 0x13598, symBinAddr: 0x10001AE58, symSize: 0x14 }
  - { offsetInCU: 0x77D1B, offset: 0x84F24, size: 0x8, addend: 0x0, symName: __ZNSt3__16vectorINS0_ImNS_9allocatorImEEEENS1_IS3_EEE21_ConstructTransactionD2B8ue170006Ev, symObjAddr: 0x135AC, symBinAddr: 0x10001AE6C, symSize: 0x20 }
  - { offsetInCU: 0x77D44, offset: 0x84F4D, size: 0x8, addend: 0x0, symName: __ZNKSt3__16vectorINS0_ImNS_9allocatorImEEEENS1_IS3_EEE11__recommendB8ue170006Em, symObjAddr: 0x135CC, symBinAddr: 0x10001AE8C, symSize: 0xB4 }
  - { offsetInCU: 0x77D97, offset: 0x84FA0, size: 0x8, addend: 0x0, symName: __ZNSt3__114__split_bufferINS_6vectorImNS_9allocatorImEEEERNS2_IS4_EEEC1EmmS6_, symObjAddr: 0x13680, symBinAddr: 0x10001AF40, symSize: 0x44 }
  - { offsetInCU: 0x77DEC, offset: 0x84FF5, size: 0x8, addend: 0x0, symName: __ZNSt3__114__split_bufferINS_6vectorImNS_9allocatorImEEEERNS2_IS4_EEED1Ev, symObjAddr: 0x137D4, symBinAddr: 0x10001B094, symSize: 0x2C }
  - { offsetInCU: 0x77E17, offset: 0x85020, size: 0x8, addend: 0x0, symName: __ZNKSt3__16vectorINS0_ImNS_9allocatorImEEEENS1_IS3_EEE8max_sizeEv, symObjAddr: 0x13800, symBinAddr: 0x10001B0C0, symSize: 0x60 }
  - { offsetInCU: 0x77E3D, offset: 0x85046, size: 0x8, addend: 0x0, symName: __ZNKSt3__16vectorINS0_ImNS_9allocatorImEEEENS1_IS3_EEE20__throw_length_errorB8ue170006Ev, symObjAddr: 0x13860, symBinAddr: 0x10001B120, symSize: 0x1C }
  - { offsetInCU: 0x77E62, offset: 0x8506B, size: 0x8, addend: 0x0, symName: __ZNKSt3__16vectorINS0_ImNS_9allocatorImEEEENS1_IS3_EEE8capacityB8ue170006Ev, symObjAddr: 0x1387C, symBinAddr: 0x10001B13C, symSize: 0x40 }
  - { offsetInCU: 0x77E91, offset: 0x8509A, size: 0x8, addend: 0x0, symName: __ZNSt3__116allocator_traitsINS_9allocatorINS_6vectorImNS1_ImEEEEEEE8max_sizeB8ue170006IS5_vEEmRKS5_, symObjAddr: 0x138BC, symBinAddr: 0x10001B17C, symSize: 0x24 }
  - { offsetInCU: 0x77EBF, offset: 0x850C8, size: 0x8, addend: 0x0, symName: __ZNKSt3__16vectorINS0_ImNS_9allocatorImEEEENS1_IS3_EEE7__allocB8ue170006Ev, symObjAddr: 0x138E0, symBinAddr: 0x10001B1A0, symSize: 0x28 }
  - { offsetInCU: 0x77EE4, offset: 0x850ED, size: 0x8, addend: 0x0, symName: __ZNKSt3__19allocatorINS_6vectorImNS0_ImEEEEE8max_sizeB8ue170006Ev, symObjAddr: 0x13908, symBinAddr: 0x10001B1C8, symSize: 0x18 }
  - { offsetInCU: 0x77F09, offset: 0x85112, size: 0x8, addend: 0x0, symName: __ZNKSt3__117__compressed_pairIPNS_6vectorImNS_9allocatorImEEEENS2_IS4_EEE6secondB8ue170006Ev, symObjAddr: 0x13920, symBinAddr: 0x10001B1E0, symSize: 0x24 }
  - { offsetInCU: 0x77F2E, offset: 0x85137, size: 0x8, addend: 0x0, symName: __ZNKSt3__122__compressed_pair_elemINS_9allocatorINS_6vectorImNS1_ImEEEEEELi1ELb1EE5__getB8ue170006Ev, symObjAddr: 0x13944, symBinAddr: 0x10001B204, symSize: 0x14 }
  - { offsetInCU: 0x77F53, offset: 0x8515C, size: 0x8, addend: 0x0, symName: __ZNKSt3__16vectorINS0_ImNS_9allocatorImEEEENS1_IS3_EEE9__end_capB8ue170006Ev, symObjAddr: 0x13958, symBinAddr: 0x10001B218, symSize: 0x28 }
  - { offsetInCU: 0x77F78, offset: 0x85181, size: 0x8, addend: 0x0, symName: __ZNKSt3__117__compressed_pairIPNS_6vectorImNS_9allocatorImEEEENS2_IS4_EEE5firstB8ue170006Ev, symObjAddr: 0x13980, symBinAddr: 0x10001B240, symSize: 0x24 }
  - { offsetInCU: 0x77F9D, offset: 0x851A6, size: 0x8, addend: 0x0, symName: __ZNKSt3__122__compressed_pair_elemIPNS_6vectorImNS_9allocatorImEEEELi0ELb0EE5__getB8ue170006Ev, symObjAddr: 0x139A4, symBinAddr: 0x10001B264, symSize: 0x14 }
  - { offsetInCU: 0x77FC2, offset: 0x851CB, size: 0x8, addend: 0x0, symName: __ZNSt3__114__split_bufferINS_6vectorImNS_9allocatorImEEEERNS2_IS4_EEEC2EmmS6_, symObjAddr: 0x139B8, symBinAddr: 0x10001B278, symSize: 0xE0 }
  - { offsetInCU: 0x78034, offset: 0x8523D, size: 0x8, addend: 0x0, symName: __ZNSt3__117__compressed_pairIPNS_6vectorImNS_9allocatorImEEEERNS2_IS4_EEEC1B8ue170006IDnS7_EEOT_OT0_, symObjAddr: 0x13A98, symBinAddr: 0x10001B358, symSize: 0x3C }
  - { offsetInCU: 0x7808B, offset: 0x85294, size: 0x8, addend: 0x0, symName: __ZNSt3__114__split_bufferINS_6vectorImNS_9allocatorImEEEERNS2_IS4_EEE7__allocB8ue170006Ev, symObjAddr: 0x13B14, symBinAddr: 0x10001B3D4, symSize: 0x28 }
  - { offsetInCU: 0x780B0, offset: 0x852B9, size: 0x8, addend: 0x0, symName: __ZNSt3__114__split_bufferINS_6vectorImNS_9allocatorImEEEERNS2_IS4_EEE9__end_capB8ue170006Ev, symObjAddr: 0x13B3C, symBinAddr: 0x10001B3FC, symSize: 0x28 }
  - { offsetInCU: 0x780D5, offset: 0x852DE, size: 0x8, addend: 0x0, symName: __ZNSt3__117__compressed_pairIPNS_6vectorImNS_9allocatorImEEEERNS2_IS4_EEEC2B8ue170006IDnS7_EEOT_OT0_, symObjAddr: 0x13B64, symBinAddr: 0x10001B424, symSize: 0x48 }
  - { offsetInCU: 0x7812C, offset: 0x85335, size: 0x8, addend: 0x0, symName: __ZNSt3__122__compressed_pair_elemIRNS_9allocatorINS_6vectorImNS1_ImEEEEEELi1ELb0EEC2B8ue170006IS6_vEEOT_, symObjAddr: 0x13BAC, symBinAddr: 0x10001B46C, symSize: 0x20 }
  - { offsetInCU: 0x7816D, offset: 0x85376, size: 0x8, addend: 0x0, symName: __ZNSt3__19allocatorINS_6vectorImNS0_ImEEEEE8allocateB8ue170006Em, symObjAddr: 0x13BCC, symBinAddr: 0x10001B48C, symSize: 0x5C }
  - { offsetInCU: 0x781A0, offset: 0x853A9, size: 0x8, addend: 0x0, symName: __ZNSt3__117__compressed_pairIPNS_6vectorImNS_9allocatorImEEEERNS2_IS4_EEE6secondB8ue170006Ev, symObjAddr: 0x13C28, symBinAddr: 0x10001B4E8, symSize: 0x28 }
  - { offsetInCU: 0x781C5, offset: 0x853CE, size: 0x8, addend: 0x0, symName: __ZNSt3__122__compressed_pair_elemIRNS_9allocatorINS_6vectorImNS1_ImEEEEEELi1ELb0EE5__getB8ue170006Ev, symObjAddr: 0x13C50, symBinAddr: 0x10001B510, symSize: 0x18 }
  - { offsetInCU: 0x781EA, offset: 0x853F3, size: 0x8, addend: 0x0, symName: __ZNSt3__117__compressed_pairIPNS_6vectorImNS_9allocatorImEEEERNS2_IS4_EEE5firstB8ue170006Ev, symObjAddr: 0x13C68, symBinAddr: 0x10001B528, symSize: 0x24 }
  - { offsetInCU: 0x7820F, offset: 0x85418, size: 0x8, addend: 0x0, symName: __ZNKSt3__16vectorINS0_ImNS_9allocatorImEEEENS1_IS3_EEE17__annotate_deleteB8ue170006Ev, symObjAddr: 0x13C8C, symBinAddr: 0x10001B54C, symSize: 0xD4 }
  - { offsetInCU: 0x78234, offset: 0x8543D, size: 0x8, addend: 0x0, symName: __ZNSt3__116reverse_iteratorIPNS_6vectorImNS_9allocatorImEEEEEC1B8ue170006ES5_, symObjAddr: 0x13E8C, symBinAddr: 0x10001B74C, symSize: 0x34 }
  - { offsetInCU: 0x7826B, offset: 0x85474, size: 0x8, addend: 0x0, symName: __ZNKSt3__116reverse_iteratorIPNS_6vectorImNS_9allocatorImEEEEE4baseB8ue170006Ev, symObjAddr: 0x13EC0, symBinAddr: 0x10001B780, symSize: 0x18 }
  - { offsetInCU: 0x78290, offset: 0x85499, size: 0x8, addend: 0x0, symName: __ZNKSt3__16vectorINS0_ImNS_9allocatorImEEEENS1_IS3_EEE14__annotate_newB8ue170006Em, symObjAddr: 0x13F14, symBinAddr: 0x10001B7D4, symSize: 0xC8 }
  - { offsetInCU: 0x782C4, offset: 0x854CD, size: 0x8, addend: 0x0, symName: __ZNKSt3__16vectorINS0_ImNS_9allocatorImEEEENS1_IS3_EEE31__annotate_contiguous_containerB8ue170006EPKvS7_S7_S7_, symObjAddr: 0x13FDC, symBinAddr: 0x10001B89C, symSize: 0x20 }
  - { offsetInCU: 0x78315, offset: 0x8551E, size: 0x8, addend: 0x0, symName: __ZNKSt3__16vectorINS0_ImNS_9allocatorImEEEENS1_IS3_EEE4dataB8ue170006Ev, symObjAddr: 0x13FFC, symBinAddr: 0x10001B8BC, symSize: 0x28 }
  - { offsetInCU: 0x7833A, offset: 0x85543, size: 0x8, addend: 0x0, symName: __ZNSt3__129_AllocatorDestroyRangeReverseINS_9allocatorINS_6vectorImNS1_ImEEEEEENS_16reverse_iteratorIPS4_EEEC1B8ue170006ERS5_RS8_SB_, symObjAddr: 0x14070, symBinAddr: 0x10001B930, symSize: 0x44 }
  - { offsetInCU: 0x78390, offset: 0x85599, size: 0x8, addend: 0x0, symName: __ZNSt3__116allocator_traitsINS_9allocatorINS_6vectorImNS1_ImEEEEEEE9constructB8ue170006IS4_JS4_EvEEvRS5_PT_DpOT0_, symObjAddr: 0x140FC, symBinAddr: 0x10001B9BC, symSize: 0x34 }
  - { offsetInCU: 0x783E7, offset: 0x855F0, size: 0x8, addend: 0x0, symName: __ZNKSt3__116reverse_iteratorIPNS_6vectorImNS_9allocatorImEEEEEdeB8ue170006Ev, symObjAddr: 0x14154, symBinAddr: 0x10001BA14, symSize: 0x28 }
  - { offsetInCU: 0x7841A, offset: 0x85623, size: 0x8, addend: 0x0, symName: __ZNSt3__116reverse_iteratorIPNS_6vectorImNS_9allocatorImEEEEEppB8ue170006Ev, symObjAddr: 0x1417C, symBinAddr: 0x10001BA3C, symSize: 0x20 }
  - { offsetInCU: 0x7843F, offset: 0x85648, size: 0x8, addend: 0x0, symName: __ZNSt3__128__exception_guard_exceptionsINS_29_AllocatorDestroyRangeReverseINS_9allocatorINS_6vectorImNS2_ImEEEEEENS_16reverse_iteratorIPS5_EEEEE10__completeB8ue170006Ev, symObjAddr: 0x1419C, symBinAddr: 0x10001BA5C, symSize: 0x1C }
  - { offsetInCU: 0x78464, offset: 0x8566D, size: 0x8, addend: 0x0, symName: __ZNSt3__128__exception_guard_exceptionsINS_29_AllocatorDestroyRangeReverseINS_9allocatorINS_6vectorImNS2_ImEEEEEENS_16reverse_iteratorIPS5_EEEEED1B8ue170006Ev, symObjAddr: 0x141B8, symBinAddr: 0x10001BA78, symSize: 0x2C }
  - { offsetInCU: 0x7848D, offset: 0x85696, size: 0x8, addend: 0x0, symName: __ZNSt3__128__exception_guard_exceptionsINS_29_AllocatorDestroyRangeReverseINS_9allocatorINS_6vectorImNS2_ImEEEEEENS_16reverse_iteratorIPS5_EEEEEC1B8ue170006ESA_, symObjAddr: 0x141E4, symBinAddr: 0x10001BAA4, symSize: 0x34 }
  - { offsetInCU: 0x784C5, offset: 0x856CE, size: 0x8, addend: 0x0, symName: __ZNSt3__128__exception_guard_exceptionsINS_29_AllocatorDestroyRangeReverseINS_9allocatorINS_6vectorImNS2_ImEEEEEENS_16reverse_iteratorIPS5_EEEEEC2B8ue170006ESA_, symObjAddr: 0x14218, symBinAddr: 0x10001BAD8, symSize: 0x30 }
  - { offsetInCU: 0x784FD, offset: 0x85706, size: 0x8, addend: 0x0, symName: __ZNSt3__129_AllocatorDestroyRangeReverseINS_9allocatorINS_6vectorImNS1_ImEEEEEENS_16reverse_iteratorIPS4_EEEC2B8ue170006ERS5_RS8_SB_, symObjAddr: 0x14248, symBinAddr: 0x10001BB08, symSize: 0x38 }
  - { offsetInCU: 0x78553, offset: 0x8575C, size: 0x8, addend: 0x0, symName: __ZNSt3__19allocatorINS_6vectorImNS0_ImEEEEE9constructB8ue170006IS3_JS3_EEEvPT_DpOT0_, symObjAddr: 0x14280, symBinAddr: 0x10001BB40, symSize: 0x30 }
  - { offsetInCU: 0x785A8, offset: 0x857B1, size: 0x8, addend: 0x0, symName: __ZNSt3__16vectorImNS_9allocatorImEEEC1B8ue170006EOS3_, symObjAddr: 0x142B0, symBinAddr: 0x10001BB70, symSize: 0x34 }
  - { offsetInCU: 0x785E2, offset: 0x857EB, size: 0x8, addend: 0x0, symName: __ZNSt3__16vectorImNS_9allocatorImEEEC2B8ue170006EOS3_, symObjAddr: 0x142E4, symBinAddr: 0x10001BBA4, symSize: 0xC4 }
  - { offsetInCU: 0x7861C, offset: 0x85825, size: 0x8, addend: 0x0, symName: __ZNSt3__16vectorImNS_9allocatorImEEE7__allocB8ue170006Ev, symObjAddr: 0x143A8, symBinAddr: 0x10001BC68, symSize: 0x28 }
  - { offsetInCU: 0x78646, offset: 0x8584F, size: 0x8, addend: 0x0, symName: __ZNSt3__117__compressed_pairIPmNS_9allocatorImEEEC1B8ue170006IDnS3_EEOT_OT0_, symObjAddr: 0x143D0, symBinAddr: 0x10001BC90, symSize: 0x3C }
  - { offsetInCU: 0x7869D, offset: 0x858A6, size: 0x8, addend: 0x0, symName: __ZNSt3__16vectorImNS_9allocatorImEEE9__end_capB8ue170006Ev, symObjAddr: 0x1440C, symBinAddr: 0x10001BCCC, symSize: 0x28 }
  - { offsetInCU: 0x786C2, offset: 0x858CB, size: 0x8, addend: 0x0, symName: __ZNSt3__117__compressed_pairIPmNS_9allocatorImEEE6secondB8ue170006Ev, symObjAddr: 0x14434, symBinAddr: 0x10001BCF4, symSize: 0x24 }
  - { offsetInCU: 0x786E7, offset: 0x858F0, size: 0x8, addend: 0x0, symName: __ZNSt3__122__compressed_pair_elemINS_9allocatorImEELi1ELb1EE5__getB8ue170006Ev, symObjAddr: 0x14458, symBinAddr: 0x10001BD18, symSize: 0x14 }
  - { offsetInCU: 0x7870C, offset: 0x85915, size: 0x8, addend: 0x0, symName: __ZNSt3__117__compressed_pairIPmNS_9allocatorImEEEC2B8ue170006IDnS3_EEOT_OT0_, symObjAddr: 0x1446C, symBinAddr: 0x10001BD2C, symSize: 0x44 }
  - { offsetInCU: 0x78763, offset: 0x8596C, size: 0x8, addend: 0x0, symName: __ZNSt3__122__compressed_pair_elemINS_9allocatorImEELi1ELb1EEC2B8ue170006IS2_vEEOT_, symObjAddr: 0x144B0, symBinAddr: 0x10001BD70, symSize: 0x18 }
  - { offsetInCU: 0x787A4, offset: 0x859AD, size: 0x8, addend: 0x0, symName: __ZNSt3__117__compressed_pairIPmNS_9allocatorImEEE5firstB8ue170006Ev, symObjAddr: 0x144C8, symBinAddr: 0x10001BD88, symSize: 0x24 }
  - { offsetInCU: 0x787C9, offset: 0x859D2, size: 0x8, addend: 0x0, symName: __ZNSt3__122__compressed_pair_elemIPmLi0ELb0EE5__getB8ue170006Ev, symObjAddr: 0x144EC, symBinAddr: 0x10001BDAC, symSize: 0x14 }
  - { offsetInCU: 0x787F3, offset: 0x859FC, size: 0x8, addend: 0x0, symName: __ZNSt3__119__to_address_helperINS_16reverse_iteratorIPNS_6vectorImNS_9allocatorImEEEEEEvE6__callB8ue170006ERKS7_, symObjAddr: 0x14500, symBinAddr: 0x10001BDC0, symSize: 0x38 }
  - { offsetInCU: 0x78816, offset: 0x85A1F, size: 0x8, addend: 0x0, symName: __ZNKSt3__116reverse_iteratorIPNS_6vectorImNS_9allocatorImEEEEEptB8ue170006Ev, symObjAddr: 0x14538, symBinAddr: 0x10001BDF8, symSize: 0x24 }
  - { offsetInCU: 0x7883B, offset: 0x85A44, size: 0x8, addend: 0x0, symName: __ZNSt3__128__exception_guard_exceptionsINS_29_AllocatorDestroyRangeReverseINS_9allocatorINS_6vectorImNS2_ImEEEEEENS_16reverse_iteratorIPS5_EEEEED2B8ue170006Ev, symObjAddr: 0x1455C, symBinAddr: 0x10001BE1C, symSize: 0x50 }
  - { offsetInCU: 0x78864, offset: 0x85A6D, size: 0x8, addend: 0x0, symName: __ZNKSt3__129_AllocatorDestroyRangeReverseINS_9allocatorINS_6vectorImNS1_ImEEEEEENS_16reverse_iteratorIPS4_EEEclB8ue170006Ev, symObjAddr: 0x145AC, symBinAddr: 0x10001BE6C, symSize: 0xB4 }
  - { offsetInCU: 0x7888A, offset: 0x85A93, size: 0x8, addend: 0x0, symName: __ZNSt3__116reverse_iteratorINS0_IPNS_6vectorImNS_9allocatorImEEEEEEEC1B8ue170006ES6_, symObjAddr: 0x146D0, symBinAddr: 0x10001BF90, symSize: 0x3C }
  - { offsetInCU: 0x788C1, offset: 0x85ACA, size: 0x8, addend: 0x0, symName: __ZNSt3__116allocator_traitsINS_9allocatorINS_6vectorImNS1_ImEEEEEEE7destroyB8ue170006IS4_vEEvRS5_PT_, symObjAddr: 0x1476C, symBinAddr: 0x10001C02C, symSize: 0x2C }
  - { offsetInCU: 0x788FE, offset: 0x85B07, size: 0x8, addend: 0x0, symName: __ZNSt3__116reverse_iteratorINS0_IPNS_6vectorImNS_9allocatorImEEEEEEEppB8ue170006Ev, symObjAddr: 0x147BC, symBinAddr: 0x10001C07C, symSize: 0x30 }
  - { offsetInCU: 0x78923, offset: 0x85B2C, size: 0x8, addend: 0x0, symName: __ZNKSt3__116reverse_iteratorINS0_IPNS_6vectorImNS_9allocatorImEEEEEEE4baseB8ue170006Ev, symObjAddr: 0x147EC, symBinAddr: 0x10001C0AC, symSize: 0x24 }
  - { offsetInCU: 0x78948, offset: 0x85B51, size: 0x8, addend: 0x0, symName: __ZNSt3__19allocatorINS_6vectorImNS0_ImEEEEE7destroyB8ue170006EPS3_, symObjAddr: 0x14810, symBinAddr: 0x10001C0D0, symSize: 0x28 }
  - { offsetInCU: 0x7897B, offset: 0x85B84, size: 0x8, addend: 0x0, symName: __ZNSt3__16vectorImNS_9allocatorImEEED1B8ue170006Ev, symObjAddr: 0x14838, symBinAddr: 0x10001C0F8, symSize: 0x2C }
  - { offsetInCU: 0x789A4, offset: 0x85BAD, size: 0x8, addend: 0x0, symName: __ZNSt3__16vectorImNS_9allocatorImEEED2B8ue170006Ev, symObjAddr: 0x14864, symBinAddr: 0x10001C124, symSize: 0x44 }
  - { offsetInCU: 0x789CD, offset: 0x85BD6, size: 0x8, addend: 0x0, symName: __ZNSt3__16vectorImNS_9allocatorImEEE16__destroy_vectorC1B8ue170006ERS3_, symObjAddr: 0x148A8, symBinAddr: 0x10001C168, symSize: 0x34 }
  - { offsetInCU: 0x78A05, offset: 0x85C0E, size: 0x8, addend: 0x0, symName: __ZNSt3__16vectorImNS_9allocatorImEEE16__destroy_vectorclB8ue170006Ev, symObjAddr: 0x148DC, symBinAddr: 0x10001C19C, symSize: 0x90 }
  - { offsetInCU: 0x78A2A, offset: 0x85C33, size: 0x8, addend: 0x0, symName: __ZNSt3__16vectorImNS_9allocatorImEEE16__destroy_vectorC2B8ue170006ERS3_, symObjAddr: 0x1496C, symBinAddr: 0x10001C22C, symSize: 0x20 }
  - { offsetInCU: 0x78A62, offset: 0x85C6B, size: 0x8, addend: 0x0, symName: __ZNSt3__16vectorImNS_9allocatorImEEE7__clearB8ue170006Ev, symObjAddr: 0x1498C, symBinAddr: 0x10001C24C, symSize: 0x28 }
  - { offsetInCU: 0x78A87, offset: 0x85C90, size: 0x8, addend: 0x0, symName: __ZNKSt3__16vectorImNS_9allocatorImEEE17__annotate_deleteB8ue170006Ev, symObjAddr: 0x149B4, symBinAddr: 0x10001C274, symSize: 0xB8 }
  - { offsetInCU: 0x78AAC, offset: 0x85CB5, size: 0x8, addend: 0x0, symName: __ZNSt3__116allocator_traitsINS_9allocatorImEEE10deallocateB8ue170006ERS2_Pmm, symObjAddr: 0x14A6C, symBinAddr: 0x10001C32C, symSize: 0x34 }
  - { offsetInCU: 0x78AEE, offset: 0x85CF7, size: 0x8, addend: 0x0, symName: __ZNKSt3__16vectorImNS_9allocatorImEEE8capacityB8ue170006Ev, symObjAddr: 0x14AA0, symBinAddr: 0x10001C360, symSize: 0x40 }
  - { offsetInCU: 0x78B13, offset: 0x85D1C, size: 0x8, addend: 0x0, symName: __ZNSt3__16vectorImNS_9allocatorImEEE22__base_destruct_at_endB8ue170006EPm, symObjAddr: 0x14AE0, symBinAddr: 0x10001C3A0, symSize: 0x8C }
  - { offsetInCU: 0x78B56, offset: 0x85D5F, size: 0x8, addend: 0x0, symName: __ZNSt3__116allocator_traitsINS_9allocatorImEEE7destroyB8ue170006ImvEEvRS2_PT_, symObjAddr: 0x14B6C, symBinAddr: 0x10001C42C, symSize: 0x2C }
  - { offsetInCU: 0x78B93, offset: 0x85D9C, size: 0x8, addend: 0x0, symName: __ZNSt3__19allocatorImE7destroyB8ue170006EPm, symObjAddr: 0x14BAC, symBinAddr: 0x10001C46C, symSize: 0x14 }
  - { offsetInCU: 0x78BC6, offset: 0x85DCF, size: 0x8, addend: 0x0, symName: __ZNKSt3__16vectorImNS_9allocatorImEEE31__annotate_contiguous_containerB8ue170006EPKvS5_S5_S5_, symObjAddr: 0x14BC0, symBinAddr: 0x10001C480, symSize: 0x20 }
  - { offsetInCU: 0x78C17, offset: 0x85E20, size: 0x8, addend: 0x0, symName: __ZNKSt3__16vectorImNS_9allocatorImEEE4dataB8ue170006Ev, symObjAddr: 0x14BE0, symBinAddr: 0x10001C4A0, symSize: 0x28 }
  - { offsetInCU: 0x78C3C, offset: 0x85E45, size: 0x8, addend: 0x0, symName: __ZNSt3__19allocatorImE10deallocateB8ue170006EPmm, symObjAddr: 0x14C08, symBinAddr: 0x10001C4C8, symSize: 0x40 }
  - { offsetInCU: 0x78C7D, offset: 0x85E86, size: 0x8, addend: 0x0, symName: __ZNKSt3__16vectorImNS_9allocatorImEEE9__end_capB8ue170006Ev, symObjAddr: 0x14C48, symBinAddr: 0x10001C508, symSize: 0x28 }
  - { offsetInCU: 0x78CA2, offset: 0x85EAB, size: 0x8, addend: 0x0, symName: __ZNKSt3__117__compressed_pairIPmNS_9allocatorImEEE5firstB8ue170006Ev, symObjAddr: 0x14C70, symBinAddr: 0x10001C530, symSize: 0x24 }
  - { offsetInCU: 0x78CC7, offset: 0x85ED0, size: 0x8, addend: 0x0, symName: __ZNKSt3__122__compressed_pair_elemIPmLi0ELb0EE5__getB8ue170006Ev, symObjAddr: 0x14C94, symBinAddr: 0x10001C554, symSize: 0x14 }
  - { offsetInCU: 0x78CF1, offset: 0x85EFA, size: 0x8, addend: 0x0, symName: __ZNSt3__119__to_address_helperINS_16reverse_iteratorINS1_IPNS_6vectorImNS_9allocatorImEEEEEEEEvE6__callB8ue170006ERKS8_, symObjAddr: 0x14CA8, symBinAddr: 0x10001C568, symSize: 0x38 }
  - { offsetInCU: 0x78D14, offset: 0x85F1D, size: 0x8, addend: 0x0, symName: __ZNKSt3__116reverse_iteratorINS0_IPNS_6vectorImNS_9allocatorImEEEEEEEptB8ue170006Ev, symObjAddr: 0x14CE0, symBinAddr: 0x10001C5A0, symSize: 0x24 }
  - { offsetInCU: 0x78D39, offset: 0x85F42, size: 0x8, addend: 0x0, symName: __ZNKSt3__116reverse_iteratorINS0_IPNS_6vectorImNS_9allocatorImEEEEEEEdeB8ue170006Ev, symObjAddr: 0x14D04, symBinAddr: 0x10001C5C4, symSize: 0x34 }
  - { offsetInCU: 0x78D6C, offset: 0x85F75, size: 0x8, addend: 0x0, symName: __ZNSt3__116reverse_iteratorIPNS_6vectorImNS_9allocatorImEEEEEmmB8ue170006Ev, symObjAddr: 0x14D38, symBinAddr: 0x10001C5F8, symSize: 0x20 }
  - { offsetInCU: 0x78D91, offset: 0x85F9A, size: 0x8, addend: 0x0, symName: __ZNSt3__116reverse_iteratorINS0_IPNS_6vectorImNS_9allocatorImEEEEEEEC2B8ue170006ES6_, symObjAddr: 0x14D58, symBinAddr: 0x10001C618, symSize: 0x2C }
  - { offsetInCU: 0x78DC8, offset: 0x85FD1, size: 0x8, addend: 0x0, symName: __ZNSt3__116reverse_iteratorIPNS_6vectorImNS_9allocatorImEEEEEC2B8ue170006ES5_, symObjAddr: 0x14D84, symBinAddr: 0x10001C644, symSize: 0x28 }
  - { offsetInCU: 0x78DFF, offset: 0x86008, size: 0x8, addend: 0x0, symName: __ZNSt3__114__split_bufferINS_6vectorImNS_9allocatorImEEEERNS2_IS4_EEED2Ev, symObjAddr: 0x14DAC, symBinAddr: 0x10001C66C, symSize: 0x8C }
  - { offsetInCU: 0x78E2A, offset: 0x86033, size: 0x8, addend: 0x0, symName: __ZNSt3__114__split_bufferINS_6vectorImNS_9allocatorImEEEERNS2_IS4_EEE5clearB8ue170006Ev, symObjAddr: 0x14E38, symBinAddr: 0x10001C6F8, symSize: 0x28 }
  - { offsetInCU: 0x78E4F, offset: 0x86058, size: 0x8, addend: 0x0, symName: __ZNSt3__116allocator_traitsINS_9allocatorINS_6vectorImNS1_ImEEEEEEE10deallocateB8ue170006ERS5_PS4_m, symObjAddr: 0x14E60, symBinAddr: 0x10001C720, symSize: 0x34 }
  - { offsetInCU: 0x78E91, offset: 0x8609A, size: 0x8, addend: 0x0, symName: __ZNKSt3__114__split_bufferINS_6vectorImNS_9allocatorImEEEERNS2_IS4_EEE8capacityB8ue170006Ev, symObjAddr: 0x14E94, symBinAddr: 0x10001C754, symSize: 0x40 }
  - { offsetInCU: 0x78EB6, offset: 0x860BF, size: 0x8, addend: 0x0, symName: __ZNSt3__114__split_bufferINS_6vectorImNS_9allocatorImEEEERNS2_IS4_EEE17__destruct_at_endB8ue170006EPS4_, symObjAddr: 0x14ED4, symBinAddr: 0x10001C794, symSize: 0x2C }
  - { offsetInCU: 0x78EE9, offset: 0x860F2, size: 0x8, addend: 0x0, symName: __ZNSt3__114__split_bufferINS_6vectorImNS_9allocatorImEEEERNS2_IS4_EEE17__destruct_at_endB8ue170006EPS4_NS_17integral_constantIbLb0EEE, symObjAddr: 0x14F00, symBinAddr: 0x10001C7C0, symSize: 0x80 }
  - { offsetInCU: 0x78F27, offset: 0x86130, size: 0x8, addend: 0x0, symName: __ZNSt3__19allocatorINS_6vectorImNS0_ImEEEEE10deallocateB8ue170006EPS3_m, symObjAddr: 0x14F80, symBinAddr: 0x10001C840, symSize: 0x44 }
  - { offsetInCU: 0x78F68, offset: 0x86171, size: 0x8, addend: 0x0, symName: __ZNKSt3__114__split_bufferINS_6vectorImNS_9allocatorImEEEERNS2_IS4_EEE9__end_capB8ue170006Ev, symObjAddr: 0x14FC4, symBinAddr: 0x10001C884, symSize: 0x28 }
  - { offsetInCU: 0x78F8D, offset: 0x86196, size: 0x8, addend: 0x0, symName: __ZNKSt3__117__compressed_pairIPNS_6vectorImNS_9allocatorImEEEERNS2_IS4_EEE5firstB8ue170006Ev, symObjAddr: 0x14FEC, symBinAddr: 0x10001C8AC, symSize: 0x24 }
  - { offsetInCU: 0x78FB2, offset: 0x861BB, size: 0x8, addend: 0x0, symName: __ZNSt3__16vectorImNS_9allocatorImEEE6resizeEm, symObjAddr: 0x15010, symBinAddr: 0x10001C8D0, symSize: 0x94 }
  - { offsetInCU: 0x78FF6, offset: 0x861FF, size: 0x8, addend: 0x0, symName: __ZNSt3__16vectorImNS_9allocatorImEEE8__appendEm, symObjAddr: 0x150A4, symBinAddr: 0x10001C964, symSize: 0x108 }
  - { offsetInCU: 0x7904F, offset: 0x86258, size: 0x8, addend: 0x0, symName: __ZNSt3__16vectorImNS_9allocatorImEEE17__destruct_at_endB8ue170006EPm, symObjAddr: 0x151AC, symBinAddr: 0x10001CA6C, symSize: 0x4C }
  - { offsetInCU: 0x79092, offset: 0x8629B, size: 0x8, addend: 0x0, symName: __ZNSt3__16vectorImNS_9allocatorImEEE18__construct_at_endEm, symObjAddr: 0x151F8, symBinAddr: 0x10001CAB8, symSize: 0xC8 }
  - { offsetInCU: 0x79102, offset: 0x8630B, size: 0x8, addend: 0x0, symName: __ZNKSt3__16vectorImNS_9allocatorImEEE11__recommendB8ue170006Em, symObjAddr: 0x152C0, symBinAddr: 0x10001CB80, symSize: 0xB4 }
  - { offsetInCU: 0x79155, offset: 0x8635E, size: 0x8, addend: 0x0, symName: __ZNSt3__114__split_bufferImRNS_9allocatorImEEEC1EmmS3_, symObjAddr: 0x15374, symBinAddr: 0x10001CC34, symSize: 0x44 }
  - { offsetInCU: 0x791AA, offset: 0x863B3, size: 0x8, addend: 0x0, symName: __ZNSt3__114__split_bufferImRNS_9allocatorImEEE18__construct_at_endEm, symObjAddr: 0x153B8, symBinAddr: 0x10001CC78, symSize: 0xB4 }
  - { offsetInCU: 0x791ED, offset: 0x863F6, size: 0x8, addend: 0x0, symName: __ZNSt3__114__split_bufferImRNS_9allocatorImEEED1Ev, symObjAddr: 0x1557C, symBinAddr: 0x10001CE3C, symSize: 0x2C }
  - { offsetInCU: 0x79231, offset: 0x8643A, size: 0x8, addend: 0x0, symName: __ZNSt3__16vectorImNS_9allocatorImEEE21_ConstructTransactionC1B8ue170006ERS3_m, symObjAddr: 0x155A8, symBinAddr: 0x10001CE68, symSize: 0x3C }
  - { offsetInCU: 0x79278, offset: 0x86481, size: 0x8, addend: 0x0, symName: __ZNSt3__116allocator_traitsINS_9allocatorImEEE9constructB8ue170006ImJEvEEvRS2_PT_DpOT0_, symObjAddr: 0x155E4, symBinAddr: 0x10001CEA4, symSize: 0x2C }
  - { offsetInCU: 0x792BA, offset: 0x864C3, size: 0x8, addend: 0x0, symName: __ZNSt3__16vectorImNS_9allocatorImEEE21_ConstructTransactionD1B8ue170006Ev, symObjAddr: 0x15610, symBinAddr: 0x10001CED0, symSize: 0x2C }
  - { offsetInCU: 0x792E3, offset: 0x864EC, size: 0x8, addend: 0x0, symName: __ZNSt3__16vectorImNS_9allocatorImEEE21_ConstructTransactionC2B8ue170006ERS3_m, symObjAddr: 0x1563C, symBinAddr: 0x10001CEFC, symSize: 0x44 }
  - { offsetInCU: 0x7932A, offset: 0x86533, size: 0x8, addend: 0x0, symName: __ZNSt3__19allocatorImE9constructB8ue170006ImJEEEvPT_DpOT0_, symObjAddr: 0x15680, symBinAddr: 0x10001CF40, symSize: 0x1C }
  - { offsetInCU: 0x7936B, offset: 0x86574, size: 0x8, addend: 0x0, symName: __ZNSt3__16vectorImNS_9allocatorImEEE21_ConstructTransactionD2B8ue170006Ev, symObjAddr: 0x1569C, symBinAddr: 0x10001CF5C, symSize: 0x20 }
  - { offsetInCU: 0x79394, offset: 0x8659D, size: 0x8, addend: 0x0, symName: __ZNKSt3__16vectorImNS_9allocatorImEEE8max_sizeEv, symObjAddr: 0x156BC, symBinAddr: 0x10001CF7C, symSize: 0x60 }
  - { offsetInCU: 0x793BA, offset: 0x865C3, size: 0x8, addend: 0x0, symName: __ZNKSt3__16vectorImNS_9allocatorImEEE20__throw_length_errorB8ue170006Ev, symObjAddr: 0x1571C, symBinAddr: 0x10001CFDC, symSize: 0x1C }
  - { offsetInCU: 0x793E9, offset: 0x865F2, size: 0x8, addend: 0x0, symName: __ZNSt3__116allocator_traitsINS_9allocatorImEEE8max_sizeB8ue170006IS2_vEEmRKS2_, symObjAddr: 0x15738, symBinAddr: 0x10001CFF8, symSize: 0x24 }
  - { offsetInCU: 0x79417, offset: 0x86620, size: 0x8, addend: 0x0, symName: __ZNKSt3__16vectorImNS_9allocatorImEEE7__allocB8ue170006Ev, symObjAddr: 0x1575C, symBinAddr: 0x10001D01C, symSize: 0x28 }
  - { offsetInCU: 0x7943C, offset: 0x86645, size: 0x8, addend: 0x0, symName: __ZNKSt3__19allocatorImE8max_sizeB8ue170006Ev, symObjAddr: 0x15784, symBinAddr: 0x10001D044, symSize: 0x14 }
  - { offsetInCU: 0x79461, offset: 0x8666A, size: 0x8, addend: 0x0, symName: __ZNKSt3__117__compressed_pairIPmNS_9allocatorImEEE6secondB8ue170006Ev, symObjAddr: 0x15798, symBinAddr: 0x10001D058, symSize: 0x24 }
  - { offsetInCU: 0x79486, offset: 0x8668F, size: 0x8, addend: 0x0, symName: __ZNKSt3__122__compressed_pair_elemINS_9allocatorImEELi1ELb1EE5__getB8ue170006Ev, symObjAddr: 0x157BC, symBinAddr: 0x10001D07C, symSize: 0x14 }
  - { offsetInCU: 0x794AB, offset: 0x866B4, size: 0x8, addend: 0x0, symName: __ZNSt3__114__split_bufferImRNS_9allocatorImEEEC2EmmS3_, symObjAddr: 0x157D0, symBinAddr: 0x10001D090, symSize: 0xD4 }
  - { offsetInCU: 0x7951D, offset: 0x86726, size: 0x8, addend: 0x0, symName: __ZNSt3__117__compressed_pairIPmRNS_9allocatorImEEEC1B8ue170006IDnS4_EEOT_OT0_, symObjAddr: 0x158A4, symBinAddr: 0x10001D164, symSize: 0x3C }
  - { offsetInCU: 0x79574, offset: 0x8677D, size: 0x8, addend: 0x0, symName: __ZNSt3__114__split_bufferImRNS_9allocatorImEEE7__allocB8ue170006Ev, symObjAddr: 0x15920, symBinAddr: 0x10001D1E0, symSize: 0x28 }
  - { offsetInCU: 0x79599, offset: 0x867A2, size: 0x8, addend: 0x0, symName: __ZNSt3__114__split_bufferImRNS_9allocatorImEEE9__end_capB8ue170006Ev, symObjAddr: 0x15948, symBinAddr: 0x10001D208, symSize: 0x28 }
  - { offsetInCU: 0x795BE, offset: 0x867C7, size: 0x8, addend: 0x0, symName: __ZNSt3__117__compressed_pairIPmRNS_9allocatorImEEEC2B8ue170006IDnS4_EEOT_OT0_, symObjAddr: 0x15970, symBinAddr: 0x10001D230, symSize: 0x48 }
  - { offsetInCU: 0x79615, offset: 0x8681E, size: 0x8, addend: 0x0, symName: __ZNSt3__122__compressed_pair_elemIRNS_9allocatorImEELi1ELb0EEC2B8ue170006IS3_vEEOT_, symObjAddr: 0x159B8, symBinAddr: 0x10001D278, symSize: 0x20 }
  - { offsetInCU: 0x79656, offset: 0x8685F, size: 0x8, addend: 0x0, symName: __ZNSt3__19allocatorImE8allocateB8ue170006Em, symObjAddr: 0x159D8, symBinAddr: 0x10001D298, symSize: 0x58 }
  - { offsetInCU: 0x79689, offset: 0x86892, size: 0x8, addend: 0x0, symName: __ZNSt3__117__compressed_pairIPmRNS_9allocatorImEEE6secondB8ue170006Ev, symObjAddr: 0x15A30, symBinAddr: 0x10001D2F0, symSize: 0x28 }
  - { offsetInCU: 0x796AE, offset: 0x868B7, size: 0x8, addend: 0x0, symName: __ZNSt3__122__compressed_pair_elemIRNS_9allocatorImEELi1ELb0EE5__getB8ue170006Ev, symObjAddr: 0x15A58, symBinAddr: 0x10001D318, symSize: 0x18 }
  - { offsetInCU: 0x796D3, offset: 0x868DC, size: 0x8, addend: 0x0, symName: __ZNSt3__117__compressed_pairIPmRNS_9allocatorImEEE5firstB8ue170006Ev, symObjAddr: 0x15A70, symBinAddr: 0x10001D330, symSize: 0x24 }
  - { offsetInCU: 0x79702, offset: 0x8690B, size: 0x8, addend: 0x0, symName: __ZNSt3__114__split_bufferImRNS_9allocatorImEEE21_ConstructTransactionC1B8ue170006EPPmm, symObjAddr: 0x15A94, symBinAddr: 0x10001D354, symSize: 0x3C }
  - { offsetInCU: 0x79747, offset: 0x86950, size: 0x8, addend: 0x0, symName: __ZNSt3__114__split_bufferImRNS_9allocatorImEEE21_ConstructTransactionD1B8ue170006Ev, symObjAddr: 0x15AD0, symBinAddr: 0x10001D390, symSize: 0x2C }
  - { offsetInCU: 0x79770, offset: 0x86979, size: 0x8, addend: 0x0, symName: __ZNSt3__114__split_bufferImRNS_9allocatorImEEE21_ConstructTransactionC2B8ue170006EPPmm, symObjAddr: 0x15AFC, symBinAddr: 0x10001D3BC, symSize: 0x44 }
  - { offsetInCU: 0x797B5, offset: 0x869BE, size: 0x8, addend: 0x0, symName: __ZNSt3__114__split_bufferImRNS_9allocatorImEEE21_ConstructTransactionD2B8ue170006Ev, symObjAddr: 0x15B40, symBinAddr: 0x10001D400, symSize: 0x20 }
  - { offsetInCU: 0x797DE, offset: 0x869E7, size: 0x8, addend: 0x0, symName: __ZNSt3__116reverse_iteratorIPmEC1B8ue170006ES1_, symObjAddr: 0x15BD8, symBinAddr: 0x10001D498, symSize: 0x34 }
  - { offsetInCU: 0x79815, offset: 0x86A1E, size: 0x8, addend: 0x0, symName: __ZNKSt3__116reverse_iteratorIPmE4baseB8ue170006Ev, symObjAddr: 0x15C0C, symBinAddr: 0x10001D4CC, symSize: 0x18 }
  - { offsetInCU: 0x7983A, offset: 0x86A43, size: 0x8, addend: 0x0, symName: __ZNKSt3__16vectorImNS_9allocatorImEEE14__annotate_newB8ue170006Em, symObjAddr: 0x15C60, symBinAddr: 0x10001D520, symSize: 0xAC }
  - { offsetInCU: 0x79887, offset: 0x86A90, size: 0x8, addend: 0x0, symName: __ZNKSt3__111__move_loopINS_17_ClassicAlgPolicyEEclB8ue170006INS_16reverse_iteratorIPmEES6_S6_EENS_4pairIT_T1_EES8_T0_S9_, symObjAddr: 0x15FFC, symBinAddr: 0x10001D8BC, symSize: 0xA0 }
  - { offsetInCU: 0x798FC, offset: 0x86B05, size: 0x8, addend: 0x0, symName: __ZNSt3__18_IterOpsINS_17_ClassicAlgPolicyEE11__iter_moveB8ue170006IRNS_16reverse_iteratorIPmEEEENS_9enable_ifIXsr12is_referenceIDTdeclsr3stdE7declvalIRT_EEEEE5valueEDTclsr3stdE4movedeclsr3stdE7declvalISA_EEEEE4typeEOS9_, symObjAddr: 0x16230, symBinAddr: 0x10001DAF0, symSize: 0x28 }
  - { offsetInCU: 0x7992A, offset: 0x86B33, size: 0x8, addend: 0x0, symName: __ZNKSt3__116reverse_iteratorIPmEdeB8ue170006Ev, symObjAddr: 0x16258, symBinAddr: 0x10001DB18, symSize: 0x28 }
  - { offsetInCU: 0x7995D, offset: 0x86B66, size: 0x8, addend: 0x0, symName: __ZNSt3__116reverse_iteratorIPmEppB8ue170006Ev, symObjAddr: 0x16280, symBinAddr: 0x10001DB40, symSize: 0x20 }
  - { offsetInCU: 0x79982, offset: 0x86B8B, size: 0x8, addend: 0x0, symName: __ZNSt3__18_IterOpsINS_17_ClassicAlgPolicyEE25__validate_iter_referenceB8ue170006IRNS_16reverse_iteratorIPmEEEEvv, symObjAddr: 0x162A0, symBinAddr: 0x10001DB60, symSize: 0x4 }
  - { offsetInCU: 0x799A0, offset: 0x86BA9, size: 0x8, addend: 0x0, symName: __ZNSt3__118__unwrap_iter_implINS_16reverse_iteratorIPmEELb0EE8__unwrapB8ue170006ES3_, symObjAddr: 0x162A4, symBinAddr: 0x10001DB64, symSize: 0x24 }
  - { offsetInCU: 0x799CA, offset: 0x86BD3, size: 0x8, addend: 0x0, symName: __ZNSt3__14pairINS_16reverse_iteratorIPmEES3_EC1B8ue170006IS3_S3_LPv0EEEOT_OT0_, symObjAddr: 0x162C8, symBinAddr: 0x10001DB88, symSize: 0x3C }
  - { offsetInCU: 0x79A27, offset: 0x86C30, size: 0x8, addend: 0x0, symName: __ZNSt3__14pairINS_16reverse_iteratorIPmEES3_EC2B8ue170006IS3_S3_LPv0EEEOT_OT0_, symObjAddr: 0x16304, symBinAddr: 0x10001DBC4, symSize: 0x34 }
  - { offsetInCU: 0x79A84, offset: 0x86C8D, size: 0x8, addend: 0x0, symName: __ZNSt3__118__unwrap_iter_implINS_16reverse_iteratorIPmEELb0EE8__rewrapB8ue170006ES3_S3_, symObjAddr: 0x16338, symBinAddr: 0x10001DBF8, symSize: 0x2C }
  - { offsetInCU: 0x79AB5, offset: 0x86CBE, size: 0x8, addend: 0x0, symName: __ZNSt3__116reverse_iteratorIPmEC2B8ue170006ES1_, symObjAddr: 0x16364, symBinAddr: 0x10001DC24, symSize: 0x28 }
  - { offsetInCU: 0x79AEC, offset: 0x86CF5, size: 0x8, addend: 0x0, symName: __ZNSt3__114__split_bufferImRNS_9allocatorImEEED2Ev, symObjAddr: 0x1638C, symBinAddr: 0x10001DC4C, symSize: 0x8C }
  - { offsetInCU: 0x79B17, offset: 0x86D20, size: 0x8, addend: 0x0, symName: __ZNSt3__114__split_bufferImRNS_9allocatorImEEE5clearB8ue170006Ev, symObjAddr: 0x16418, symBinAddr: 0x10001DCD8, symSize: 0x28 }
  - { offsetInCU: 0x79B3C, offset: 0x86D45, size: 0x8, addend: 0x0, symName: __ZNKSt3__114__split_bufferImRNS_9allocatorImEEE8capacityB8ue170006Ev, symObjAddr: 0x16440, symBinAddr: 0x10001DD00, symSize: 0x40 }
  - { offsetInCU: 0x79B61, offset: 0x86D6A, size: 0x8, addend: 0x0, symName: __ZNSt3__114__split_bufferImRNS_9allocatorImEEE17__destruct_at_endB8ue170006EPm, symObjAddr: 0x16480, symBinAddr: 0x10001DD40, symSize: 0x2C }
  - { offsetInCU: 0x79B94, offset: 0x86D9D, size: 0x8, addend: 0x0, symName: __ZNSt3__114__split_bufferImRNS_9allocatorImEEE17__destruct_at_endB8ue170006EPmNS_17integral_constantIbLb0EEE, symObjAddr: 0x164AC, symBinAddr: 0x10001DD6C, symSize: 0x80 }
  - { offsetInCU: 0x79BD2, offset: 0x86DDB, size: 0x8, addend: 0x0, symName: __ZNKSt3__114__split_bufferImRNS_9allocatorImEEE9__end_capB8ue170006Ev, symObjAddr: 0x1652C, symBinAddr: 0x10001DDEC, symSize: 0x28 }
  - { offsetInCU: 0x79BF7, offset: 0x86E00, size: 0x8, addend: 0x0, symName: __ZNKSt3__117__compressed_pairIPmRNS_9allocatorImEEE5firstB8ue170006Ev, symObjAddr: 0x16554, symBinAddr: 0x10001DE14, symSize: 0x24 }
  - { offsetInCU: 0x79C1C, offset: 0x86E25, size: 0x8, addend: 0x0, symName: __ZNKSt3__16vectorImNS_9allocatorImEEE17__annotate_shrinkB8ue170006Em, symObjAddr: 0x16578, symBinAddr: 0x10001DE38, symSize: 0xB4 }
  - { offsetInCU: 0x79C50, offset: 0x86E59, size: 0x8, addend: 0x0, symName: __ZNKSt3__18ios_base3badB8ue170006Ev, symObjAddr: 0x1662C, symBinAddr: 0x10001DEEC, symSize: 0x24 }
  - { offsetInCU: 0x79C77, offset: 0x86E80, size: 0x8, addend: 0x0, symName: __ZNSt3__119basic_istringstreamIcNS_11char_traitsIcEENS_9allocatorIcEEED2Ev, symObjAddr: 0x16650, symBinAddr: 0x10001DF10, symSize: 0x64 }
  - { offsetInCU: 0x79CB0, offset: 0x86EB9, size: 0x8, addend: 0x0, symName: __ZTv0_n24_NSt3__119basic_istringstreamIcNS_11char_traitsIcEENS_9allocatorIcEEED1Ev, symObjAddr: 0x166B4, symBinAddr: 0x10001DF74, symSize: 0x28 }
  - { offsetInCU: 0x79CCD, offset: 0x86ED6, size: 0x8, addend: 0x0, symName: __ZNSt3__115basic_stringbufIcNS_11char_traitsIcEENS_9allocatorIcEEED1Ev, symObjAddr: 0x166DC, symBinAddr: 0x10001DF9C, symSize: 0x2C }
  - { offsetInCU: 0x79CFA, offset: 0x86F03, size: 0x8, addend: 0x0, symName: __ZNSt3__115basic_stringbufIcNS_11char_traitsIcEENS_9allocatorIcEEED2Ev, symObjAddr: 0x16708, symBinAddr: 0x10001DFC8, symSize: 0x48 }
  - { offsetInCU: 0x79D27, offset: 0x86F30, size: 0x8, addend: 0x0, symName: __ZN4CGAL25Named_function_parametersINSt3__120back_insert_iteratorINS1_6vectorINS_8Vector_3INS_16Simple_cartesianIdEEEENS1_9allocatorIS7_EEEEEENS_11internal_np31vertex_normal_output_iterator_tENSC_11No_propertyEEC1ERKSB_, symObjAddr: 0x16750, symBinAddr: 0x10001E010, symSize: 0x34 }
  - { offsetInCU: 0x79D5F, offset: 0x86F68, size: 0x8, addend: 0x0, symName: __ZN4CGAL25Named_function_parametersINSt3__120back_insert_iteratorINS1_6vectorINS_8Vector_3INS_16Simple_cartesianIdEEEENS1_9allocatorIS7_EEEEEENS_11internal_np31vertex_normal_output_iterator_tENSC_11No_propertyEEC2ERKSB_, symObjAddr: 0x16784, symBinAddr: 0x10001E044, symSize: 0x34 }
  - { offsetInCU: 0x79D97, offset: 0x86FA0, size: 0x8, addend: 0x0, symName: __ZN4CGAL11internal_np17Named_params_implINSt3__120back_insert_iteratorINS2_6vectorINS_8Vector_3INS_16Simple_cartesianIdEEEENS2_9allocatorIS8_EEEEEENS0_31vertex_normal_output_iterator_tENS0_11No_propertyEEC2ERKSC_, symObjAddr: 0x167B8, symBinAddr: 0x10001E078, symSize: 0x24 }
  - { offsetInCU: 0x79DCE, offset: 0x86FD7, size: 0x8, addend: 0x0, symName: __ZNSt3__120back_insert_iteratorINS_6vectorIN4CGAL8Vector_3INS2_16Simple_cartesianIdEEEENS_9allocatorIS6_EEEEEC1B8ue170006ERS9_, symObjAddr: 0x167DC, symBinAddr: 0x10001E09C, symSize: 0x34 }
  - { offsetInCU: 0x79E05, offset: 0x8700E, size: 0x8, addend: 0x0, symName: __ZNSt3__120back_insert_iteratorINS_6vectorIN4CGAL8Vector_3INS2_16Simple_cartesianIdEEEENS_9allocatorIS6_EEEEEC2B8ue170006ERS9_, symObjAddr: 0x16810, symBinAddr: 0x10001E0D0, symSize: 0x20 }
  - { offsetInCU: 0x79E3C, offset: 0x87045, size: 0x8, addend: 0x0, symName: __ZN4CGAL25Named_function_parametersINSt3__120back_insert_iteratorINS1_6vectorINS_2IO5ColorENS1_9allocatorIS5_EEEEEENS_11internal_np30vertex_color_output_iterator_tENS0_INS2_INS3_INS_8Vector_3INS_16Simple_cartesianIdEEEENS6_ISF_EEEEEENSA_31vertex_normal_output_iterator_tENSA_11No_propertyEEEEC1ERKS9_RKSL_, symObjAddr: 0x16830, symBinAddr: 0x10001E0F0, symSize: 0x3C }
  - { offsetInCU: 0x79E83, offset: 0x8708C, size: 0x8, addend: 0x0, symName: __ZN4CGAL25Named_function_parametersINSt3__120back_insert_iteratorINS1_6vectorINS_2IO5ColorENS1_9allocatorIS5_EEEEEENS_11internal_np30vertex_color_output_iterator_tENS0_INS2_INS3_INS_8Vector_3INS_16Simple_cartesianIdEEEENS6_ISF_EEEEEENSA_31vertex_normal_output_iterator_tENSA_11No_propertyEEEEC2ERKS9_RKSL_, symObjAddr: 0x1686C, symBinAddr: 0x10001E12C, symSize: 0x3C }
  - { offsetInCU: 0x79ECA, offset: 0x870D3, size: 0x8, addend: 0x0, symName: __ZN4CGAL11internal_np17Named_params_implINSt3__120back_insert_iteratorINS2_6vectorINS_2IO5ColorENS2_9allocatorIS6_EEEEEENS0_30vertex_color_output_iterator_tENS_25Named_function_parametersINS3_INS4_INS_8Vector_3INS_16Simple_cartesianIdEEEENS7_ISG_EEEEEENS0_31vertex_normal_output_iterator_tENS0_11No_propertyEEEEC2ERKSA_RKSM_, symObjAddr: 0x168A8, symBinAddr: 0x10001E168, symSize: 0x34 }
  - { offsetInCU: 0x79F0F, offset: 0x87118, size: 0x8, addend: 0x0, symName: __ZNSt3__120back_insert_iteratorINS_6vectorIN4CGAL2IO5ColorENS_9allocatorIS4_EEEEEC1B8ue170006ERS7_, symObjAddr: 0x168DC, symBinAddr: 0x10001E19C, symSize: 0x34 }
  - { offsetInCU: 0x79F46, offset: 0x8714F, size: 0x8, addend: 0x0, symName: __ZNSt3__120back_insert_iteratorINS_6vectorIN4CGAL2IO5ColorENS_9allocatorIS4_EEEEEC2B8ue170006ERS7_, symObjAddr: 0x16910, symBinAddr: 0x10001E1D0, symSize: 0x20 }
  - { offsetInCU: 0x79F7D, offset: 0x87186, size: 0x8, addend: 0x0, symName: __ZN4CGAL25Named_function_parametersINSt3__120back_insert_iteratorINS1_6vectorINS_7Point_2INS_16Simple_cartesianIdEEEENS1_9allocatorIS7_EEEEEENS_11internal_np32vertex_texture_output_iterator_tENS0_INS2_INS3_INS_2IO5ColorENS8_ISF_EEEEEENSC_30vertex_color_output_iterator_tENS0_INS2_INS3_INS_8Vector_3IS6_EENS8_ISL_EEEEEENSC_31vertex_normal_output_iterator_tENSC_11No_propertyEEEEEEC1ERKSB_RKSS_, symObjAddr: 0x16930, symBinAddr: 0x10001E1F0, symSize: 0x3C }
  - { offsetInCU: 0x79FC4, offset: 0x871CD, size: 0x8, addend: 0x0, symName: __ZN4CGAL25Named_function_parametersINSt3__120back_insert_iteratorINS1_6vectorINS_7Point_2INS_16Simple_cartesianIdEEEENS1_9allocatorIS7_EEEEEENS_11internal_np32vertex_texture_output_iterator_tENS0_INS2_INS3_INS_2IO5ColorENS8_ISF_EEEEEENSC_30vertex_color_output_iterator_tENS0_INS2_INS3_INS_8Vector_3IS6_EENS8_ISL_EEEEEENSC_31vertex_normal_output_iterator_tENSC_11No_propertyEEEEEEC2ERKSB_RKSS_, symObjAddr: 0x1696C, symBinAddr: 0x10001E22C, symSize: 0x3C }
  - { offsetInCU: 0x7A00B, offset: 0x87214, size: 0x8, addend: 0x0, symName: __ZN4CGAL11internal_np17Named_params_implINSt3__120back_insert_iteratorINS2_6vectorINS_7Point_2INS_16Simple_cartesianIdEEEENS2_9allocatorIS8_EEEEEENS0_32vertex_texture_output_iterator_tENS_25Named_function_parametersINS3_INS4_INS_2IO5ColorENS9_ISG_EEEEEENS0_30vertex_color_output_iterator_tENSE_INS3_INS4_INS_8Vector_3IS7_EENS9_ISM_EEEEEENS0_31vertex_normal_output_iterator_tENS0_11No_propertyEEEEEEC2ERKSC_RKST_, symObjAddr: 0x169A8, symBinAddr: 0x10001E268, symSize: 0x34 }
  - { offsetInCU: 0x7A050, offset: 0x87259, size: 0x8, addend: 0x0, symName: __ZNSt3__120back_insert_iteratorINS_6vectorIN4CGAL7Point_2INS2_16Simple_cartesianIdEEEENS_9allocatorIS6_EEEEEC1B8ue170006ERS9_, symObjAddr: 0x169DC, symBinAddr: 0x10001E29C, symSize: 0x34 }
  - { offsetInCU: 0x7A087, offset: 0x87290, size: 0x8, addend: 0x0, symName: __ZNSt3__120back_insert_iteratorINS_6vectorIN4CGAL7Point_2INS2_16Simple_cartesianIdEEEENS_9allocatorIS6_EEEEEC2B8ue170006ERS9_, symObjAddr: 0x16A10, symBinAddr: 0x10001E2D0, symSize: 0x20 }
  - { offsetInCU: 0x7A0BE, offset: 0x872C7, size: 0x8, addend: 0x0, symName: __ZN4CGAL25Named_function_parametersINSt3__120back_insert_iteratorINS1_6vectorINS_2IO5ColorENS1_9allocatorIS5_EEEEEENS_11internal_np28face_color_output_iterator_tENS0_INS2_INS3_INS_7Point_2INS_16Simple_cartesianIdEEEENS6_ISF_EEEEEENSA_32vertex_texture_output_iterator_tENS0_IS9_NSA_30vertex_color_output_iterator_tENS0_INS2_INS3_INS_8Vector_3ISE_EENS6_ISM_EEEEEENSA_31vertex_normal_output_iterator_tENSA_11No_propertyEEEEEEEEC1ERKS9_RKSU_, symObjAddr: 0x16A30, symBinAddr: 0x10001E2F0, symSize: 0x3C }
  - { offsetInCU: 0x7A105, offset: 0x8730E, size: 0x8, addend: 0x0, symName: __ZN4CGAL25Named_function_parametersINSt3__120back_insert_iteratorINS1_6vectorINS_2IO5ColorENS1_9allocatorIS5_EEEEEENS_11internal_np28face_color_output_iterator_tENS0_INS2_INS3_INS_7Point_2INS_16Simple_cartesianIdEEEENS6_ISF_EEEEEENSA_32vertex_texture_output_iterator_tENS0_IS9_NSA_30vertex_color_output_iterator_tENS0_INS2_INS3_INS_8Vector_3ISE_EENS6_ISM_EEEEEENSA_31vertex_normal_output_iterator_tENSA_11No_propertyEEEEEEEEC2ERKS9_RKSU_, symObjAddr: 0x16A6C, symBinAddr: 0x10001E32C, symSize: 0x3C }
  - { offsetInCU: 0x7A14C, offset: 0x87355, size: 0x8, addend: 0x0, symName: __ZN4CGAL11internal_np17Named_params_implINSt3__120back_insert_iteratorINS2_6vectorINS_2IO5ColorENS2_9allocatorIS6_EEEEEENS0_28face_color_output_iterator_tENS_25Named_function_parametersINS3_INS4_INS_7Point_2INS_16Simple_cartesianIdEEEENS7_ISG_EEEEEENS0_32vertex_texture_output_iterator_tENSC_ISA_NS0_30vertex_color_output_iterator_tENSC_INS3_INS4_INS_8Vector_3ISF_EENS7_ISN_EEEEEENS0_31vertex_normal_output_iterator_tENS0_11No_propertyEEEEEEEEC2ERKSA_RKSV_, symObjAddr: 0x16AA8, symBinAddr: 0x10001E368, symSize: 0x3C }
  - { offsetInCU: 0x7A191, offset: 0x8739A, size: 0x8, addend: 0x0, symName: __ZN4CGAL25Named_function_parametersIbNS_11internal_np9verbose_tENS0_INSt3__120back_insert_iteratorINS3_6vectorINS_2IO5ColorENS3_9allocatorIS7_EEEEEENS1_28face_color_output_iterator_tENS0_INS4_INS5_INS_7Point_2INS_16Simple_cartesianIdEEEENS8_ISG_EEEEEENS1_32vertex_texture_output_iterator_tENS0_ISB_NS1_30vertex_color_output_iterator_tENS0_INS4_INS5_INS_8Vector_3ISF_EENS8_ISN_EEEEEENS1_31vertex_normal_output_iterator_tENS1_11No_propertyEEEEEEEEEEC1ERKbRKSW_, symObjAddr: 0x16AE4, symBinAddr: 0x10001E3A4, symSize: 0x3C }
  - { offsetInCU: 0x7A1D8, offset: 0x873E1, size: 0x8, addend: 0x0, symName: __ZN4CGAL25Named_function_parametersIbNS_11internal_np9verbose_tENS0_INSt3__120back_insert_iteratorINS3_6vectorINS_2IO5ColorENS3_9allocatorIS7_EEEEEENS1_28face_color_output_iterator_tENS0_INS4_INS5_INS_7Point_2INS_16Simple_cartesianIdEEEENS8_ISG_EEEEEENS1_32vertex_texture_output_iterator_tENS0_ISB_NS1_30vertex_color_output_iterator_tENS0_INS4_INS5_INS_8Vector_3ISF_EENS8_ISN_EEEEEENS1_31vertex_normal_output_iterator_tENS1_11No_propertyEEEEEEEEEEC2ERKbRKSW_, symObjAddr: 0x16B20, symBinAddr: 0x10001E3E0, symSize: 0x3C }
  - { offsetInCU: 0x7A21F, offset: 0x87428, size: 0x8, addend: 0x0, symName: __ZN4CGAL11internal_np17Named_params_implIbNS0_9verbose_tENS_25Named_function_parametersINSt3__120back_insert_iteratorINS4_6vectorINS_2IO5ColorENS4_9allocatorIS8_EEEEEENS0_28face_color_output_iterator_tENS3_INS5_INS6_INS_7Point_2INS_16Simple_cartesianIdEEEENS9_ISH_EEEEEENS0_32vertex_texture_output_iterator_tENS3_ISC_NS0_30vertex_color_output_iterator_tENS3_INS5_INS6_INS_8Vector_3ISG_EENS9_ISO_EEEEEENS0_31vertex_normal_output_iterator_tENS0_11No_propertyEEEEEEEEEEC2ERKbRKSX_, symObjAddr: 0x16B5C, symBinAddr: 0x10001E41C, symSize: 0x40 }
  - { offsetInCU: 0x7A264, offset: 0x8746D, size: 0x8, addend: 0x0, symName: __ZN4CGAL25Named_function_parametersIbNS_11internal_np17use_binary_mode_tENS0_IbNS1_9verbose_tENS0_INSt3__120back_insert_iteratorINS4_6vectorINS_2IO5ColorENS4_9allocatorIS8_EEEEEENS1_28face_color_output_iterator_tENS0_INS5_INS6_INS_7Point_2INS_16Simple_cartesianIdEEEENS9_ISH_EEEEEENS1_32vertex_texture_output_iterator_tENS0_ISC_NS1_30vertex_color_output_iterator_tENS0_INS5_INS6_INS_8Vector_3ISG_EENS9_ISO_EEEEEENS1_31vertex_normal_output_iterator_tENS1_11No_propertyEEEEEEEEEEEEC1ERKbRKSY_, symObjAddr: 0x16B9C, symBinAddr: 0x10001E45C, symSize: 0x3C }
  - { offsetInCU: 0x7A2AB, offset: 0x874B4, size: 0x8, addend: 0x0, symName: __ZN4CGAL25Named_function_parametersIbNS_11internal_np17use_binary_mode_tENS0_IbNS1_9verbose_tENS0_INSt3__120back_insert_iteratorINS4_6vectorINS_2IO5ColorENS4_9allocatorIS8_EEEEEENS1_28face_color_output_iterator_tENS0_INS5_INS6_INS_7Point_2INS_16Simple_cartesianIdEEEENS9_ISH_EEEEEENS1_32vertex_texture_output_iterator_tENS0_ISC_NS1_30vertex_color_output_iterator_tENS0_INS5_INS6_INS_8Vector_3ISG_EENS9_ISO_EEEEEENS1_31vertex_normal_output_iterator_tENS1_11No_propertyEEEEEEEEEEEEC2ERKbRKSY_, symObjAddr: 0x16BD8, symBinAddr: 0x10001E498, symSize: 0x3C }
  - { offsetInCU: 0x7A2F2, offset: 0x874FB, size: 0x8, addend: 0x0, symName: __ZN4CGAL11internal_np17Named_params_implIbNS0_17use_binary_mode_tENS_25Named_function_parametersIbNS0_9verbose_tENS3_INSt3__120back_insert_iteratorINS5_6vectorINS_2IO5ColorENS5_9allocatorIS9_EEEEEENS0_28face_color_output_iterator_tENS3_INS6_INS7_INS_7Point_2INS_16Simple_cartesianIdEEEENSA_ISI_EEEEEENS0_32vertex_texture_output_iterator_tENS3_ISD_NS0_30vertex_color_output_iterator_tENS3_INS6_INS7_INS_8Vector_3ISH_EENSA_ISP_EEEEEENS0_31vertex_normal_output_iterator_tENS0_11No_propertyEEEEEEEEEEEEC2ERKbRKSZ_, symObjAddr: 0x16C14, symBinAddr: 0x10001E4D4, symSize: 0x4C }
  - { offsetInCU: 0x7A33C, offset: 0x87545, size: 0x8, addend: 0x0, symName: __ZN4CGAL12Surface_meshINS_7Point_3INS_16Simple_cartesianIdEEEEE12Property_mapINS_15SM_Vertex_indexES4_EC1EOS8_, symObjAddr: 0x16C60, symBinAddr: 0x10001E520, symSize: 0x34 }
  - { offsetInCU: 0x7A371, offset: 0x8757A, size: 0x8, addend: 0x0, symName: __ZN4CGAL12Surface_meshINS_7Point_3INS_16Simple_cartesianIdEEEEE12Property_mapINS_15SM_Vertex_indexES4_EC2EOS8_, symObjAddr: 0x16C94, symBinAddr: 0x10001E554, symSize: 0x34 }
  - { offsetInCU: 0x7A3A6, offset: 0x875AF, size: 0x8, addend: 0x0, symName: __ZN4CGAL10Properties17Property_map_baseINS_15SM_Vertex_indexENS_7Point_3INS_16Simple_cartesianIdEEEENS_12Surface_meshIS6_E12Property_mapIS2_S6_EEEC2EOSB_, symObjAddr: 0x16CC8, symBinAddr: 0x10001E588, symSize: 0x44 }
  - { offsetInCU: 0x7A3F7, offset: 0x87600, size: 0x8, addend: 0x0, symName: __ZN4CGAL21property_map_selectorINS_12Surface_meshINS_7Point_3INS_16Simple_cartesianIdEEEEEEN5boost14vertex_point_tEE8get_pmapERKS8_RS6_, symObjAddr: 0x16D4C, symBinAddr: 0x10001E60C, symSize: 0x3C }
  - { offsetInCU: 0x7A43C, offset: 0x87645, size: 0x8, addend: 0x0, symName: __ZN4CGAL21property_map_selectorINS_12Surface_meshINS_7Point_3INS_16Simple_cartesianIdEEEEEEN5boost14vertex_point_tEE8get_implERKS8_RS6_NS_11Boolean_tagILb1EEE, symObjAddr: 0x16D88, symBinAddr: 0x10001E648, symSize: 0x3C }
  - { offsetInCU: 0x7A48D, offset: 0x87696, size: 0x8, addend: 0x0, symName: __ZNK4CGAL12Surface_meshINS_7Point_3INS_16Simple_cartesianIdEEEEE6pointsEv, symObjAddr: 0x16DF4, symBinAddr: 0x10001E6B4, symSize: 0x3C }
  - { offsetInCU: 0x7A4BC, offset: 0x876C5, size: 0x8, addend: 0x0, symName: __ZN4CGAL12Surface_meshINS_7Point_3INS_16Simple_cartesianIdEEEEE12Property_mapINS_15SM_Vertex_indexES4_EC1ERKS8_, symObjAddr: 0x16E30, symBinAddr: 0x10001E6F0, symSize: 0x34 }
  - { offsetInCU: 0x7A4F1, offset: 0x876FA, size: 0x8, addend: 0x0, symName: __ZN4CGAL12Surface_meshINS_7Point_3INS_16Simple_cartesianIdEEEEE12Property_mapINS_15SM_Vertex_indexES4_EC2ERKS8_, symObjAddr: 0x16E64, symBinAddr: 0x10001E724, symSize: 0x34 }
  - { offsetInCU: 0x7A526, offset: 0x8772F, size: 0x8, addend: 0x0, symName: __ZN4CGAL10Properties17Property_map_baseINS_15SM_Vertex_indexENS_7Point_3INS_16Simple_cartesianIdEEEENS_12Surface_meshIS6_E12Property_mapIS2_S6_EEEC2ERKSB_, symObjAddr: 0x16E98, symBinAddr: 0x10001E758, symSize: 0x24 }
  - { offsetInCU: 0x7A55E, offset: 0x87767, size: 0x8, addend: 0x0, symName: __ZN4CGAL8Vector_3INS_16Simple_cartesianIdEEEC2Ev, symObjAddr: 0x16ED0, symBinAddr: 0x10001E790, symSize: 0x2C }
  - { offsetInCU: 0x7A587, offset: 0x87790, size: 0x8, addend: 0x0, symName: __ZN4CGAL8VectorC3INS_16Simple_cartesianIdEEEC2Ev, symObjAddr: 0x16EFC, symBinAddr: 0x10001E7BC, symSize: 0x14 }
  - { offsetInCU: 0x7A5B0, offset: 0x877B9, size: 0x8, addend: 0x0, symName: __ZN4CGAL21Constant_property_mapINS_15SM_Vertex_indexENS_8Vector_3INS_16Simple_cartesianIdEEEEEC2ERKS5_, symObjAddr: 0x16F10, symBinAddr: 0x10001E7D0, symSize: 0x2C }
  - { offsetInCU: 0x7A5EA, offset: 0x877F3, size: 0x8, addend: 0x0, symName: __ZN4CGAL2IO5ColorC2Ev, symObjAddr: 0x16F50, symBinAddr: 0x10001E810, symSize: 0x3C }
  - { offsetInCU: 0x7A613, offset: 0x8781C, size: 0x8, addend: 0x0, symName: __ZN4CGAL2IO5Color7set_rgbEhhhh, symObjAddr: 0x16F8C, symBinAddr: 0x10001E84C, symSize: 0xB4 }
  - { offsetInCU: 0x7A670, offset: 0x87879, size: 0x8, addend: 0x0, symName: __ZNSt3__15arrayIhLm4EEixB8ue170006Em, symObjAddr: 0x17040, symBinAddr: 0x10001E900, symSize: 0x20 }
  - { offsetInCU: 0x7A6A3, offset: 0x878AC, size: 0x8, addend: 0x0, symName: __ZN4CGAL21Constant_property_mapINS_15SM_Vertex_indexENS_2IO5ColorEEC2ERKS3_, symObjAddr: 0x17060, symBinAddr: 0x10001E920, symSize: 0x24 }
  - { offsetInCU: 0x7A6DD, offset: 0x878E6, size: 0x8, addend: 0x0, symName: __ZN4CGAL7Point_2INS_16Simple_cartesianIdEEEC2Ev, symObjAddr: 0x17098, symBinAddr: 0x10001E958, symSize: 0x2C }
  - { offsetInCU: 0x7A706, offset: 0x8790F, size: 0x8, addend: 0x0, symName: __ZN4CGAL7PointC2INS_16Simple_cartesianIdEEEC2Ev, symObjAddr: 0x170C4, symBinAddr: 0x10001E984, symSize: 0x2C }
  - { offsetInCU: 0x7A72F, offset: 0x87938, size: 0x8, addend: 0x0, symName: __ZN4CGAL8Vector_2INS_16Simple_cartesianIdEEEC1Ev, symObjAddr: 0x170F0, symBinAddr: 0x10001E9B0, symSize: 0x2C }
  - { offsetInCU: 0x7A758, offset: 0x87961, size: 0x8, addend: 0x0, symName: __ZN4CGAL8Vector_2INS_16Simple_cartesianIdEEEC2Ev, symObjAddr: 0x1711C, symBinAddr: 0x10001E9DC, symSize: 0x2C }
  - { offsetInCU: 0x7A781, offset: 0x8798A, size: 0x8, addend: 0x0, symName: __ZN4CGAL8VectorC2INS_16Simple_cartesianIdEEEC2Ev, symObjAddr: 0x17148, symBinAddr: 0x10001EA08, symSize: 0x14 }
  - { offsetInCU: 0x7A7AA, offset: 0x879B3, size: 0x8, addend: 0x0, symName: __ZN4CGAL21Constant_property_mapINS_15SM_Vertex_indexENS_7Point_2INS_16Simple_cartesianIdEEEEEC2ERKS5_, symObjAddr: 0x1715C, symBinAddr: 0x10001EA1C, symSize: 0x24 }
  - { offsetInCU: 0x7A7E4, offset: 0x879ED, size: 0x8, addend: 0x0, symName: __ZN4CGAL21Constant_property_mapINS_13SM_Face_indexENS_2IO5ColorEEC2ERKS3_, symObjAddr: 0x17194, symBinAddr: 0x10001EA54, symSize: 0x24 }
  - { offsetInCU: 0x7A81E, offset: 0x87A27, size: 0x8, addend: 0x0, symName: __ZNSt3__16vectorIN4CGAL15SM_Vertex_indexENS_9allocatorIS2_EEEC2Em, symObjAddr: 0x171B8, symBinAddr: 0x10001EA78, symSize: 0xD4 }
  - { offsetInCU: 0x7A86D, offset: 0x87A76, size: 0x8, addend: 0x0, symName: __ZNSt3__117__compressed_pairIPN4CGAL15SM_Vertex_indexENS_9allocatorIS2_EEEC1B8ue170006IDnNS_18__default_init_tagEEEOT_OT0_, symObjAddr: 0x1728C, symBinAddr: 0x10001EB4C, symSize: 0x3C }
  - { offsetInCU: 0x7A8C4, offset: 0x87ACD, size: 0x8, addend: 0x0, symName: __ZNSt3__16vectorIN4CGAL15SM_Vertex_indexENS_9allocatorIS2_EEE16__destroy_vectorC1B8ue170006ERS5_, symObjAddr: 0x17308, symBinAddr: 0x10001EBC8, symSize: 0x34 }
  - { offsetInCU: 0x7A8FC, offset: 0x87B05, size: 0x8, addend: 0x0, symName: __ZNSt3__16vectorIN4CGAL15SM_Vertex_indexENS_9allocatorIS2_EEE11__vallocateB8ue170006Em, symObjAddr: 0x1733C, symBinAddr: 0x10001EBFC, symSize: 0xAC }
  - { offsetInCU: 0x7A93F, offset: 0x87B48, size: 0x8, addend: 0x0, symName: __ZNSt3__16vectorIN4CGAL15SM_Vertex_indexENS_9allocatorIS2_EEE18__construct_at_endEm, symObjAddr: 0x173E8, symBinAddr: 0x10001ECA8, symSize: 0xC8 }
  - { offsetInCU: 0x7A9AF, offset: 0x87BB8, size: 0x8, addend: 0x0, symName: __ZNSt3__128__exception_guard_exceptionsINS_6vectorIN4CGAL15SM_Vertex_indexENS_9allocatorIS3_EEE16__destroy_vectorEE10__completeB8ue170006Ev, symObjAddr: 0x174B0, symBinAddr: 0x10001ED70, symSize: 0x1C }
  - { offsetInCU: 0x7A9D4, offset: 0x87BDD, size: 0x8, addend: 0x0, symName: __ZNSt3__128__exception_guard_exceptionsINS_6vectorIN4CGAL15SM_Vertex_indexENS_9allocatorIS3_EEE16__destroy_vectorEED1B8ue170006Ev, symObjAddr: 0x174CC, symBinAddr: 0x10001ED8C, symSize: 0x2C }
  - { offsetInCU: 0x7A9FD, offset: 0x87C06, size: 0x8, addend: 0x0, symName: __ZNSt3__117__compressed_pairIPN4CGAL15SM_Vertex_indexENS_9allocatorIS2_EEEC2B8ue170006IDnNS_18__default_init_tagEEEOT_OT0_, symObjAddr: 0x174F8, symBinAddr: 0x10001EDB8, symSize: 0x40 }
  - { offsetInCU: 0x7AA54, offset: 0x87C5D, size: 0x8, addend: 0x0, symName: __ZNSt3__122__compressed_pair_elemIPN4CGAL15SM_Vertex_indexELi0ELb0EEC2B8ue170006IDnvEEOT_, symObjAddr: 0x17538, symBinAddr: 0x10001EDF8, symSize: 0x1C }
  - { offsetInCU: 0x7AA95, offset: 0x87C9E, size: 0x8, addend: 0x0, symName: __ZNSt3__122__compressed_pair_elemINS_9allocatorIN4CGAL15SM_Vertex_indexEEELi1ELb1EEC2B8ue170006ENS_18__default_init_tagE, symObjAddr: 0x17554, symBinAddr: 0x10001EE14, symSize: 0x2C }
  - { offsetInCU: 0x7AAC8, offset: 0x87CD1, size: 0x8, addend: 0x0, symName: __ZNSt3__19allocatorIN4CGAL15SM_Vertex_indexEEC2B8ue170006Ev, symObjAddr: 0x17580, symBinAddr: 0x10001EE40, symSize: 0x2C }
  - { offsetInCU: 0x7AAF1, offset: 0x87CFA, size: 0x8, addend: 0x0, symName: __ZNSt3__116__non_trivial_ifILb1ENS_9allocatorIN4CGAL15SM_Vertex_indexEEEEC2B8ue170006Ev, symObjAddr: 0x175AC, symBinAddr: 0x10001EE6C, symSize: 0x14 }
  - { offsetInCU: 0x7AB1A, offset: 0x87D23, size: 0x8, addend: 0x0, symName: __ZNSt3__128__exception_guard_exceptionsINS_6vectorIN4CGAL15SM_Vertex_indexENS_9allocatorIS3_EEE16__destroy_vectorEEC1B8ue170006ES7_, symObjAddr: 0x175C0, symBinAddr: 0x10001EE80, symSize: 0x34 }
  - { offsetInCU: 0x7AB51, offset: 0x87D5A, size: 0x8, addend: 0x0, symName: __ZNSt3__128__exception_guard_exceptionsINS_6vectorIN4CGAL15SM_Vertex_indexENS_9allocatorIS3_EEE16__destroy_vectorEEC2B8ue170006ES7_, symObjAddr: 0x175F4, symBinAddr: 0x10001EEB4, symSize: 0x24 }
  - { offsetInCU: 0x7AB88, offset: 0x87D91, size: 0x8, addend: 0x0, symName: __ZNSt3__16vectorIN4CGAL15SM_Vertex_indexENS_9allocatorIS2_EEE16__destroy_vectorC2B8ue170006ERS5_, symObjAddr: 0x17618, symBinAddr: 0x10001EED8, symSize: 0x20 }
  - { offsetInCU: 0x7ABC0, offset: 0x87DC9, size: 0x8, addend: 0x0, symName: __ZNKSt3__16vectorIN4CGAL15SM_Vertex_indexENS_9allocatorIS2_EEE8max_sizeEv, symObjAddr: 0x17638, symBinAddr: 0x10001EEF8, symSize: 0x60 }
  - { offsetInCU: 0x7ABE6, offset: 0x87DEF, size: 0x8, addend: 0x0, symName: __ZNKSt3__16vectorIN4CGAL15SM_Vertex_indexENS_9allocatorIS2_EEE20__throw_length_errorB8ue170006Ev, symObjAddr: 0x17698, symBinAddr: 0x10001EF58, symSize: 0x1C }
  - { offsetInCU: 0x7AC0B, offset: 0x87E14, size: 0x8, addend: 0x0, symName: __ZNSt3__16vectorIN4CGAL15SM_Vertex_indexENS_9allocatorIS2_EEE7__allocB8ue170006Ev, symObjAddr: 0x176F4, symBinAddr: 0x10001EFB4, symSize: 0x28 }
  - { offsetInCU: 0x7AC30, offset: 0x87E39, size: 0x8, addend: 0x0, symName: __ZNSt3__16vectorIN4CGAL15SM_Vertex_indexENS_9allocatorIS2_EEE9__end_capB8ue170006Ev, symObjAddr: 0x1771C, symBinAddr: 0x10001EFDC, symSize: 0x28 }
  - { offsetInCU: 0x7AC55, offset: 0x87E5E, size: 0x8, addend: 0x0, symName: __ZNKSt3__16vectorIN4CGAL15SM_Vertex_indexENS_9allocatorIS2_EEE14__annotate_newB8ue170006Em, symObjAddr: 0x17744, symBinAddr: 0x10001F004, symSize: 0xAC }
  - { offsetInCU: 0x7AC93, offset: 0x87E9C, size: 0x8, addend: 0x0, symName: __ZNSt3__116allocator_traitsINS_9allocatorIN4CGAL15SM_Vertex_indexEEEE8max_sizeB8ue170006IS4_vEEmRKS4_, symObjAddr: 0x177F0, symBinAddr: 0x10001F0B0, symSize: 0x24 }
  - { offsetInCU: 0x7ACC1, offset: 0x87ECA, size: 0x8, addend: 0x0, symName: __ZNKSt3__16vectorIN4CGAL15SM_Vertex_indexENS_9allocatorIS2_EEE7__allocB8ue170006Ev, symObjAddr: 0x17814, symBinAddr: 0x10001F0D4, symSize: 0x28 }
  - { offsetInCU: 0x7ACE6, offset: 0x87EEF, size: 0x8, addend: 0x0, symName: __ZNKSt3__19allocatorIN4CGAL15SM_Vertex_indexEE8max_sizeB8ue170006Ev, symObjAddr: 0x1783C, symBinAddr: 0x10001F0FC, symSize: 0x14 }
  - { offsetInCU: 0x7AD0B, offset: 0x87F14, size: 0x8, addend: 0x0, symName: __ZNKSt3__117__compressed_pairIPN4CGAL15SM_Vertex_indexENS_9allocatorIS2_EEE6secondB8ue170006Ev, symObjAddr: 0x17850, symBinAddr: 0x10001F110, symSize: 0x24 }
  - { offsetInCU: 0x7AD30, offset: 0x87F39, size: 0x8, addend: 0x0, symName: __ZNKSt3__122__compressed_pair_elemINS_9allocatorIN4CGAL15SM_Vertex_indexEEELi1ELb1EE5__getB8ue170006Ev, symObjAddr: 0x17874, symBinAddr: 0x10001F134, symSize: 0x14 }
  - { offsetInCU: 0x7AD55, offset: 0x87F5E, size: 0x8, addend: 0x0, symName: __ZNSt3__19allocatorIN4CGAL15SM_Vertex_indexEE8allocateB8ue170006Em, symObjAddr: 0x17888, symBinAddr: 0x10001F148, symSize: 0x58 }
  - { offsetInCU: 0x7AD88, offset: 0x87F91, size: 0x8, addend: 0x0, symName: __ZNSt3__117__compressed_pairIPN4CGAL15SM_Vertex_indexENS_9allocatorIS2_EEE6secondB8ue170006Ev, symObjAddr: 0x178E0, symBinAddr: 0x10001F1A0, symSize: 0x24 }
  - { offsetInCU: 0x7ADAD, offset: 0x87FB6, size: 0x8, addend: 0x0, symName: __ZNSt3__122__compressed_pair_elemINS_9allocatorIN4CGAL15SM_Vertex_indexEEELi1ELb1EE5__getB8ue170006Ev, symObjAddr: 0x17904, symBinAddr: 0x10001F1C4, symSize: 0x14 }
  - { offsetInCU: 0x7ADD2, offset: 0x87FDB, size: 0x8, addend: 0x0, symName: __ZNSt3__117__compressed_pairIPN4CGAL15SM_Vertex_indexENS_9allocatorIS2_EEE5firstB8ue170006Ev, symObjAddr: 0x17918, symBinAddr: 0x10001F1D8, symSize: 0x24 }
  - { offsetInCU: 0x7ADF7, offset: 0x88000, size: 0x8, addend: 0x0, symName: __ZNSt3__122__compressed_pair_elemIPN4CGAL15SM_Vertex_indexELi0ELb0EE5__getB8ue170006Ev, symObjAddr: 0x1793C, symBinAddr: 0x10001F1FC, symSize: 0x14 }
  - { offsetInCU: 0x7AE1C, offset: 0x88025, size: 0x8, addend: 0x0, symName: __ZNKSt3__16vectorIN4CGAL15SM_Vertex_indexENS_9allocatorIS2_EEE31__annotate_contiguous_containerB8ue170006EPKvS7_S7_S7_, symObjAddr: 0x17950, symBinAddr: 0x10001F210, symSize: 0x20 }
  - { offsetInCU: 0x7AE6D, offset: 0x88076, size: 0x8, addend: 0x0, symName: __ZNKSt3__16vectorIN4CGAL15SM_Vertex_indexENS_9allocatorIS2_EEE4dataB8ue170006Ev, symObjAddr: 0x17970, symBinAddr: 0x10001F230, symSize: 0x28 }
  - { offsetInCU: 0x7AE92, offset: 0x8809B, size: 0x8, addend: 0x0, symName: __ZNKSt3__16vectorIN4CGAL15SM_Vertex_indexENS_9allocatorIS2_EEE8capacityB8ue170006Ev, symObjAddr: 0x17998, symBinAddr: 0x10001F258, symSize: 0x40 }
  - { offsetInCU: 0x7AEB7, offset: 0x880C0, size: 0x8, addend: 0x0, symName: __ZNKSt3__16vectorIN4CGAL15SM_Vertex_indexENS_9allocatorIS2_EEE9__end_capB8ue170006Ev, symObjAddr: 0x179EC, symBinAddr: 0x10001F2AC, symSize: 0x28 }
  - { offsetInCU: 0x7AEDC, offset: 0x880E5, size: 0x8, addend: 0x0, symName: __ZNKSt3__117__compressed_pairIPN4CGAL15SM_Vertex_indexENS_9allocatorIS2_EEE5firstB8ue170006Ev, symObjAddr: 0x17A14, symBinAddr: 0x10001F2D4, symSize: 0x24 }
  - { offsetInCU: 0x7AF01, offset: 0x8810A, size: 0x8, addend: 0x0, symName: __ZNKSt3__122__compressed_pair_elemIPN4CGAL15SM_Vertex_indexELi0ELb0EE5__getB8ue170006Ev, symObjAddr: 0x17A38, symBinAddr: 0x10001F2F8, symSize: 0x14 }
  - { offsetInCU: 0x7AF3F, offset: 0x88148, size: 0x8, addend: 0x0, symName: __ZNSt3__16vectorIN4CGAL15SM_Vertex_indexENS_9allocatorIS2_EEE21_ConstructTransactionC1B8ue170006ERS5_m, symObjAddr: 0x17A4C, symBinAddr: 0x10001F30C, symSize: 0x3C }
  - { offsetInCU: 0x7AF86, offset: 0x8818F, size: 0x8, addend: 0x0, symName: __ZNSt3__116allocator_traitsINS_9allocatorIN4CGAL15SM_Vertex_indexEEEE9constructB8ue170006IS3_JEvEEvRS4_PT_DpOT0_, symObjAddr: 0x17A88, symBinAddr: 0x10001F348, symSize: 0x2C }
  - { offsetInCU: 0x7AFC8, offset: 0x881D1, size: 0x8, addend: 0x0, symName: __ZNSt3__16vectorIN4CGAL15SM_Vertex_indexENS_9allocatorIS2_EEE21_ConstructTransactionD1B8ue170006Ev, symObjAddr: 0x17AB4, symBinAddr: 0x10001F374, symSize: 0x2C }
  - { offsetInCU: 0x7AFF1, offset: 0x881FA, size: 0x8, addend: 0x0, symName: __ZNSt3__16vectorIN4CGAL15SM_Vertex_indexENS_9allocatorIS2_EEE21_ConstructTransactionC2B8ue170006ERS5_m, symObjAddr: 0x17AE0, symBinAddr: 0x10001F3A0, symSize: 0x44 }
  - { offsetInCU: 0x7B038, offset: 0x88241, size: 0x8, addend: 0x0, symName: __ZNSt3__19allocatorIN4CGAL15SM_Vertex_indexEE9constructB8ue170006IS2_JEEEvPT_DpOT0_, symObjAddr: 0x17B24, symBinAddr: 0x10001F3E4, symSize: 0x28 }
  - { offsetInCU: 0x7B079, offset: 0x88282, size: 0x8, addend: 0x0, symName: __ZN4CGAL15SM_Vertex_indexC1Ev, symObjAddr: 0x17B4C, symBinAddr: 0x10001F40C, symSize: 0x2C }
  - { offsetInCU: 0x7B0A2, offset: 0x882AB, size: 0x8, addend: 0x0, symName: __ZN4CGAL15SM_Vertex_indexC2Ev, symObjAddr: 0x17B78, symBinAddr: 0x10001F438, symSize: 0x38 }
  - { offsetInCU: 0x7B0CB, offset: 0x882D4, size: 0x8, addend: 0x0, symName: __ZN4CGAL8SM_IndexINS_15SM_Vertex_indexEEC2Ej, symObjAddr: 0x17BB0, symBinAddr: 0x10001F470, symSize: 0x20 }
  - { offsetInCU: 0x7B102, offset: 0x8830B, size: 0x8, addend: 0x0, symName: __ZNSt3__16vectorIN4CGAL15SM_Vertex_indexENS_9allocatorIS2_EEE21_ConstructTransactionD2B8ue170006Ev, symObjAddr: 0x17BD0, symBinAddr: 0x10001F490, symSize: 0x20 }
  - { offsetInCU: 0x7B12B, offset: 0x88334, size: 0x8, addend: 0x0, symName: __ZNSt3__128__exception_guard_exceptionsINS_6vectorIN4CGAL15SM_Vertex_indexENS_9allocatorIS3_EEE16__destroy_vectorEED2B8ue170006Ev, symObjAddr: 0x17BF0, symBinAddr: 0x10001F4B0, symSize: 0x50 }
  - { offsetInCU: 0x7B154, offset: 0x8835D, size: 0x8, addend: 0x0, symName: __ZNSt3__16vectorIN4CGAL15SM_Vertex_indexENS_9allocatorIS2_EEE16__destroy_vectorclB8ue170006Ev, symObjAddr: 0x17C40, symBinAddr: 0x10001F500, symSize: 0x90 }
  - { offsetInCU: 0x7B179, offset: 0x88382, size: 0x8, addend: 0x0, symName: __ZNSt3__16vectorIN4CGAL15SM_Vertex_indexENS_9allocatorIS2_EEE7__clearB8ue170006Ev, symObjAddr: 0x17CD0, symBinAddr: 0x10001F590, symSize: 0x28 }
  - { offsetInCU: 0x7B19E, offset: 0x883A7, size: 0x8, addend: 0x0, symName: __ZNKSt3__16vectorIN4CGAL15SM_Vertex_indexENS_9allocatorIS2_EEE17__annotate_deleteB8ue170006Ev, symObjAddr: 0x17CF8, symBinAddr: 0x10001F5B8, symSize: 0xB8 }
  - { offsetInCU: 0x7B1C3, offset: 0x883CC, size: 0x8, addend: 0x0, symName: __ZNSt3__116allocator_traitsINS_9allocatorIN4CGAL15SM_Vertex_indexEEEE10deallocateB8ue170006ERS4_PS3_m, symObjAddr: 0x17DB0, symBinAddr: 0x10001F670, symSize: 0x34 }
  - { offsetInCU: 0x7B205, offset: 0x8840E, size: 0x8, addend: 0x0, symName: __ZNSt3__16vectorIN4CGAL15SM_Vertex_indexENS_9allocatorIS2_EEE22__base_destruct_at_endB8ue170006EPS2_, symObjAddr: 0x17DE4, symBinAddr: 0x10001F6A4, symSize: 0x8C }
  - { offsetInCU: 0x7B248, offset: 0x88451, size: 0x8, addend: 0x0, symName: __ZNSt3__116allocator_traitsINS_9allocatorIN4CGAL15SM_Vertex_indexEEEE7destroyB8ue170006IS3_vEEvRS4_PT_, symObjAddr: 0x17E70, symBinAddr: 0x10001F730, symSize: 0x2C }
  - { offsetInCU: 0x7B285, offset: 0x8848E, size: 0x8, addend: 0x0, symName: __ZNSt3__19allocatorIN4CGAL15SM_Vertex_indexEE7destroyB8ue170006EPS2_, symObjAddr: 0x17E9C, symBinAddr: 0x10001F75C, symSize: 0x14 }
  - { offsetInCU: 0x7B2B8, offset: 0x884C1, size: 0x8, addend: 0x0, symName: __ZNSt3__19allocatorIN4CGAL15SM_Vertex_indexEE10deallocateB8ue170006EPS2_m, symObjAddr: 0x17EB0, symBinAddr: 0x10001F770, symSize: 0x40 }
  - { offsetInCU: 0x7B2F9, offset: 0x88502, size: 0x8, addend: 0x0, symName: __ZN4CGAL12Surface_meshINS_7Point_3INS_16Simple_cartesianIdEEEEE10add_vertexEv, symObjAddr: 0x17EF0, symBinAddr: 0x10001F7B0, symSize: 0x140 }
  - { offsetInCU: 0x7B34A, offset: 0x88553, size: 0x8, addend: 0x0, symName: __ZN4CGAL10Properties17Property_map_baseINS_15SM_Vertex_indexENS_12Surface_meshINS_7Point_3INS_16Simple_cartesianIdEEEEE19Vertex_connectivityENS8_12Property_mapIS2_S9_EEEixERKS2_, symObjAddr: 0x18030, symBinAddr: 0x10001F8F0, symSize: 0x90 }
  - { offsetInCU: 0x7B37E, offset: 0x88587, size: 0x8, addend: 0x0, symName: __ZN4CGAL15SM_Vertex_indexC1Ej, symObjAddr: 0x180C0, symBinAddr: 0x10001F980, symSize: 0x34 }
  - { offsetInCU: 0x7B3B5, offset: 0x885BE, size: 0x8, addend: 0x0, symName: __ZNK4CGAL8SM_IndexINS_17SM_Halfedge_indexEEcvjEv, symObjAddr: 0x180F4, symBinAddr: 0x10001F9B4, symSize: 0x18 }
  - { offsetInCU: 0x7B3DA, offset: 0x885E3, size: 0x8, addend: 0x0, symName: __ZN4CGAL10Properties17Property_map_baseINS_15SM_Vertex_indexEbNS_12Surface_meshINS_7Point_3INS_16Simple_cartesianIdEEEEE12Property_mapIS2_bEEEixERKS2_, symObjAddr: 0x1810C, symBinAddr: 0x10001F9CC, symSize: 0xA0 }
  - { offsetInCU: 0x7B40E, offset: 0x88617, size: 0x8, addend: 0x0, symName: __ZNSt3__115__bit_referenceINS_6vectorIbNS_9allocatorIbEEEELb1EEaSB8ue170006Eb, symObjAddr: 0x181AC, symBinAddr: 0x10001FA6C, symSize: 0x6C }
  - { offsetInCU: 0x7B441, offset: 0x8864A, size: 0x8, addend: 0x0, symName: __ZN4CGAL10Properties18Property_containerINS_12Surface_meshINS_7Point_3INS_16Simple_cartesianIdEEEEEENS_15SM_Vertex_indexEE5resetEm, symObjAddr: 0x18218, symBinAddr: 0x10001FAD8, symSize: 0x90 }
  - { offsetInCU: 0x7B492, offset: 0x8869B, size: 0x8, addend: 0x0, symName: __ZNK4CGAL8SM_IndexINS_15SM_Vertex_indexEEcvjEv, symObjAddr: 0x182A8, symBinAddr: 0x10001FB68, symSize: 0x18 }
  - { offsetInCU: 0x7B4B7, offset: 0x886C0, size: 0x8, addend: 0x0, symName: __ZN4CGAL10Properties18Property_containerINS_12Surface_meshINS_7Point_3INS_16Simple_cartesianIdEEEEEENS_15SM_Vertex_indexEE9push_backEv, symObjAddr: 0x182C0, symBinAddr: 0x10001FB80, symSize: 0xB0 }
  - { offsetInCU: 0x7B4F9, offset: 0x88702, size: 0x8, addend: 0x0, symName: __ZNK4CGAL12Surface_meshINS_7Point_3INS_16Simple_cartesianIdEEEEE12num_verticesEv, symObjAddr: 0x18370, symBinAddr: 0x10001FC30, symSize: 0x24 }
  - { offsetInCU: 0x7B51E, offset: 0x88727, size: 0x8, addend: 0x0, symName: __ZN4CGAL10Properties14Property_arrayINS_12Surface_meshINS_7Point_3INS_16Simple_cartesianIdEEEEE19Vertex_connectivityEEixEm, symObjAddr: 0x18394, symBinAddr: 0x10001FC54, symSize: 0x88 }
  - { offsetInCU: 0x7B551, offset: 0x8875A, size: 0x8, addend: 0x0, symName: __ZNKSt3__16vectorIN4CGAL12Surface_meshINS1_7Point_3INS1_16Simple_cartesianIdEEEEE19Vertex_connectivityENS_9allocatorIS8_EEE4sizeB8ue170006Ev, symObjAddr: 0x1841C, symBinAddr: 0x10001FCDC, symSize: 0x28 }
  - { offsetInCU: 0x7B576, offset: 0x8877F, size: 0x8, addend: 0x0, symName: __ZNSt3__16vectorIN4CGAL12Surface_meshINS1_7Point_3INS1_16Simple_cartesianIdEEEEE19Vertex_connectivityENS_9allocatorIS8_EEEixB8ue170006Em, symObjAddr: 0x18444, symBinAddr: 0x10001FD04, symSize: 0x24 }
  - { offsetInCU: 0x7B5AC, offset: 0x887B5, size: 0x8, addend: 0x0, symName: __ZN4CGAL15SM_Vertex_indexC2Ej, symObjAddr: 0x18468, symBinAddr: 0x10001FD28, symSize: 0x34 }
  - { offsetInCU: 0x7B5E3, offset: 0x887EC, size: 0x8, addend: 0x0, symName: __ZN4CGAL10Properties14Property_arrayIbEixEm, symObjAddr: 0x1849C, symBinAddr: 0x10001FD5C, symSize: 0x98 }
  - { offsetInCU: 0x7B616, offset: 0x8881F, size: 0x8, addend: 0x0, symName: __ZNKSt3__16vectorIbNS_9allocatorIbEEE4sizeB8ue170006Ev, symObjAddr: 0x18534, symBinAddr: 0x10001FDF4, symSize: 0x18 }
  - { offsetInCU: 0x7B63B, offset: 0x88844, size: 0x8, addend: 0x0, symName: __ZNSt3__16vectorIbNS_9allocatorIbEEEixB8ue170006Em, symObjAddr: 0x1854C, symBinAddr: 0x10001FE0C, symSize: 0x3C }
  - { offsetInCU: 0x7B66F, offset: 0x88878, size: 0x8, addend: 0x0, symName: __ZNSt3__16vectorIbNS_9allocatorIbEEE10__make_refB8ue170006Em, symObjAddr: 0x18588, symBinAddr: 0x10001FE48, symSize: 0x60 }
  - { offsetInCU: 0x7B6A3, offset: 0x888AC, size: 0x8, addend: 0x0, symName: __ZNSt3__115__bit_referenceINS_6vectorIbNS_9allocatorIbEEEELb1EEC1B8ue170006EPmm, symObjAddr: 0x185E8, symBinAddr: 0x10001FEA8, symSize: 0x3C }
  - { offsetInCU: 0x7B6E8, offset: 0x888F1, size: 0x8, addend: 0x0, symName: __ZNSt3__115__bit_referenceINS_6vectorIbNS_9allocatorIbEEEELb1EEC2B8ue170006EPmm, symObjAddr: 0x18624, symBinAddr: 0x10001FEE4, symSize: 0x2C }
  - { offsetInCU: 0x7B72D, offset: 0x88936, size: 0x8, addend: 0x0, symName: __ZNK4CGAL10Properties18Property_containerINS_12Surface_meshINS_7Point_3INS_16Simple_cartesianIdEEEEEENS_15SM_Vertex_indexEE4sizeEv, symObjAddr: 0x18650, symBinAddr: 0x10001FF10, symSize: 0x18 }
  - { offsetInCU: 0x7B752, offset: 0x8895B, size: 0x8, addend: 0x0, symName: __ZNK4CGAL10Properties17Property_map_baseINS_15SM_Vertex_indexENS_7Point_3INS_16Simple_cartesianIdEEEENS_12Surface_meshIS6_E12Property_mapIS2_S6_EEEixERKS2_, symObjAddr: 0x18668, symBinAddr: 0x10001FF28, symSize: 0x90 }
  - { offsetInCU: 0x7B786, offset: 0x8898F, size: 0x8, addend: 0x0, symName: __ZN4CGAL10Properties14Property_arrayINS_7Point_3INS_16Simple_cartesianIdEEEEEixEm, symObjAddr: 0x186F8, symBinAddr: 0x10001FFB8, symSize: 0x88 }
  - { offsetInCU: 0x7B7B9, offset: 0x889C2, size: 0x8, addend: 0x0, symName: __ZNKSt3__16vectorIN4CGAL15SM_Vertex_indexENS_9allocatorIS2_EEE5beginB8ue170006Ev, symObjAddr: 0x18780, symBinAddr: 0x100020040, symSize: 0x30 }
  - { offsetInCU: 0x7B7DF, offset: 0x889E8, size: 0x8, addend: 0x0, symName: __ZNKSt3__16vectorIN4CGAL15SM_Vertex_indexENS_9allocatorIS2_EEE3endB8ue170006Ev, symObjAddr: 0x187B0, symBinAddr: 0x100020070, symSize: 0x30 }
  - { offsetInCU: 0x7B805, offset: 0x88A0E, size: 0x8, addend: 0x0, symName: __ZNKSt3__111__wrap_iterIPKN4CGAL15SM_Vertex_indexEEdeB8ue170006Ev, symObjAddr: 0x18814, symBinAddr: 0x1000200D4, symSize: 0x18 }
  - { offsetInCU: 0x7B82A, offset: 0x88A33, size: 0x8, addend: 0x0, symName: __ZNSt3__111__wrap_iterIPKN4CGAL15SM_Vertex_indexEEppB8ue170006Ev, symObjAddr: 0x18AE0, symBinAddr: 0x1000203A0, symSize: 0x20 }
  - { offsetInCU: 0x7B84F, offset: 0x88A58, size: 0x8, addend: 0x0, symName: __ZNSt3__16vectorIN4CGAL15SM_Vertex_indexENS_9allocatorIS2_EEEC1INS_11__wrap_iterIPKS2_EELi0EEET_SB_, symObjAddr: 0x18B00, symBinAddr: 0x1000203C0, symSize: 0x3C }
  - { offsetInCU: 0x7B8A7, offset: 0x88AB0, size: 0x8, addend: 0x0, symName: __ZNSt3__16vectorIN4CGAL15SM_Vertex_indexENS_9allocatorIS2_EEE5beginB8ue170006Ev, symObjAddr: 0x18B78, symBinAddr: 0x100020438, symSize: 0x30 }
  - { offsetInCU: 0x7B8CD, offset: 0x88AD6, size: 0x8, addend: 0x0, symName: __ZNSt3__16vectorIN4CGAL15SM_Vertex_indexENS_9allocatorIS2_EEE3endB8ue170006Ev, symObjAddr: 0x18BA8, symBinAddr: 0x100020468, symSize: 0x30 }
  - { offsetInCU: 0x7B8F3, offset: 0x88AFC, size: 0x8, addend: 0x0, symName: __ZNSt3__16vectorIN4CGAL17SM_Halfedge_indexENS_9allocatorIS2_EEEC1Em, symObjAddr: 0x18CB0, symBinAddr: 0x100020570, symSize: 0x34 }
  - { offsetInCU: 0x7B92D, offset: 0x88B36, size: 0x8, addend: 0x0, symName: __ZNSt3__16vectorIbNS_9allocatorIbEEEC1Em, symObjAddr: 0x18CE4, symBinAddr: 0x1000205A4, symSize: 0x34 }
  - { offsetInCU: 0x7B9BC, offset: 0x88BC5, size: 0x8, addend: 0x0, symName: __ZNK5boost8optionalIN4CGAL17SM_Halfedge_indexEEntEv, symObjAddr: 0x18E94, symBinAddr: 0x100020754, symSize: 0x2C }
  - { offsetInCU: 0x7B9E1, offset: 0x88BEA, size: 0x8, addend: 0x0, symName: __ZN5boost8optionalIN4CGAL17SM_Halfedge_indexEED1Ev, symObjAddr: 0x18EC0, symBinAddr: 0x100020780, symSize: 0x2C }
  - { offsetInCU: 0x7BA0D, offset: 0x88C16, size: 0x8, addend: 0x0, symName: __ZNSt3__16vectorIN4CGAL17SM_Halfedge_indexENS_9allocatorIS2_EEEixB8ue170006Em, symObjAddr: 0x18F74, symBinAddr: 0x100020834, symSize: 0x24 }
  - { offsetInCU: 0x7BA43, offset: 0x88C4C, size: 0x8, addend: 0x0, symName: __ZNKSt3__115__bit_referenceINS_6vectorIbNS_9allocatorIbEEEELb1EEcvbB8ue170006Ev, symObjAddr: 0x18F98, symBinAddr: 0x100020858, symSize: 0x2C }
  - { offsetInCU: 0x7BA68, offset: 0x88C71, size: 0x8, addend: 0x0, symName: __ZN4CGAL17SM_Halfedge_indexC1Ev, symObjAddr: 0x19028, symBinAddr: 0x1000208E8, symSize: 0x2C }
  - { offsetInCU: 0x7BA91, offset: 0x88C9A, size: 0x8, addend: 0x0, symName: __ZNK4CGAL17SM_Halfedge_indexneERKS0_, symObjAddr: 0x19098, symBinAddr: 0x100020958, symSize: 0x30 }
  - { offsetInCU: 0x7BAC4, offset: 0x88CCD, size: 0x8, addend: 0x0, symName: __ZNK4CGAL17SM_Halfedge_indexeqERKS0_, symObjAddr: 0x1910C, symBinAddr: 0x1000209CC, symSize: 0x30 }
  - { offsetInCU: 0x7BAF7, offset: 0x88D00, size: 0x8, addend: 0x0, symName: __ZNSt3__14pairIN4CGAL17SM_Halfedge_indexES2_EC1B8ue170006IRS2_S5_LPv0EEEOT_OT0_, symObjAddr: 0x19180, symBinAddr: 0x100020A40, symSize: 0x3C }
  - { offsetInCU: 0x7BB54, offset: 0x88D5D, size: 0x8, addend: 0x0, symName: __ZN5boost12graph_traitsIN4CGAL12Surface_meshINS1_7Point_3INS1_16Simple_cartesianIdEEEEEEE13null_halfedgeEv, symObjAddr: 0x19358, symBinAddr: 0x100020C18, symSize: 0x24 }
  - { offsetInCU: 0x7BB68, offset: 0x88D71, size: 0x8, addend: 0x0, symName: __ZNK4CGAL15SM_Vertex_indexeqERKS0_, symObjAddr: 0x19414, symBinAddr: 0x100020CD4, symSize: 0x30 }
  - { offsetInCU: 0x7BB9B, offset: 0x88DA4, size: 0x8, addend: 0x0, symName: __ZNK4CGAL14Iterator_rangeINS_31Halfedge_around_target_iteratorINS_12Surface_meshINS_7Point_3INS_16Simple_cartesianIdEEEEEEEEE5beginEv, symObjAddr: 0x195DC, symBinAddr: 0x100020E9C, symSize: 0x28 }
  - { offsetInCU: 0x7BBC0, offset: 0x88DC9, size: 0x8, addend: 0x0, symName: __ZNK4CGAL14Iterator_rangeINS_31Halfedge_around_target_iteratorINS_12Surface_meshINS_7Point_3INS_16Simple_cartesianIdEEEEEEEEE3endEv, symObjAddr: 0x19604, symBinAddr: 0x100020EC4, symSize: 0x28 }
  - { offsetInCU: 0x7BBE5, offset: 0x88DEE, size: 0x8, addend: 0x0, symName: __ZNK4CGAL31Halfedge_around_target_iteratorINS_12Surface_meshINS_7Point_3INS_16Simple_cartesianIdEEEEEEEneERKS7_, symObjAddr: 0x1962C, symBinAddr: 0x100020EEC, symSize: 0x34 }
  - { offsetInCU: 0x7BC19, offset: 0x88E22, size: 0x8, addend: 0x0, symName: __ZNK4CGAL31Halfedge_around_target_iteratorINS_12Surface_meshINS_7Point_3INS_16Simple_cartesianIdEEEEEEEdeEv, symObjAddr: 0x19660, symBinAddr: 0x100020F20, symSize: 0x18 }
  - { offsetInCU: 0x7BC3E, offset: 0x88E47, size: 0x8, addend: 0x0, symName: __ZN4CGAL31Halfedge_around_target_iteratorINS_12Surface_meshINS_7Point_3INS_16Simple_cartesianIdEEEEEEEppEv, symObjAddr: 0x19678, symBinAddr: 0x100020F38, symSize: 0x8C }
  - { offsetInCU: 0x7BC63, offset: 0x88E6C, size: 0x8, addend: 0x0, symName: __ZN5boost9container12small_vectorINSt3__14pairIN4CGAL17SM_Halfedge_indexES5_EELm9EvvED1Ev, symObjAddr: 0x1991C, symBinAddr: 0x1000211DC, symSize: 0x2C }
  - { offsetInCU: 0x7BC8F, offset: 0x88E98, size: 0x8, addend: 0x0, symName: __ZNSt3__16vectorIbNS_9allocatorIbEEED1B8ue170006Ev, symObjAddr: 0x19948, symBinAddr: 0x100021208, symSize: 0x2C }
  - { offsetInCU: 0x7BCB8, offset: 0x88EC1, size: 0x8, addend: 0x0, symName: __ZNSt3__16vectorIN4CGAL17SM_Halfedge_indexENS_9allocatorIS2_EEED1B8ue170006Ev, symObjAddr: 0x19974, symBinAddr: 0x100021234, symSize: 0x2C }
  - { offsetInCU: 0x7BCE1, offset: 0x88EEA, size: 0x8, addend: 0x0, symName: __ZNKSt3__16vectorIN4CGAL15SM_Vertex_indexENS_9allocatorIS2_EEE11__make_iterB8ue170006EPKS2_, symObjAddr: 0x199A0, symBinAddr: 0x100021260, symSize: 0x30 }
  - { offsetInCU: 0x7BD15, offset: 0x88F1E, size: 0x8, addend: 0x0, symName: __ZNSt3__111__wrap_iterIPKN4CGAL15SM_Vertex_indexEEC1B8ue170006ES4_, symObjAddr: 0x199D0, symBinAddr: 0x100021290, symSize: 0x34 }
  - { offsetInCU: 0x7BD4C, offset: 0x88F55, size: 0x8, addend: 0x0, symName: __ZNSt3__111__wrap_iterIPKN4CGAL15SM_Vertex_indexEEC2B8ue170006ES4_, symObjAddr: 0x19A04, symBinAddr: 0x1000212C4, symSize: 0x20 }
  - { offsetInCU: 0x7BD83, offset: 0x88F8C, size: 0x8, addend: 0x0, symName: __ZNKSt3__111__wrap_iterIPKN4CGAL15SM_Vertex_indexEE4baseB8ue170006Ev, symObjAddr: 0x19A6C, symBinAddr: 0x10002132C, symSize: 0x18 }
  - { offsetInCU: 0x7BDA8, offset: 0x88FB1, size: 0x8, addend: 0x0, symName: __ZNK4CGAL12Surface_meshINS_7Point_3INS_16Simple_cartesianIdEEEEE8is_validENS_15SM_Vertex_indexEb, symObjAddr: 0x19A84, symBinAddr: 0x100021344, symSize: 0x200 }
  - { offsetInCU: 0x7BE3D, offset: 0x89046, size: 0x8, addend: 0x0, symName: __ZN4CGAL15Verbose_ostreamC1EbRNSt3__113basic_ostreamIcNS1_11char_traitsIcEEEE, symObjAddr: 0x19E10, symBinAddr: 0x1000216D0, symSize: 0x48 }
  - { offsetInCU: 0x7BE86, offset: 0x8908F, size: 0x8, addend: 0x0, symName: __ZNK4CGAL12Surface_meshINS_7Point_3INS_16Simple_cartesianIdEEEEE15has_valid_indexENS_15SM_Vertex_indexE, symObjAddr: 0x19E58, symBinAddr: 0x100021718, symSize: 0x5C }
  - { offsetInCU: 0x7BED0, offset: 0x890D9, size: 0x8, addend: 0x0, symName: __ZN4CGAL15Verbose_ostreamlsIA27_cEERS0_RKT_, symObjAddr: 0x19EB4, symBinAddr: 0x100021774, symSize: 0x4C }
  - { offsetInCU: 0x7BF0E, offset: 0x89117, size: 0x8, addend: 0x0, symName: __ZN4CGAL15Verbose_ostreamlsIjEERS0_RKT_, symObjAddr: 0x19F00, symBinAddr: 0x1000217C0, symSize: 0x50 }
  - { offsetInCU: 0x7BF4C, offset: 0x89155, size: 0x8, addend: 0x0, symName: __ZN4CGAL15Verbose_ostreamlsEPFRNSt3__113basic_ostreamIcNS1_11char_traitsIcEEEES6_E, symObjAddr: 0x19F50, symBinAddr: 0x100021810, symSize: 0x4C }
  - { offsetInCU: 0x7BF81, offset: 0x8918A, size: 0x8, addend: 0x0, symName: __ZNK4CGAL10Properties17Property_map_baseINS_15SM_Vertex_indexENS_12Surface_meshINS_7Point_3INS_16Simple_cartesianIdEEEEE19Vertex_connectivityENS8_12Property_mapIS2_S9_EEEixERKS2_, symObjAddr: 0x19F9C, symBinAddr: 0x10002185C, symSize: 0x90 }
  - { offsetInCU: 0x7BFB5, offset: 0x891BE, size: 0x8, addend: 0x0, symName: __ZN4CGAL12Surface_meshINS_7Point_3INS_16Simple_cartesianIdEEEEE13null_halfedgeEv, symObjAddr: 0x1A02C, symBinAddr: 0x1000218EC, symSize: 0x2C }
  - { offsetInCU: 0x7BFC9, offset: 0x891D2, size: 0x8, addend: 0x0, symName: __ZNK4CGAL12Surface_meshINS_7Point_3INS_16Simple_cartesianIdEEEEE15has_valid_indexENS_17SM_Halfedge_indexE, symObjAddr: 0x1A058, symBinAddr: 0x100021918, symSize: 0x5C }
  - { offsetInCU: 0x7BFFD, offset: 0x89206, size: 0x8, addend: 0x0, symName: __ZNK4CGAL12Surface_meshINS_7Point_3INS_16Simple_cartesianIdEEEEE10is_removedENS_17SM_Halfedge_indexE, symObjAddr: 0x1A0B4, symBinAddr: 0x100021974, symSize: 0x6C }
  - { offsetInCU: 0x7C047, offset: 0x89250, size: 0x8, addend: 0x0, symName: __ZN4CGAL15Verbose_ostreamlsIA44_cEERS0_RKT_, symObjAddr: 0x1A120, symBinAddr: 0x1000219E0, symSize: 0x4C }
  - { offsetInCU: 0x7C09B, offset: 0x892A4, size: 0x8, addend: 0x0, symName: __ZN4CGAL15Verbose_ostreamlsIA7_cEERS0_RKT_, symObjAddr: 0x1A16C, symBinAddr: 0x100021A2C, symSize: 0x4C }
  - { offsetInCU: 0x7C0D9, offset: 0x892E2, size: 0x8, addend: 0x0, symName: __ZN4CGAL15Verbose_ostreamC2EbRNSt3__113basic_ostreamIcNS1_11char_traitsIcEEEE, symObjAddr: 0x1A1B8, symBinAddr: 0x100021A78, symSize: 0x38 }
  - { offsetInCU: 0x7C122, offset: 0x8932B, size: 0x8, addend: 0x0, symName: __ZN4CGAL17SM_Halfedge_indexC1Ej, symObjAddr: 0x1A1F0, symBinAddr: 0x100021AB0, symSize: 0x34 }
  - { offsetInCU: 0x7C159, offset: 0x89362, size: 0x8, addend: 0x0, symName: __ZN4CGAL17SM_Halfedge_indexC2Ej, symObjAddr: 0x1A224, symBinAddr: 0x100021AE4, symSize: 0x34 }
  - { offsetInCU: 0x7C190, offset: 0x89399, size: 0x8, addend: 0x0, symName: __ZN4CGAL8SM_IndexINS_17SM_Halfedge_indexEEC2Ej, symObjAddr: 0x1A258, symBinAddr: 0x100021B18, symSize: 0x20 }
  - { offsetInCU: 0x7C1C7, offset: 0x893D0, size: 0x8, addend: 0x0, symName: __ZNK4CGAL12Surface_meshINS_7Point_3INS_16Simple_cartesianIdEEEEE13num_halfedgesEv, symObjAddr: 0x1A278, symBinAddr: 0x100021B38, symSize: 0x28 }
  - { offsetInCU: 0x7C1EC, offset: 0x893F5, size: 0x8, addend: 0x0, symName: __ZNK4CGAL10Properties18Property_containerINS_12Surface_meshINS_7Point_3INS_16Simple_cartesianIdEEEEEENS_17SM_Halfedge_indexEE4sizeEv, symObjAddr: 0x1A2A0, symBinAddr: 0x100021B60, symSize: 0x18 }
  - { offsetInCU: 0x7C211, offset: 0x8941A, size: 0x8, addend: 0x0, symName: __ZNK4CGAL10Properties17Property_map_baseINS_13SM_Edge_indexEbNS_12Surface_meshINS_7Point_3INS_16Simple_cartesianIdEEEEE12Property_mapIS2_bEEEixERKS2_, symObjAddr: 0x1A2B8, symBinAddr: 0x100021B78, symSize: 0xA0 }
  - { offsetInCU: 0x7C245, offset: 0x8944E, size: 0x8, addend: 0x0, symName: __ZNK4CGAL12Surface_meshINS_7Point_3INS_16Simple_cartesianIdEEEEE4edgeENS_17SM_Halfedge_indexE, symObjAddr: 0x1A358, symBinAddr: 0x100021C18, symSize: 0x40 }
  - { offsetInCU: 0x7C279, offset: 0x89482, size: 0x8, addend: 0x0, symName: __ZNK4CGAL13SM_Edge_indexcvjEv, symObjAddr: 0x1A398, symBinAddr: 0x100021C58, symSize: 0x2C }
  - { offsetInCU: 0x7C29E, offset: 0x894A7, size: 0x8, addend: 0x0, symName: __ZN4CGAL13SM_Edge_indexC1ENS_17SM_Halfedge_indexE, symObjAddr: 0x1A3C4, symBinAddr: 0x100021C84, symSize: 0x3C }
  - { offsetInCU: 0x7C2D5, offset: 0x894DE, size: 0x8, addend: 0x0, symName: __ZN4CGAL13SM_Edge_indexC2ENS_17SM_Halfedge_indexE, symObjAddr: 0x1A400, symBinAddr: 0x100021CC0, symSize: 0x24 }
  - { offsetInCU: 0x7C30C, offset: 0x89515, size: 0x8, addend: 0x0, symName: __ZNK4CGAL15SM_Vertex_indexneERKS0_, symObjAddr: 0x1A424, symBinAddr: 0x100021CE4, symSize: 0x30 }
  - { offsetInCU: 0x7C33F, offset: 0x89548, size: 0x8, addend: 0x0, symName: __ZN5boost12graph_traitsIN4CGAL12Surface_meshINS1_7Point_3INS1_16Simple_cartesianIdEEEEEEE11null_vertexEv, symObjAddr: 0x1A454, symBinAddr: 0x100021D14, symSize: 0x24 }
  - { offsetInCU: 0x7C369, offset: 0x89572, size: 0x8, addend: 0x0, symName: __ZN4CGAL15Verbose_ostreamlsIA16_cEERS0_RKT_, symObjAddr: 0x1A478, symBinAddr: 0x100021D38, symSize: 0x4C }
  - { offsetInCU: 0x7C3BD, offset: 0x895C6, size: 0x8, addend: 0x0, symName: __ZN4CGAL15Verbose_ostreamlsIA31_cEERS0_RKT_, symObjAddr: 0x1A508, symBinAddr: 0x100021DC8, symSize: 0x4C }
  - { offsetInCU: 0x7C3FB, offset: 0x89604, size: 0x8, addend: 0x0, symName: __ZNK4CGAL12Surface_meshINS_7Point_3INS_16Simple_cartesianIdEEEEE6targetENS_17SM_Halfedge_indexE, symObjAddr: 0x1A554, symBinAddr: 0x100021E14, symSize: 0x40 }
  - { offsetInCU: 0x7C42F, offset: 0x89638, size: 0x8, addend: 0x0, symName: __ZNK4CGAL10Properties17Property_map_baseINS_17SM_Halfedge_indexENS_12Surface_meshINS_7Point_3INS_16Simple_cartesianIdEEEEE21Halfedge_connectivityENS8_12Property_mapIS2_S9_EEEixERKS2_, symObjAddr: 0x1A594, symBinAddr: 0x100021E54, symSize: 0x90 }
  - { offsetInCU: 0x7C463, offset: 0x8966C, size: 0x8, addend: 0x0, symName: __ZN4CGAL10Properties14Property_arrayINS_12Surface_meshINS_7Point_3INS_16Simple_cartesianIdEEEEE21Halfedge_connectivityEEixEm, symObjAddr: 0x1A624, symBinAddr: 0x100021EE4, symSize: 0x88 }
  - { offsetInCU: 0x7C496, offset: 0x8969F, size: 0x8, addend: 0x0, symName: __ZNKSt3__16vectorIN4CGAL12Surface_meshINS1_7Point_3INS1_16Simple_cartesianIdEEEEE21Halfedge_connectivityENS_9allocatorIS8_EEE4sizeB8ue170006Ev, symObjAddr: 0x1A6AC, symBinAddr: 0x100021F6C, symSize: 0x28 }
  - { offsetInCU: 0x7C4BB, offset: 0x896C4, size: 0x8, addend: 0x0, symName: __ZNSt3__16vectorIN4CGAL12Surface_meshINS1_7Point_3INS1_16Simple_cartesianIdEEEEE21Halfedge_connectivityENS_9allocatorIS8_EEEixB8ue170006Em, symObjAddr: 0x1A6D4, symBinAddr: 0x100021F94, symSize: 0x24 }
  - { offsetInCU: 0x7C4F6, offset: 0x896FF, size: 0x8, addend: 0x0, symName: __ZN4CGAL22Precondition_exceptionC1ENSt3__112basic_stringIcNS1_11char_traitsIcEENS1_9allocatorIcEEEES7_S7_iS7_, symObjAddr: 0x1A6F8, symBinAddr: 0x100021FB8, symSize: 0x54 }
  - { offsetInCU: 0x7C569, offset: 0x89772, size: 0x8, addend: 0x0, symName: __ZN4CGAL22Precondition_exceptionD1Ev, symObjAddr: 0x1A74C, symBinAddr: 0x10002200C, symSize: 0x2C }
  - { offsetInCU: 0x7C593, offset: 0x8979C, size: 0x8, addend: 0x0, symName: __ZN4CGAL22Precondition_exceptionC2ENSt3__112basic_stringIcNS1_11char_traitsIcEENS1_9allocatorIcEEEES7_S7_iS7_, symObjAddr: 0x1A778, symBinAddr: 0x100022038, symSize: 0x19C }
  - { offsetInCU: 0x7C606, offset: 0x8980F, size: 0x8, addend: 0x0, symName: __ZN4CGAL22Precondition_exceptionD0Ev, symObjAddr: 0x1A914, symBinAddr: 0x1000221D4, symSize: 0x30 }
  - { offsetInCU: 0x7C630, offset: 0x89839, size: 0x8, addend: 0x0, symName: __ZN4CGAL22Precondition_exceptionD2Ev, symObjAddr: 0x1A944, symBinAddr: 0x100022204, symSize: 0x2C }
  - { offsetInCU: 0x7C65A, offset: 0x89863, size: 0x8, addend: 0x0, symName: __ZNSt3__16vectorIN4CGAL15SM_Vertex_indexENS_9allocatorIS2_EEEC2INS_11__wrap_iterIPKS2_EELi0EEET_SB_, symObjAddr: 0x1A970, symBinAddr: 0x100022230, symSize: 0x94 }
  - { offsetInCU: 0x7C6CF, offset: 0x898D8, size: 0x8, addend: 0x0, symName: __ZNSt3__16vectorIN4CGAL15SM_Vertex_indexENS_9allocatorIS2_EEE16__init_with_sizeB8ue170006INS_11__wrap_iterIPKS2_EESA_EEvT_T0_m, symObjAddr: 0x1AA40, symBinAddr: 0x100022300, symSize: 0xC8 }
  - { offsetInCU: 0x7C742, offset: 0x8994B, size: 0x8, addend: 0x0, symName: __ZNSt3__16vectorIN4CGAL15SM_Vertex_indexENS_9allocatorIS2_EEE18__construct_at_endINS_11__wrap_iterIPKS2_EESA_EEvT_T0_m, symObjAddr: 0x1AB80, symBinAddr: 0x100022440, symSize: 0x9C }
  - { offsetInCU: 0x7C7D4, offset: 0x899DD, size: 0x8, addend: 0x0, symName: __ZNSt3__14pairIPKN4CGAL15SM_Vertex_indexES4_EC1B8ue170006IS4_S4_LPv0EEEOT_OT0_, symObjAddr: 0x1AE18, symBinAddr: 0x1000226D8, symSize: 0x3C }
  - { offsetInCU: 0x7C831, offset: 0x89A3A, size: 0x8, addend: 0x0, symName: __ZNSt3__14pairIPKN4CGAL15SM_Vertex_indexES4_EC2B8ue170006IS4_S4_LPv0EEEOT_OT0_, symObjAddr: 0x1AE54, symBinAddr: 0x100022714, symSize: 0x34 }
  - { offsetInCU: 0x7C88E, offset: 0x89A97, size: 0x8, addend: 0x0, symName: __ZNSt3__118__unwrap_iter_implINS_11__wrap_iterIPKN4CGAL15SM_Vertex_indexEEELb1EE8__unwrapB8ue170006ES6_, symObjAddr: 0x1AE88, symBinAddr: 0x100022748, symSize: 0x28 }
  - { offsetInCU: 0x7C8BD, offset: 0x89AC6, size: 0x8, addend: 0x0, symName: __ZNSt3__119__to_address_helperINS_11__wrap_iterIPKN4CGAL15SM_Vertex_indexEEEvE6__callB8ue170006ERKS6_, symObjAddr: 0x1AED4, symBinAddr: 0x100022794, symSize: 0x30 }
  - { offsetInCU: 0x7C8E0, offset: 0x89AE9, size: 0x8, addend: 0x0, symName: __ZNSt3__114pointer_traitsINS_11__wrap_iterIPKN4CGAL15SM_Vertex_indexEEEE10to_addressB8ue170006ES6_, symObjAddr: 0x1AF04, symBinAddr: 0x1000227C4, symSize: 0x2C }
  - { offsetInCU: 0x7C91C, offset: 0x89B25, size: 0x8, addend: 0x0, symName: __ZNKSt3__114__copy_trivialclB8ue170006IKN4CGAL15SM_Vertex_indexES3_Li0EEENS_4pairIPT_PT0_EES7_S7_S9_, symObjAddr: 0x1B120, symBinAddr: 0x1000229E0, symSize: 0x48 }
  - { offsetInCU: 0x7C989, offset: 0x89B92, size: 0x8, addend: 0x0, symName: __ZNSt3__118__unwrap_iter_implIPKN4CGAL15SM_Vertex_indexELb1EE8__unwrapB8ue170006ES4_, symObjAddr: 0x1B1F0, symBinAddr: 0x100022AB0, symSize: 0x24 }
  - { offsetInCU: 0x7C9B8, offset: 0x89BC1, size: 0x8, addend: 0x0, symName: __ZNSt3__14pairIPKN4CGAL15SM_Vertex_indexEPS2_EC1B8ue170006IRS4_S5_LPv0EEEOT_OT0_, symObjAddr: 0x1B330, symBinAddr: 0x100022BF0, symSize: 0x3C }
  - { offsetInCU: 0x7CA15, offset: 0x89C1E, size: 0x8, addend: 0x0, symName: __ZNSt3__14pairIPKN4CGAL15SM_Vertex_indexEPS2_EC2B8ue170006IRS4_S5_LPv0EEEOT_OT0_, symObjAddr: 0x1B36C, symBinAddr: 0x100022C2C, symSize: 0x34 }
  - { offsetInCU: 0x7CA72, offset: 0x89C7B, size: 0x8, addend: 0x0, symName: __ZNSt3__14pairIPKN4CGAL15SM_Vertex_indexEPS2_EC1B8ue170006IS4_S5_LPv0EEEOT_OT0_, symObjAddr: 0x1B3A0, symBinAddr: 0x100022C60, symSize: 0x3C }
  - { offsetInCU: 0x7CACF, offset: 0x89CD8, size: 0x8, addend: 0x0, symName: __ZNSt3__14pairIPKN4CGAL15SM_Vertex_indexEPS2_EC2B8ue170006IS4_S5_LPv0EEEOT_OT0_, symObjAddr: 0x1B3DC, symBinAddr: 0x100022C9C, symSize: 0x34 }
  - { offsetInCU: 0x7CB2C, offset: 0x89D35, size: 0x8, addend: 0x0, symName: __ZNSt3__118__unwrap_iter_implIPKN4CGAL15SM_Vertex_indexELb1EE8__rewrapB8ue170006ES4_S4_, symObjAddr: 0x1B44C, symBinAddr: 0x100022D0C, symSize: 0x50 }
  - { offsetInCU: 0x7CB61, offset: 0x89D6A, size: 0x8, addend: 0x0, symName: __ZNSt3__118__unwrap_iter_implIPN4CGAL15SM_Vertex_indexELb1EE8__unwrapB8ue170006ES3_, symObjAddr: 0x1B49C, symBinAddr: 0x100022D5C, symSize: 0x24 }
  - { offsetInCU: 0x7CB86, offset: 0x89D8F, size: 0x8, addend: 0x0, symName: __ZNSt3__118__unwrap_iter_implIPN4CGAL15SM_Vertex_indexELb1EE8__rewrapB8ue170006ES3_S3_, symObjAddr: 0x1B4C0, symBinAddr: 0x100022D80, symSize: 0x50 }
  - { offsetInCU: 0x7CBBB, offset: 0x89DC4, size: 0x8, addend: 0x0, symName: __ZNKSt3__16__lessIvvEclB8ue170006IN4CGAL15SM_Vertex_indexES4_EEbRKT_RKT0_, symObjAddr: 0x1BB70, symBinAddr: 0x100023414, symSize: 0x34 }
  - { offsetInCU: 0x7CC12, offset: 0x89E1B, size: 0x8, addend: 0x0, symName: __ZNSt3__18_IterOpsINS_17_ClassicAlgPolicyEE9iter_swapB8ue170006IRPN4CGAL15SM_Vertex_indexES7_EEvOT_OT0_, symObjAddr: 0x1BBA4, symBinAddr: 0x100023448, symSize: 0x34 }
  - { offsetInCU: 0x7CC59, offset: 0x89E62, size: 0x8, addend: 0x0, symName: __ZNSt3__18_IterOpsINS_17_ClassicAlgPolicyEE9iter_swapB8ue170006IRPN4CGAL15SM_Vertex_indexES6_EEvOT_OT0_, symObjAddr: 0x1C0EC, symBinAddr: 0x100023990, symSize: 0x34 }
  - { offsetInCU: 0x7CCA0, offset: 0x89EA9, size: 0x8, addend: 0x0, symName: __ZNK4CGAL15SM_Vertex_indexltERKS0_, symObjAddr: 0x1CB88, symBinAddr: 0x10002442C, symSize: 0x30 }
  - { offsetInCU: 0x7CCD8, offset: 0x89EE1, size: 0x8, addend: 0x0, symName: __ZNSt3__18_IterOpsINS_17_ClassicAlgPolicyEE11__iter_moveB8ue170006IRPN4CGAL15SM_Vertex_indexEEENS_9enable_ifIXsr12is_referenceIDTdeclsr3stdE7declvalIRT_EEEEE5valueEDTclsr3stdE4movedeclsr3stdE7declvalISA_EEEEE4typeEOS9_, symObjAddr: 0x1CDC0, symBinAddr: 0x100024664, symSize: 0x28 }
  - { offsetInCU: 0x7CD06, offset: 0x89F0F, size: 0x8, addend: 0x0, symName: __ZNSt3__18_IterOpsINS_17_ClassicAlgPolicyEE25__validate_iter_referenceB8ue170006IRPN4CGAL15SM_Vertex_indexEEEvv, symObjAddr: 0x1CDE8, symBinAddr: 0x10002468C, symSize: 0x4 }
